 leveldown

 Timestamp is 5cc3fd7f (Sat Apr 27 13:58:07 2019)

 Preferred load address is 0000000180000000

 Start         Length     Name                   Class
 0001:00000000 00000090H .text$di                CODE
 0001:00000090 00051c50H .text$mn                CODE
 0001:00051ce0 00000020H .text$mn$00             CODE
 0001:00051d00 00007830H .text$x                 CODE
 0001:00059530 0000006eH .text$yd                CODE
 0002:00000000 00000320H .idata$5                DATA
 0002:00000320 00000010H .00cfg                  DATA
 0002:00000330 00000008H .CRT$XCA                DATA
 0002:00000338 00000028H .CRT$XCU                DATA
 0002:00000360 00000008H .CRT$XCZ                DATA
 0002:00000368 00000008H .CRT$XIA                DATA
 0002:00000370 00000020H .CRT$XIC                DATA
 0002:00000390 00000008H .CRT$XIZ                DATA
 0002:00000398 00000008H .CRT$XLA                DATA
 0002:000003a0 00000008H .CRT$XLZ                DATA
 0002:000003a8 00000008H .CRT$XPA                DATA
 0002:000003b0 00000010H .CRT$XPX                DATA
 0002:000003c0 00000008H .CRT$XPXA               DATA
 0002:000003c8 00000008H .CRT$XPZ                DATA
 0002:000003d0 00000008H .CRT$XTA                DATA
 0002:000003d8 00000008H .CRT$XTZ                DATA
 0002:000003e0 00000000H .gfids$y                DATA
 0002:000003e0 00012c40H .rdata                  DATA
 0002:00013020 00000028H .rdata$T                DATA
 0002:00013048 0000037cH .rdata$r                DATA
 0002:000133c4 0000044cH .rdata$zzzdbg           DATA
 0002:00013810 00000008H .rtc$IAA                DATA
 0002:00013818 00000008H .rtc$IZZ                DATA
 0002:00013820 00000008H .rtc$TAA                DATA
 0002:00013828 00000008H .rtc$TZZ                DATA
 0002:00013830 00000004H .tls                    DATA
 0002:00013834 00000004H .tls$                   DATA
 0002:00013838 00000008H .tls$ZZZ                DATA
 0002:00013840 0000c760H .xdata                  DATA
 0002:0001ffa0 000001dcH .xdata$x                DATA
 0002:0002017c 00000020H .didat$2                DATA
 0002:0002019c 00000024H .didat$3                DATA
 0002:000201c0 00000298H .didat$4                DATA
 0002:00020458 000011d0H .didat$6                DATA
 0002:00021628 00000298H .didat$7                DATA
 0002:000218c0 00000058H .edata                  DATA
 0002:00021918 00000014H .idata$2                DATA
 0002:0002192c 00000014H .idata$3                DATA
 0002:00021940 00000320H .idata$4                DATA
 0002:00021c60 00000722H .idata$6                DATA
 0003:00000000 00000a80H .data                   DATA
 0003:00000a80 00000118H .data$r                 DATA
 0003:00000b98 00000298H .didat$5                DATA
 0003:00000e30 000012e4H .bss                    DATA
 0004:00000000 00004d28H .pdata                  DATA
 0005:00000000 00000060H .rsrc$01                DATA
 0005:00000060 00000180H .rsrc$02                DATA

  Address         Publics by Value              Rva+Base               Lib:Object

 0000:00000000       __guard_fids_count         0000000000000000     <absolute>
 0000:00000000       __guard_longjmp_count      0000000000000000     <absolute>
 0000:00000000       __hybrid_code_map          0000000000000000     <absolute>
 0000:00000000       __guard_iat_count          0000000000000000     <absolute>
 0000:00000000       __guard_longjmp_table      0000000000000000     <absolute>
 0000:00000000       __volatile_metadata        0000000000000000     <absolute>
 0000:00000000       __guard_iat_table          0000000000000000     <absolute>
 0000:00000000       __hybrid_code_map_count    0000000000000000     <absolute>
 0000:00000000       __enclave_config           0000000000000000     <absolute>
 0000:00000000       ___safe_se_handler_count   0000000000000000     <absolute>
 0000:00000000       ___safe_se_handler_table   0000000000000000     <absolute>
 0000:00000000       __guard_fids_table         0000000000000000     <absolute>
 0000:00000000       __hybrid_auxiliary_iat     0000000000000000     <absolute>
 0000:00000000       __dynamic_value_reloc_table 0000000000000000     <absolute>
 0000:00000100       __guard_flags              0000000000000100     <absolute>
 0000:00000000       __ImageBase                0000000180000000     <linker-defined>
 0001:00000170       ?New@?$Factory@VFunctionTemplate@v8@@@imp@Nan@@SA?AV?$Local@VFunctionTemplate@v8@@@v8@@P6AXAEBV?$FunctionCallbackInfo@VValue@v8@@@3@@ZV?$Local@VValue@v8@@@5@V?$Local@VSignature@v8@@@5@@Z 0000000180001170 f i batch.obj
 0001:00000340       ??1EscapableHandleScope@Nan@@QEAA@XZ 0000000180001340 f i batch.obj
 0001:00000370       ?ThrowError@Nan@@YAXPEBD@Z 0000000180001370 f i batch.obj
 0001:00000410       ??1HandleScope@Nan@@QEAA@XZ 0000000180001410 f i batch.obj
 0001:00000430       ??1?$Persistent@VFunction@v8@@V?$NonCopyablePersistentTraits@VFunction@v8@@@2@@Nan@@QEAA@XZ 0000000180001430 f i batch.obj
 0001:00000430       ??1?$Persistent@VObject@v8@@V?$NonCopyablePersistentTraits@VObject@v8@@@2@@Nan@@QEAA@XZ 0000000180001430 f i batch.obj
 0001:00000450       ?SaveToPersistent@AsyncWorker@Nan@@QEAAXPEBDAEBV?$Local@VValue@v8@@@v8@@@Z 0000000180001450 f i batch.obj
 0001:00000510       ?AsyncExecute@Nan@@YAXPEAUuv_work_s@@@Z 0000000180001510 f i batch.obj
 0001:00000520       ?AsyncExecuteComplete@Nan@@YAXPEAUuv_work_s@@@Z 0000000180001520 f i batch.obj
 0001:00000550       ?SetPrototypeMethod@Nan@@YAXV?$Local@VFunctionTemplate@v8@@@v8@@PEBDP6AXAEBV?$FunctionCallbackInfo@VValue@v8@@@1@@Z@Z 0000000180001550 f i batch.obj
 0001:00000640       ??1ObjectWrap@Nan@@UEAA@XZ 0000000180001640 f i batch.obj
 0001:000006c0       ?Wrap@ObjectWrap@Nan@@IEAAXV?$Local@VObject@v8@@@v8@@@Z 00000001800016c0 f i batch.obj
 0001:000007a0       ?Ref@ObjectWrap@Nan@@MEAAXXZ 00000001800017a0 f i batch.obj
 0001:000007e0       ?Unref@ObjectWrap@Nan@@MEAAXXZ 00000001800017e0 f i batch.obj
 0001:00000890       ?WeakCallback@ObjectWrap@Nan@@CAXAEBV?$WeakCallbackInfo@VObjectWrap@Nan@@@v8@@@Z 0000000180001890 f i batch.obj
 0001:00000920       ??_EObjectWrap@Nan@@UEAAPEAXI@Z 0000000180001920 f i * CIL library *:* CIL module *
 0001:00000920       ??_GObjectWrap@Nan@@UEAAPEAXI@Z 0000000180001920 f i batch.obj
 0001:00000960       ??1Status@leveldb@@QEAA@XZ 0000000180001960 f i batch.obj
 0001:00000970       ?BooleanOptionValue@leveldown@@YA_NV?$Local@VObject@v8@@@v8@@PEBD_N@Z 0000000180001970 f i batch.obj
 0001:00000a30       ??_EBatch@leveldown@@UEAAPEAXI@Z 0000000180001a30 f i * CIL library *:* CIL module *
 0001:00000a30       ??_GBatch@leveldown@@UEAAPEAXI@Z 0000000180001a30 f i batch.obj
 0001:00000aa0       ??_GWriteBatch@leveldb@@QEAAPEAXI@Z 0000000180001aa0 f i batch.obj
 0001:00000b20       ?Write@Batch@leveldown@@QEAA?AVStatus@leveldb@@XZ 0000000180001b20 f   batch.obj
 0001:00000b80       ?New@Batch@leveldown@@CAXAEBV?$FunctionCallbackInfo@VValue@v8@@@Nan@@@Z 0000000180001b80 f   batch.obj
 0001:00000d10       ?NewInstance@Batch@leveldown@@SA?AV?$Local@VValue@v8@@@v8@@V?$Local@VObject@v8@@@4@0@Z 0000000180001d10 f   batch.obj
 0001:00000ed0       ?Put@Batch@leveldown@@CAXAEBV?$FunctionCallbackInfo@VValue@v8@@@Nan@@@Z 0000000180001ed0 f   batch.obj
 0001:00001220       ?Del@Batch@leveldown@@CAXAEBV?$FunctionCallbackInfo@VValue@v8@@@Nan@@@Z 0000000180002220 f   batch.obj
 0001:000013f0       ?Clear@Batch@leveldown@@CAXAEBV?$FunctionCallbackInfo@VValue@v8@@@Nan@@@Z 00000001800023f0 f   batch.obj
 0001:00001470       ?Write@Batch@leveldown@@CAXAEBV?$FunctionCallbackInfo@VValue@v8@@@Nan@@@Z 0000000180002470 f   batch.obj
 0001:00001680       ??1?$Persistent@VFunction@v8@@V?$NonCopyablePersistentTraits@VFunction@v8@@@2@@v8@@QEAA@XZ 0000000180002680 f i batch.obj
 0001:00001680       ??1?$Persistent@VFunctionTemplate@v8@@V?$NonCopyablePersistentTraits@VFunctionTemplate@v8@@@2@@v8@@QEAA@XZ 0000000180002680 f i batch.obj
 0001:00001680       ??1?$Persistent@VObject@v8@@V?$NonCopyablePersistentTraits@VObject@v8@@@2@@v8@@QEAA@XZ 0000000180002680 f i batch.obj
 0001:000016a0       ??$Unwrap@VIterator@leveldown@@@ObjectWrap@Nan@@SAPEAVIterator@leveldown@@V?$Local@VObject@v8@@@v8@@@Z 00000001800026a0 f i database.obj
 0001:000016a0       ??$Unwrap@VDatabase@leveldown@@@ObjectWrap@Nan@@SAPEAVDatabase@leveldown@@V?$Local@VObject@v8@@@v8@@@Z 00000001800026a0 f i batch.obj
 0001:000016a0       ??$Unwrap@VBatch@leveldown@@@ObjectWrap@Nan@@SAPEAVBatch@leveldown@@V?$Local@VObject@v8@@@v8@@@Z 00000001800026a0 f i batch.obj
 0001:00001730       ??4Status@leveldb@@QEAAXAEBV01@@Z 0000000180002730 f i batch_async.obj
 0001:000017a0       ?Call@Callback@Nan@@QEBA?AV?$Local@VValue@v8@@@v8@@HQEAV34@@Z 00000001800027a0 f i batch_async.obj
 0001:000018c0       ??1AsyncWorker@Nan@@UEAA@XZ 00000001800028c0 f i batch_async.obj
 0001:00001990       ?WorkComplete@AsyncWorker@Nan@@UEAAXXZ 0000000180002990 f i batch_async.obj
 0001:00001a30       ?Destroy@AsyncWorker@Nan@@UEAAXXZ 0000000180002a30 f i batch_async.obj
 0001:00001a50       ?HandleOKCallback@AsyncWorker@Nan@@MEAAXXZ 0000000180002a50 f i batch_async.obj
 0001:00001aa0       ?HandleErrorCallback@AsyncWorker@Nan@@MEAAXXZ 0000000180002aa0 f i batch_async.obj
 0001:00001b50       ??_EAsyncWorker@Nan@@UEAAPEAXI@Z 0000000180002b50 f i * CIL library *:* CIL module *
 0001:00001b50       ??_GAsyncWorker@Nan@@UEAAPEAXI@Z 0000000180002b50 f i batch_async.obj
 0001:00001b90       ??0AsyncWorker@leveldown@@QEAA@PEAVDatabase@1@PEAVCallback@Nan@@@Z 0000000180002b90 f i batch_async.obj
 0001:00001c70       ?SetStatus@AsyncWorker@leveldown@@IEAAXVStatus@leveldb@@@Z 0000000180002c70 f i batch_async.obj
 0001:00001dd0       ??_EAsyncWorker@leveldown@@UEAAPEAXI@Z 0000000180002dd0 f i * CIL library *:* CIL module *
 0001:00001dd0       ??_GAsyncWorker@leveldown@@UEAAPEAXI@Z 0000000180002dd0 f i batch_async.obj
 0001:00001e30       ??1AsyncWorker@leveldown@@UEAA@XZ 0000000180002e30 f i batch_async.obj
 0001:00001e60       ??_EBatchWriteWorker@leveldown@@UEAAPEAXI@Z 0000000180002e60 f i * CIL library *:* CIL module *
 0001:00001e60       ??_GBatchWriteWorker@leveldown@@UEAAPEAXI@Z 0000000180002e60 f i batch_async.obj
 0001:00001ec0       ?Execute@BatchWriteWorker@leveldown@@UEAAXXZ 0000000180002ec0 f   batch_async.obj
 0001:00001f00       ?c_str@?$basic_string@DU?$char_traits@D@std@@V?$allocator@D@2@@std@@QEBAPEBDXZ 0000000180002f00 f i batch_async.obj
 0001:00001f10       ??1?$basic_string@DU?$char_traits@D@std@@V?$allocator@D@2@@std@@QEAA@XZ 0000000180002f10 f i batch_async.obj
 0001:00001f80       ?_Tidy_deallocate@?$basic_string@DU?$char_traits@D@std@@V?$allocator@D@2@@std@@QEAAXXZ 0000000180002f80 f i batch_async.obj
 0001:00001fe0       ??0Utf8String@Nan@@QEAA@V?$Local@VValue@v8@@@v8@@@Z 0000000180002fe0 f i database.obj
 0001:00002100       ?UInt32OptionValue@leveldown@@YAIV?$Local@VObject@v8@@@v8@@PEBDI@Z 0000000180003100 f i database.obj
 0001:000021e0       ??_EDatabase@leveldown@@UEAAPEAXI@Z 00000001800031e0 f i * CIL library *:* CIL module *
 0001:000021e0       ??_GDatabase@leveldown@@UEAAPEAXI@Z 00000001800031e0 f i database.obj
 0001:000022a0       ??1?$map@IPEAVIterator@leveldown@@U?$less@I@std@@V?$allocator@U?$pair@$$CBIPEAVIterator@leveldown@@@std@@@4@@std@@QEAA@XZ 00000001800032a0 f i database.obj
 0001:000022e0       ?OpenDatabase@Database@leveldown@@QEAA?AVStatus@leveldb@@PEAUOptions@4@@Z 00000001800032e0 f   database.obj
 0001:000023e0       ?PutToDatabase@Database@leveldown@@QEAA?AVStatus@leveldb@@PEAUWriteOptions@4@VSlice@4@1@Z 00000001800033e0 f   database.obj
 0001:00002430       ?GetFromDatabase@Database@leveldown@@QEAA?AVStatus@leveldb@@PEAUReadOptions@4@VSlice@4@AEAV?$basic_string@DU?$char_traits@D@std@@V?$allocator@D@2@@std@@@Z 0000000180003430 f   database.obj
 0001:00002480       ?DeleteFromDatabase@Database@leveldown@@QEAA?AVStatus@leveldb@@PEAUWriteOptions@4@VSlice@4@@Z 0000000180003480 f   database.obj
 0001:000024c0       ?WriteBatchToDatabase@Database@leveldown@@QEAA?AVStatus@leveldb@@PEAUWriteOptions@4@PEAVWriteBatch@4@@Z 00000001800034c0 f   database.obj
 0001:00002500       ?LevelDOWN@leveldown@@YAXAEBV?$FunctionCallbackInfo@VValue@v8@@@Nan@@@Z 0000000180003500 f   database.obj
 0001:00002670       ?New@Database@leveldown@@CAXAEBV?$FunctionCallbackInfo@VValue@v8@@@Nan@@@Z 0000000180003670 f   database.obj
 0001:00002790       ?Open@Database@leveldown@@CAXAEBV?$FunctionCallbackInfo@VValue@v8@@@Nan@@@Z 0000000180003790 f   database.obj
 0001:00002c10       ?Prune@Cache@leveldb@@UEAAXXZ 0000000180003c10 f   leveldb:cache.obj
 0001:00002c10       ?EmptyMethod@leveldown@@YAXAEBV?$FunctionCallbackInfo@VValue@v8@@@Nan@@@Z 0000000180003c10 f   database.obj
 0001:00002c10       _guard_check_icall_nop     0000000180003c10 f   LIBCMT:guard_support.obj
 0001:00002c20       ?Close@Database@leveldown@@CAXAEBV?$FunctionCallbackInfo@VValue@v8@@@Nan@@@Z 0000000180003c20 f   database.obj
 0001:00002f80       ?Put@Database@leveldown@@CAXAEBV?$FunctionCallbackInfo@VValue@v8@@@Nan@@@Z 0000000180003f80 f   database.obj
 0001:00003500       ?Get@Database@leveldown@@CAXAEBV?$FunctionCallbackInfo@VValue@v8@@@Nan@@@Z 0000000180004500 f   database.obj
 0001:000039b0       ?Delete@Database@leveldown@@CAXAEBV?$FunctionCallbackInfo@VValue@v8@@@Nan@@@Z 00000001800049b0 f   database.obj
 0001:00003d90       ?Batch@Database@leveldown@@CAXAEBV?$FunctionCallbackInfo@VValue@v8@@@Nan@@@Z 0000000180004d90 f   database.obj
 0001:000047e0       ?ApproximateSize@Database@leveldown@@CAXAEBV?$FunctionCallbackInfo@VValue@v8@@@Nan@@@Z 00000001800057e0 f   database.obj
 0001:00004c00       ?CompactRange@Database@leveldown@@CAXAEBV?$FunctionCallbackInfo@VValue@v8@@@Nan@@@Z 0000000180005c00 f   database.obj
 0001:00005020       ?GetProperty@Database@leveldown@@CAXAEBV?$FunctionCallbackInfo@VValue@v8@@@Nan@@@Z 0000000180006020 f   database.obj
 0001:00005280       ?Iterator@Database@leveldown@@CAXAEBV?$FunctionCallbackInfo@VValue@v8@@@Nan@@@Z 0000000180006280 f   database.obj
 0001:00005460       ??1TryCatch@Nan@@QEAA@XZ   0000000180006460 f i database.obj
 0001:00005480       ??1?$_Tree@V?$_Tmap_traits@IPEAVIterator@leveldown@@U?$less@I@std@@V?$allocator@U?$pair@$$CBIPEAVIterator@leveldown@@@std@@@4@$0A@@std@@@std@@QEAA@XZ 0000000180006480 f i database.obj
 0001:000054c0       ??0?$basic_string@DU?$char_traits@D@std@@V?$allocator@D@2@@std@@QEAA@XZ 00000001800064c0 f i database.obj
 0001:000054e0       ??1?$_Tree_comp_alloc@V?$_Tset_traits@U?$pair@H_K@std@@U?$less@U?$pair@H_K@std@@@2@V?$allocator@U?$pair@H_K@std@@@2@$0A@@std@@@std@@QEAA@XZ 00000001800064e0 f i leveldb:db_impl.obj
 0001:000054e0       ??1?$_Tree_comp_alloc@V?$_Tmap_traits@IPEAVIterator@leveldown@@U?$less@I@std@@V?$allocator@U?$pair@$$CBIPEAVIterator@leveldown@@@std@@@4@$0A@@std@@@std@@QEAA@XZ 00000001800064e0 f i database.obj
 0001:00005500       ?erase@?$_Tree@V?$_Tmap_traits@IPEAVIterator@leveldown@@U?$less@I@std@@V?$allocator@U?$pair@$$CBIPEAVIterator@leveldown@@@std@@@4@$0A@@std@@@std@@QEAA?AV?$_Tree_iterator@V?$_Tree_val@U?$_Tree_simple_types@U?$pair@$$CBIPEAVIterator@leveldown@@@std@@@std@@@std@@@2@V?$_Tree_const_iterator@V?$_Tree_val@U?$_Tree_simple_types@U?$pair@$$CBIPEAVIterator@leveldown@@@std@@@std@@@std@@@2@0@Z 0000000180006500 f i database.obj
 0001:00005680       ?assign@?$basic_string@DU?$char_traits@D@std@@V?$allocator@D@2@@std@@QEAAAEAV12@QEBD_K@Z 0000000180006680 f i database.obj
 0001:000057d0       ?_Extract@?$_Tree_val@U?$_Tree_simple_types@_K@std@@@std@@QEAAPEAU?$_Tree_node@_KPEAX@2@V?$_Tree_const_iterator@V?$_Tree_val@U?$_Tree_simple_types@_K@std@@@std@@@2@@Z 00000001800067d0 f i leveldb:db_impl.obj
 0001:000057d0       ?_Extract@?$_Tree_val@U?$_Tree_simple_types@U?$pair@$$CBIPEAVIterator@leveldown@@@std@@@std@@@std@@QEAAPEAU?$_Tree_node@U?$pair@$$CBIPEAVIterator@leveldown@@@std@@PEAX@2@V?$_Tree_const_iterator@V?$_Tree_val@U?$_Tree_simple_types@U?$pair@$$CBIPEAVIterator@leveldown@@@std@@@std@@@std@@@2@@Z 00000001800067d0 f i database.obj
 0001:00005c70       ?_Erase@?$_Tree@V?$_Tset_traits@U?$pair@H_K@std@@U?$less@U?$pair@H_K@std@@@2@V?$allocator@U?$pair@H_K@std@@@2@$0A@@std@@@std@@IEAAXPEAU?$_Tree_node@U?$pair@H_K@std@@PEAX@2@@Z 0000000180006c70 f i leveldb:db_impl.obj
 0001:00005c70       ?_Erase@?$_Tree@V?$_Tmap_traits@IPEAVIterator@leveldown@@U?$less@I@std@@V?$allocator@U?$pair@$$CBIPEAVIterator@leveldown@@@std@@@4@$0A@@std@@@std@@IEAAXPEAU?$_Tree_node@U?$pair@$$CBIPEAVIterator@leveldown@@@std@@PEAX@2@@Z 0000000180006c70 f i database.obj
 0001:00005cd0       ?_Xlen@?$basic_string@DU?$char_traits@D@std@@V?$allocator@D@2@@std@@SAXXZ 0000000180006cd0 f i database.obj
 0001:00005cf0       ??$_Insert_hint@AEAU?$pair@$$CBIPEAVIterator@leveldown@@@std@@PEAU?$_Tree_node@U?$pair@$$CBIPEAVIterator@leveldown@@@std@@PEAX@2@@?$_Tree@V?$_Tmap_traits@IPEAVIterator@leveldown@@U?$less@I@std@@V?$allocator@U?$pair@$$CBIPEAVIterator@leveldown@@@std@@@4@$0A@@std@@@std@@IEAA?AV?$_Tree_iterator@V?$_Tree_val@U?$_Tree_simple_types@U?$pair@$$CBIPEAVIterator@leveldown@@@std@@@std@@@std@@@1@V?$_Tree_const_iterator@V?$_Tree_val@U?$_Tree_simple_types@U?$pair@$$CBIPEAVIterator@leveldown@@@std@@@std@@@std@@@1@AEAU?$pair@$$CBIPEAVIterator@leveldown@@@1@PEAU?$_Tree_node@U?$pair@$$CBIPEAVIterator@leveldown@@@std@@PEAX@1@@Z 0000000180006cf0 f i database.obj
 0001:00006010       ?_Destroy_if_node@?$_Tree@V?$_Tmap_traits@IPEAVIterator@leveldown@@U?$less@I@std@@V?$allocator@U?$pair@$$CBIPEAVIterator@leveldown@@@std@@@4@$0A@@std@@@std@@IEAAXPEAU?$_Tree_node@U?$pair@$$CBIPEAVIterator@leveldown@@@std@@PEAX@2@@Z 0000000180007010 f i database.obj
 0001:00006020       ??$_Insert_at@AEAU?$pair@$$CBIPEAVIterator@leveldown@@@std@@PEAU?$_Tree_node@U?$pair@$$CBIPEAVIterator@leveldown@@@std@@PEAX@2@@?$_Tree@V?$_Tmap_traits@IPEAVIterator@leveldown@@U?$less@I@std@@V?$allocator@U?$pair@$$CBIPEAVIterator@leveldown@@@std@@@4@$0A@@std@@@std@@IEAA?AV?$_Tree_iterator@V?$_Tree_val@U?$_Tree_simple_types@U?$pair@$$CBIPEAVIterator@leveldown@@@std@@@std@@@std@@@1@_NPEAU?$_Tree_node@U?$pair@$$CBIPEAVIterator@leveldown@@@std@@PEAX@1@AEAU?$pair@$$CBIPEAVIterator@leveldown@@@1@1@Z 0000000180007020 f i database.obj
 0001:000062d0       ?GetFromPersistent@AsyncWorker@Nan@@QEBA?AV?$Local@VValue@v8@@@v8@@PEBD@Z 00000001800072d0 f i database_async.obj
 0001:000063b0       ??_GOpenWorker@leveldown@@UEAAPEAXI@Z 00000001800073b0 f i database_async.obj
 0001:000063b0       ??_EOpenWorker@leveldown@@UEAAPEAXI@Z 00000001800073b0 f i * CIL library *:* CIL module *
 0001:00006420       ?Execute@OpenWorker@leveldown@@UEAAXXZ 0000000180007420 f   database_async.obj
 0001:00006470       ??_GCloseWorker@leveldown@@UEAAPEAXI@Z 0000000180007470 f i database_async.obj
 0001:00006470       ??_ECloseWorker@leveldown@@UEAAPEAXI@Z 0000000180007470 f i * CIL library *:* CIL module *
 0001:000064d0       ?Execute@CloseWorker@leveldown@@UEAAXXZ 00000001800074d0 f   database_async.obj
 0001:00006540       ?WorkComplete@CloseWorker@leveldown@@UEAAXXZ 0000000180007540 f   database_async.obj
 0001:000065d0       ??0IOWorker@leveldown@@QEAA@PEAVDatabase@1@PEAVCallback@Nan@@VSlice@leveldb@@AEAV?$Local@VObject@v8@@@v8@@@Z 00000001800075d0 f   database_async.obj
 0001:000066f0       ??_GIOWorker@leveldown@@UEAAPEAXI@Z 00000001800076f0 f i database_async.obj
 0001:000066f0       ??_EIOWorker@leveldown@@UEAAPEAXI@Z 00000001800076f0 f i * CIL library *:* CIL module *
 0001:00006750       ??1IOWorker@leveldown@@UEAA@XZ 0000000180007750 f   database_async.obj
 0001:00006790       ?WorkComplete@IOWorker@leveldown@@UEAAXXZ 0000000180007790 f   database_async.obj
 0001:00006830       ??_EReadWorker@leveldown@@UEAAPEAXI@Z 0000000180007830 f i * CIL library *:* CIL module *
 0001:00006830       ??_GReadWorker@leveldown@@UEAAPEAXI@Z 0000000180007830 f i database_async.obj
 0001:00006910       ?Execute@ReadWorker@leveldown@@UEAAXXZ 0000000180007910 f   database_async.obj
 0001:00006980       ?HandleOKCallback@ReadWorker@leveldown@@UEAAXXZ 0000000180007980 f   database_async.obj
 0001:00006ab0       ??0DeleteWorker@leveldown@@QEAA@PEAVDatabase@1@PEAVCallback@Nan@@VSlice@leveldb@@_NAEAV?$Local@VObject@v8@@@v8@@@Z 0000000180007ab0 f   database_async.obj
 0001:00006c00       ??_EDeleteWorker@leveldown@@UEAAPEAXI@Z 0000000180007c00 f i * CIL library *:* CIL module *
 0001:00006c00       ??_GDeleteWorker@leveldown@@UEAAPEAXI@Z 0000000180007c00 f i database_async.obj
 0001:00006c80       ??1DeleteWorker@leveldown@@UEAA@XZ 0000000180007c80 f   database_async.obj
 0001:00006ce0       ?Execute@DeleteWorker@leveldown@@UEAAXXZ 0000000180007ce0 f   database_async.obj
 0001:00006d40       ??_EWriteWorker@leveldown@@UEAAPEAXI@Z 0000000180007d40 f i * CIL library *:* CIL module *
 0001:00006d40       ??_GWriteWorker@leveldown@@UEAAPEAXI@Z 0000000180007d40 f i database_async.obj
 0001:00006dd0       ?Execute@WriteWorker@leveldown@@UEAAXXZ 0000000180007dd0 f   database_async.obj
 0001:00006e40       ?WorkComplete@WriteWorker@leveldown@@UEAAXXZ 0000000180007e40 f   database_async.obj
 0001:00006f50       ??_GBatchWorker@leveldown@@UEAAPEAXI@Z 0000000180007f50 f i database_async.obj
 0001:00006f50       ??_EBatchWorker@leveldown@@UEAAPEAXI@Z 0000000180007f50 f i * CIL library *:* CIL module *
 0001:00006fe0       ?Execute@BatchWorker@leveldown@@UEAAXXZ 0000000180007fe0 f   database_async.obj
 0001:00007030       ??0ApproximateSizeWorker@leveldown@@QEAA@PEAVDatabase@1@PEAVCallback@Nan@@VSlice@leveldb@@2AEAV?$Local@VObject@v8@@@v8@@3@Z 0000000180008030 f   database_async.obj
 0001:00007210       ??_GApproximateSizeWorker@leveldown@@UEAAPEAXI@Z 0000000180008210 f i database_async.obj
 0001:00007210       ??_EApproximateSizeWorker@leveldown@@UEAAPEAXI@Z 0000000180008210 f i * CIL library *:* CIL module *
 0001:00007270       ?Execute@ApproximateSizeWorker@leveldown@@UEAAXXZ 0000000180008270 f   database_async.obj
 0001:000072b0       ?WorkComplete@ApproximateSizeWorker@leveldown@@UEAAXXZ 00000001800082b0 f   database_async.obj
 0001:000073a0       ?HandleOKCallback@ApproximateSizeWorker@leveldown@@UEAAXXZ 00000001800083a0 f   database_async.obj
 0001:00007450       ??0CompactRangeWorker@leveldown@@QEAA@PEAVDatabase@1@PEAVCallback@Nan@@VSlice@leveldb@@2AEAV?$Local@VObject@v8@@@v8@@3@Z 0000000180008450 f   database_async.obj
 0001:00007650       ??_ECompactRangeWorker@leveldown@@UEAAPEAXI@Z 0000000180008650 f i * CIL library *:* CIL module *
 0001:00007650       ??_GCompactRangeWorker@leveldown@@UEAAPEAXI@Z 0000000180008650 f i database_async.obj
 0001:000076b0       ?Execute@CompactRangeWorker@leveldown@@UEAAXXZ 00000001800086b0 f   database_async.obj
 0001:000076e0       ?WorkComplete@CompactRangeWorker@leveldown@@UEAAXXZ 00000001800086e0 f   database_async.obj
 0001:000077d0       ?HandleOKCallback@CompactRangeWorker@leveldown@@UEAAXXZ 00000001800087d0 f   database_async.obj
 0001:00007840       ?ToString@Slice@leveldb@@QEBA?AV?$basic_string@DU?$char_traits@D@std@@V?$allocator@D@2@@std@@XZ 0000000180008840 f i iterator.obj
 0001:00007890       ?compare@Slice@leveldb@@QEBAHAEBV12@@Z 0000000180008890 f i iterator.obj
 0001:00007990       ??_GIterator@leveldown@@UEAAPEAXI@Z 0000000180008990 f i iterator.obj
 0001:00007990       ??_EIterator@leveldown@@UEAAPEAXI@Z 0000000180008990 f i * CIL library *:* CIL module *
 0001:000079d0       ??1Iterator@leveldown@@UEAA@XZ 00000001800089d0 f   iterator.obj
 0001:00007cb0       ?GetIterator@Iterator@leveldown@@AEAA_NXZ 0000000180008cb0 f   iterator.obj
 0001:000080a0       ?Read@Iterator@leveldown@@AEAA_NAEAV?$basic_string@DU?$char_traits@D@std@@V?$allocator@D@2@@std@@0@Z 00000001800090a0 f   iterator.obj
 0001:00008480       ?OutOfRange@Iterator@leveldown@@AEAA_NPEAVSlice@leveldb@@@Z 0000000180009480 f   iterator.obj
 0001:00008660       ?IteratorNext@Iterator@leveldown@@QEAA_NAEAV?$vector@U?$pair@V?$basic_string@DU?$char_traits@D@std@@V?$allocator@D@2@@std@@V12@@std@@V?$allocator@U?$pair@V?$basic_string@DU?$char_traits@D@std@@V?$allocator@D@2@@std@@V12@@std@@@2@@std@@@Z 0000000180009660 f   iterator.obj
 0001:000089f0       ??1?$pair@V?$basic_string@DU?$char_traits@D@std@@V?$allocator@D@2@@std@@V12@@std@@QEAA@XZ 00000001800099f0 f i iterator.obj
 0001:00008ab0       ?IteratorStatus@Iterator@leveldown@@QEAA?AVStatus@leveldb@@XZ 0000000180009ab0 f   iterator.obj
 0001:00008af0       ?checkEndCallback@leveldown@@YAXPEAVIterator@1@@Z 0000000180009af0 f   iterator.obj
 0001:00008b80       ?Seek@Iterator@leveldown@@CAXAEBV?$FunctionCallbackInfo@VValue@v8@@@Nan@@@Z 0000000180009b80 f   iterator.obj
 0001:00008e40       ?Next@Iterator@leveldown@@CAXAEBV?$FunctionCallbackInfo@VValue@v8@@@Nan@@@Z 0000000180009e40 f   iterator.obj
 0001:00009130       ?End@Iterator@leveldown@@CAXAEBV?$FunctionCallbackInfo@VValue@v8@@@Nan@@@Z 000000018000a130 f   iterator.obj
 0001:000092b0       ?NewInstance@Iterator@leveldown@@SA?AV?$Local@VObject@v8@@@v8@@V34@V?$Local@VNumber@v8@@@4@0@Z 000000018000a2b0 f   iterator.obj
 0001:00009470       ?New@Iterator@leveldown@@CAXAEBV?$FunctionCallbackInfo@VValue@v8@@@Nan@@@Z 000000018000a470 f   iterator.obj
 0001:0000a850       ?compare@?$basic_string@DU?$char_traits@D@std@@V?$allocator@D@2@@std@@QEBAHAEBV12@@Z 000000018000b850 f i iterator.obj
 0001:0000a8c0       ??0?$basic_string@DU?$char_traits@D@std@@V?$allocator@D@2@@std@@QEAA@AEBV01@@Z 000000018000b8c0 f i iterator.obj
 0001:0000a9a0       ??$_Emplace_reallocate@U?$pair@V?$basic_string@DU?$char_traits@D@std@@V?$allocator@D@2@@std@@V12@@std@@@?$vector@U?$pair@V?$basic_string@DU?$char_traits@D@std@@V?$allocator@D@2@@std@@V12@@std@@V?$allocator@U?$pair@V?$basic_string@DU?$char_traits@D@std@@V?$allocator@D@2@@std@@V12@@std@@@2@@std@@QEAAPEAU?$pair@V?$basic_string@DU?$char_traits@D@std@@V?$allocator@D@2@@std@@V12@@1@QEAU21@$$QEAU21@@Z 000000018000b9a0 f i iterator.obj
 0001:0000abc0       ?_Xlength@?$vector@V?$basic_string@DU?$char_traits@D@std@@V?$allocator@D@2@@std@@V?$allocator@V?$basic_string@DU?$char_traits@D@std@@V?$allocator@D@2@@std@@@2@@std@@CAXXZ 000000018000bbc0 f i leveldb:repair.obj
 0001:0000abc0       ?_Xlength@?$vector@U?$pair@HUFileMetaData@leveldb@@@std@@V?$allocator@U?$pair@HUFileMetaData@leveldb@@@std@@@2@@std@@CAXXZ 000000018000bbc0 f i leveldb:db_impl.obj
 0001:0000abc0       ?_Xlength@?$vector@U?$pair@V?$basic_string@DU?$char_traits@D@std@@V?$allocator@D@2@@std@@V12@@std@@V?$allocator@U?$pair@V?$basic_string@DU?$char_traits@D@std@@V?$allocator@D@2@@std@@V12@@std@@@2@@std@@CAXXZ 000000018000bbc0 f i iterator.obj
 0001:0000abc0       ?_Xlength@?$vector@U?$pair@HVInternalKey@leveldb@@@std@@V?$allocator@U?$pair@HVInternalKey@leveldb@@@std@@@2@@std@@CAXXZ 000000018000bbc0 f i leveldb:version_set.obj
 0001:0000abc0       ?_Xlength@?$vector@PEAVIterator@leveldb@@V?$allocator@PEAVIterator@leveldb@@@std@@@std@@CAXXZ 000000018000bbc0 f i leveldb:db_impl.obj
 0001:0000abc0       ?_Xlength@?$vector@PEADV?$allocator@PEAD@std@@@std@@CAXXZ 000000018000bbc0 f i leveldb:arena.obj
 0001:0000abc0       ?_Xlength@?$vector@VSlice@leveldb@@V?$allocator@VSlice@leveldb@@@std@@@std@@CAXXZ 000000018000bbc0 f i leveldb:filter_block.obj
 0001:0000abc0       ?_Xlength@?$vector@UOutput@CompactionState@DBImpl@leveldb@@V?$allocator@UOutput@CompactionState@DBImpl@leveldb@@@std@@@std@@CAXXZ 000000018000bbc0 f i leveldb:db_impl.obj
 0001:0000abc0       ?_Xlength@?$vector@IV?$allocator@I@std@@@std@@CAXXZ 000000018000bbc0 f i leveldb:block_builder.obj
 0001:0000abc0       ?_Xlength@?$vector@PEAUFileMetaData@leveldb@@V?$allocator@PEAUFileMetaData@leveldb@@@std@@@std@@CAXXZ 000000018000bbc0 f i leveldb:version_set.obj
 0001:0000abc0       ?_Xlength@?$vector@_KV?$allocator@_K@std@@@std@@CAXXZ 000000018000bbc0 f i leveldb:db_impl.obj
 0001:0000abe0       ??$_Uninitialized_move@PEAU?$pair@V?$basic_string@DU?$char_traits@D@std@@V?$allocator@D@2@@std@@V12@@std@@PEAU12@V?$allocator@U?$pair@V?$basic_string@DU?$char_traits@D@std@@V?$allocator@D@2@@std@@V12@@std@@@2@@std@@YAPEAU?$pair@V?$basic_string@DU?$char_traits@D@std@@V?$allocator@D@2@@std@@V12@@0@QEAU10@0PEAU10@AEAV?$allocator@U?$pair@V?$basic_string@DU?$char_traits@D@std@@V?$allocator@D@2@@std@@V12@@std@@@0@@Z 000000018000bbe0 f i iterator.obj
 0001:0000ac90       ??1?$_Uninitialized_backout_al@PEAU?$pair@V?$basic_string@DU?$char_traits@D@std@@V?$allocator@D@2@@std@@V12@@std@@V?$allocator@U?$pair@V?$basic_string@DU?$char_traits@D@std@@V?$allocator@D@2@@std@@V12@@std@@@2@@std@@QEAA@XZ 000000018000bc90 f i iterator.obj
 0001:0000acd0       ??_ENextWorker@leveldown@@UEAAPEAXI@Z 000000018000bcd0 f i * CIL library *:* CIL module *
 0001:0000acd0       ??_GNextWorker@leveldown@@UEAAPEAXI@Z 000000018000bcd0 f i iterator_async.obj
 0001:0000add0       ?Execute@NextWorker@leveldown@@UEAAXXZ 000000018000bdd0 f   iterator_async.obj
 0001:0000ae30       ?HandleOKCallback@NextWorker@leveldown@@UEAAXXZ 000000018000be30 f   iterator_async.obj
 0001:0000b610       ??_EEndWorker@leveldown@@UEAAPEAXI@Z 000000018000c610 f i * CIL library *:* CIL module *
 0001:0000b610       ??_GEndWorker@leveldown@@UEAAPEAXI@Z 000000018000c610 f i iterator_async.obj
 0001:0000b670       ?Execute@EndWorker@leveldown@@UEAAXXZ 000000018000c670 f   iterator_async.obj
 0001:0000b6c0       ?HandleOKCallback@EndWorker@leveldown@@UEAAXXZ 000000018000c6c0 f   iterator_async.obj
 0001:0000b820       ??1?$vector@U?$pair@V?$basic_string@DU?$char_traits@D@std@@V?$allocator@D@2@@std@@V12@@std@@V?$allocator@U?$pair@V?$basic_string@DU?$char_traits@D@std@@V?$allocator@D@2@@std@@V12@@std@@@2@@std@@QEAA@XZ 000000018000c820 f i iterator_async.obj
 0001:0000b8c0       ?DestroyDB@leveldown@@YAXAEBV?$FunctionCallbackInfo@VValue@v8@@@Nan@@@Z 000000018000c8c0 f   leveldown.obj
 0001:0000ba00       ?RepairDB@leveldown@@YAXAEBV?$FunctionCallbackInfo@VValue@v8@@@Nan@@@Z 000000018000ca00 f   leveldown.obj
 0001:0000bb40       ?Init@leveldown@@YAXV?$Local@VObject@v8@@@v8@@@Z 000000018000cb40 f   leveldown.obj
 0001:0000c050       ??_GDestroyWorker@leveldown@@UEAAPEAXI@Z 000000018000d050 f i leveldown_async.obj
 0001:0000c050       ??_EDestroyWorker@leveldown@@UEAAPEAXI@Z 000000018000d050 f i * CIL library *:* CIL module *
 0001:0000c0f0       ?Execute@DestroyWorker@leveldown@@UEAAXXZ 000000018000d0f0 f   leveldown_async.obj
 0001:0000c220       ??_GRepairWorker@leveldown@@UEAAPEAXI@Z 000000018000d220 f i leveldown_async.obj
 0001:0000c220       ??_ERepairWorker@leveldown@@UEAAPEAXI@Z 000000018000d220 f i * CIL library *:* CIL module *
 0001:0000c2c0       ?Execute@RepairWorker@leveldown@@UEAAXXZ 000000018000d2c0 f   leveldown_async.obj
 0001:0000c440       ?remove_prefix@Slice@leveldb@@QEAAX_K@Z 000000018000d440 f i leveldb:write_batch.obj
 0001:0000c490       ?OK@Status@leveldb@@SA?AV12@XZ 000000018000d490 f i leveldb:write_batch.obj
 0001:0000c4c0       ??0WriteBatch@leveldb@@QEAA@XZ 000000018000d4c0 f   leveldb:write_batch.obj
 0001:0000c510       ??1WriteBatch@leveldb@@QEAA@XZ 000000018000d510 f   leveldb:write_batch.obj
 0001:0000c510       ??1InternalKey@leveldb@@QEAA@XZ 000000018000d510 f   leveldb:db_impl.obj
 0001:0000c580       ??1SequentialFile@leveldb@@UEAA@XZ 000000018000d580 f   leveldb:env.obj
 0001:0000c580       ??1Handler@WriteBatch@leveldb@@UEAA@XZ 000000018000d580 f   leveldb:write_batch.obj
 0001:0000c590       ??_ESequentialFile@leveldb@@UEAAPEAXI@Z 000000018000d590 f i * CIL library *:* CIL module *
 0001:0000c590       ??_GHandler@WriteBatch@leveldb@@UEAAPEAXI@Z 000000018000d590 f i leveldb:write_batch.obj
 0001:0000c590       ??_GSequentialFile@leveldb@@UEAAPEAXI@Z 000000018000d590 f i leveldb:env.obj
 0001:0000c590       ??_EHandler@WriteBatch@leveldb@@UEAAPEAXI@Z 000000018000d590 f i * CIL library *:* CIL module *
 0001:0000c5c0       ?Iterate@WriteBatch@leveldb@@QEBA?AVStatus@2@PEAVHandler@12@@Z 000000018000d5c0 f   leveldb:write_batch.obj
 0001:0000cb40       ?InsertInto@WriteBatchInternal@leveldb@@SA?AVStatus@2@PEBVWriteBatch@2@PEAVMemTable@2@@Z 000000018000db40 f   leveldb:write_batch.obj
 0001:0000cc30       ?resize@?$basic_string@DU?$char_traits@D@std@@V?$allocator@D@2@@std@@QEAAX_KD@Z 000000018000dc30 f i leveldb:write_batch.obj
 0001:0000ccc0       ?push_back@?$basic_string@DU?$char_traits@D@std@@V?$allocator@D@2@@std@@QEAAXD@Z 000000018000dcc0 f i leveldb:write_batch.obj
 0001:0000ce50       ?append@?$basic_string@DU?$char_traits@D@std@@V?$allocator@D@2@@std@@QEAAAEAV12@QEBD_K@Z 000000018000de50 f i leveldb:write_batch.obj
 0001:0000ced0       ??$_Reallocate_grow_by@V<lambda_65e615be2a453ca0576c979606f46740>@@PEBD_K@?$basic_string@DU?$char_traits@D@std@@V?$allocator@D@2@@std@@QEAAAEAV01@_KV<lambda_65e615be2a453ca0576c979606f46740>@@PEBD_K@Z 000000018000ded0 f i leveldb:write_batch.obj
 0001:0000d050       ??$_Reallocate_grow_by@V<lambda_e1befb086ad3257e3f042a63030725f7>@@_KD@?$basic_string@DU?$char_traits@D@std@@V?$allocator@D@2@@std@@QEAAAEAV01@_KV<lambda_e1befb086ad3257e3f042a63030725f7>@@_KD@Z 000000018000e050 f i leveldb:write_batch.obj
 0001:0000d1c0       __local_stdio_printf_options 000000018000e1c0 f i leveldb:status.obj
 0001:0000d1d0       snprintf                   000000018000e1d0 f i leveldb:status.obj
 0001:0000d230       ??0Status@leveldb@@AEAA@W4Code@01@AEBVSlice@1@1@Z 000000018000e230 f   leveldb:status.obj
 0001:0000d300       ?ToString@Status@leveldb@@QEBA?AV?$basic_string@DU?$char_traits@D@std@@V?$allocator@D@2@@std@@XZ 000000018000e300 f   leveldb:status.obj
 0001:0000d760       ??_EFilterPolicy@leveldb@@UEAAPEAXI@Z 000000018000e760 f i * CIL library *:* CIL module *
 0001:0000d760       ??_ESource@snappy@@UEAAPEAXI@Z 000000018000e760 f i * CIL library *:* CIL module *
 0001:0000d760       ??_GFilterPolicy@leveldb@@UEAAPEAXI@Z 000000018000e760 f i leveldb:bloom.obj
 0001:0000d760       ??_GSource@snappy@@UEAAPEAXI@Z 000000018000e760 f i snappy:snappy.obj
 0001:0000d790       ?IOError@Status@leveldb@@SA?AV12@AEBVSlice@2@0@Z 000000018000e790 f i leveldb:db_impl.obj
 0001:0000d7e0       ??0Status@leveldb@@QEAA@AEBV01@@Z 000000018000e7e0 f i leveldb:db_impl.obj
 0001:0000d850       ??_EDB@leveldb@@UEAAPEAXI@Z 000000018000e850 f i * CIL library *:* CIL module *
 0001:0000d850       ??_GDB@leveldb@@UEAAPEAXI@Z 000000018000e850 f i leveldb:db_impl.obj
 0001:0000d880       ??_EInternalKeyComparator@leveldb@@UEAAPEAXI@Z 000000018000e880 f i * CIL library *:* CIL module *
 0001:0000d880       ??_GInternalKeyComparator@leveldb@@UEAAPEAXI@Z 000000018000e880 f i leveldb:db_impl.obj
 0001:0000d8c0       ??1InternalKeyComparator@leveldb@@UEAA@XZ 000000018000e8c0 f i leveldb:db_impl.obj
 0001:0000d8e0       ??_GWritableFile@leveldb@@UEAAPEAXI@Z 000000018000e8e0 f i leveldb:env.obj
 0001:0000d8e0       ??_EWritableFile@leveldb@@UEAAPEAXI@Z 000000018000e8e0 f i * CIL library *:* CIL module *
 0001:0000d8e0       ??_GComparator@leveldb@@UEAAPEAXI@Z 000000018000e8e0 f i leveldb:db_impl.obj
 0001:0000d8e0       ??_EComparator@leveldb@@UEAAPEAXI@Z 000000018000e8e0 f i * CIL library *:* CIL module *
 0001:0000d910       ??_EInternalFilterPolicy@leveldb@@UEAAPEAXI@Z 000000018000e910 f i * CIL library *:* CIL module *
 0001:0000d910       ??_GInternalFilterPolicy@leveldb@@UEAAPEAXI@Z 000000018000e910 f i leveldb:db_impl.obj
 0001:0000d950       ??1InternalFilterPolicy@leveldb@@UEAA@XZ 000000018000e950 f i leveldb:db_impl.obj
 0001:0000d970       ??1LookupKey@leveldb@@QEAA@XZ 000000018000e970 f i leveldb:db_impl.obj
 0001:0000d990       ??1SnapshotImpl@leveldb@@UEAA@XZ 000000018000e990 f i leveldb:db_impl.obj
 0001:0000d9b0       ??_ESnapshotImpl@leveldb@@UEAAPEAXI@Z 000000018000e9b0 f i * CIL library *:* CIL module *
 0001:0000d9b0       ??_GSnapshotImpl@leveldb@@UEAAPEAXI@Z 000000018000e9b0 f i leveldb:db_impl.obj
 0001:0000d9f0       ??_GFileLock@leveldb@@UEAAPEAXI@Z 000000018000e9f0 f i leveldb:env.obj
 0001:0000d9f0       ??_ESnapshot@leveldb@@MEAAPEAXI@Z 000000018000e9f0 f i * CIL library *:* CIL module *
 0001:0000d9f0       ??_GSnapshot@leveldb@@MEAAPEAXI@Z 000000018000e9f0 f i leveldb:db_impl.obj
 0001:0000d9f0       ??_EFileLock@leveldb@@UEAAPEAXI@Z 000000018000e9f0 f i * CIL library *:* CIL module *
 0001:0000da20       ?Unref@MemTable@leveldb@@QEAAXXZ 000000018000ea20 f i leveldb:db_impl.obj
 0001:0000dae0       ??0VersionEdit@leveldb@@QEAA@XZ 000000018000eae0 f i leveldb:db_impl.obj
 0001:0000db80       ??1VersionEdit@leveldb@@QEAA@XZ 000000018000eb80 f i leveldb:db_impl.obj
 0001:0000dd50       ?SetComparatorName@VersionEdit@leveldb@@QEAAXAEBVSlice@2@@Z 000000018000ed50 f i leveldb:db_impl.obj
 0001:0000de70       ?AddFile@VersionEdit@leveldb@@QEAAXH_K0AEBVInternalKey@2@1@Z 000000018000ee70 f i leveldb:db_impl.obj
 0001:0000e010       ??1?$set@U?$pair@H_K@std@@U?$less@U?$pair@H_K@std@@@2@V?$allocator@U?$pair@H_K@std@@@2@@std@@QEAA@XZ 000000018000f010 f i leveldb:db_impl.obj
 0001:0000e040       ??1?$pair@HVInternalKey@leveldb@@@std@@QEAA@XZ 000000018000f040 f i leveldb:db_impl.obj
 0001:0000e0c0       ??1FileMetaData@leveldb@@QEAA@XZ 000000018000f0c0 f i leveldb:db_impl.obj
 0001:0000e1a0       ??1?$pair@HUFileMetaData@leveldb@@@std@@QEAA@XZ 000000018000f1a0 f i leveldb:db_impl.obj
 0001:0000e1c0       ?SetLastSequence@VersionSet@leveldb@@QEAAX_K@Z 000000018000f1c0 f i leveldb:db_impl.obj
 0001:0000e210       ??1MutexLock@leveldb@@QEAA@XZ 000000018000f210 f i leveldb:db_impl.obj
 0001:0000e230       ?SanitizeOptions@leveldb@@YA?AUOptions@1@AEBV?$basic_string@DU?$char_traits@D@std@@V?$allocator@D@2@@std@@PEBVInternalKeyComparator@1@PEBVInternalFilterPolicy@1@AEBU21@@Z 000000018000f230 f   leveldb:db_impl.obj
 0001:0000e650       ??0DBImpl@leveldb@@QEAA@AEBUOptions@1@AEBV?$basic_string@DU?$char_traits@D@std@@V?$allocator@D@2@@std@@@Z 000000018000f650 f   leveldb:db_impl.obj
 0001:0000ea70       ??1DBImpl@leveldb@@UEAA@XZ 000000018000fa70 f   leveldb:db_impl.obj
 0001:0000eea0       ?NewDB@DBImpl@leveldb@@AEAA?AVStatus@2@XZ 000000018000fea0 f   leveldb:db_impl.obj
 0001:0000f350       ?MaybeIgnoreError@DBImpl@leveldb@@AEBAXPEAVStatus@2@@Z 0000000180010350 f   leveldb:db_impl.obj
 0001:0000f460       ?DeleteObsoleteFiles@DBImpl@leveldb@@AEAAXXZ 0000000180010460 f   leveldb:db_impl.obj
 0001:0000f9a0       ?Recover@DBImpl@leveldb@@AEAA?AVStatus@2@PEAVVersionEdit@2@PEA_N@Z 00000001800109a0 f   leveldb:db_impl.obj
 0001:000105d0       ?RecoverLogFile@DBImpl@leveldb@@AEAA?AVStatus@2@_K_NPEA_NPEAVVersionEdit@2@PEA_K@Z 00000001800115d0 f   leveldb:db_impl.obj
 0001:000110b0       ?WriteLevel0Table@DBImpl@leveldb@@AEAA?AVStatus@2@PEAVMemTable@2@PEAVVersionEdit@2@PEAVVersion@2@@Z 00000001800120b0 f   leveldb:db_impl.obj
 0001:00011480       ?CompactMemTable@DBImpl@leveldb@@AEAAXXZ 0000000180012480 f   leveldb:db_impl.obj
 0001:00011760       ?CompactRange@DBImpl@leveldb@@UEAAXPEBVSlice@2@0@Z 0000000180012760 f   leveldb:db_impl.obj
 0001:000118f0       ?TEST_CompactRange@DBImpl@leveldb@@QEAAXHPEBVSlice@2@0@Z 00000001800128f0 f   leveldb:db_impl.obj
 0001:00011d40       ?MaybeScheduleCompaction@DBImpl@leveldb@@AEAAXXZ 0000000180012d40 f   leveldb:db_impl.obj
 0001:00011dd0       ?BGWork@DBImpl@leveldb@@CAXPEAX@Z 0000000180012dd0 f   leveldb:db_impl.obj
 0001:00011e70       ?BackgroundCompaction@DBImpl@leveldb@@AEAAXXZ 0000000180012e70 f   leveldb:db_impl.obj
 0001:00012710       ?CleanupCompaction@DBImpl@leveldb@@AEAAXPEAUCompactionState@12@@Z 0000000180013710 f   leveldb:db_impl.obj
 0001:000128f0       ?OpenCompactionOutputFile@DBImpl@leveldb@@AEAA?AVStatus@2@PEAUCompactionState@12@@Z 00000001800138f0 f   leveldb:db_impl.obj
 0001:00012b60       ?FinishCompactionOutputFile@DBImpl@leveldb@@AEAA?AVStatus@2@PEAUCompactionState@12@PEAVIterator@2@@Z 0000000180013b60 f   leveldb:db_impl.obj
 0001:00012e60       ?InstallCompactionResults@DBImpl@leveldb@@AEAA?AVStatus@2@PEAUCompactionState@12@@Z 0000000180013e60 f   leveldb:db_impl.obj
 0001:00013080       ?DoCompactionWork@DBImpl@leveldb@@AEAA?AVStatus@2@PEAUCompactionState@12@@Z 0000000180014080 f   leveldb:db_impl.obj
 0001:00013d60       ?NewInternalIterator@DBImpl@leveldb@@AEAAPEAVIterator@2@AEBUReadOptions@2@PEA_KPEAI@Z 0000000180014d60 f   leveldb:db_impl.obj
 0001:00014120       ?Get@DBImpl@leveldb@@UEAA?AVStatus@2@AEBUReadOptions@2@AEBVSlice@2@PEAV?$basic_string@DU?$char_traits@D@std@@V?$allocator@D@2@@std@@@Z 0000000180015120 f   leveldb:db_impl.obj
 0001:000143c0       ?NewIterator@DBImpl@leveldb@@UEAAPEAVIterator@2@AEBUReadOptions@2@@Z 00000001800153c0 f   leveldb:db_impl.obj
 0001:000144f0       ?GetSnapshot@DBImpl@leveldb@@UEAAPEBVSnapshot@2@XZ 00000001800154f0 f   leveldb:db_impl.obj
 0001:000145a0       ?ReleaseSnapshot@DBImpl@leveldb@@UEAAXPEBVSnapshot@2@@Z 00000001800155a0 f   leveldb:db_impl.obj
 0001:00014640       ?Put@DBImpl@leveldb@@UEAA?AVStatus@2@AEBUWriteOptions@2@AEBVSlice@2@1@Z 0000000180015640 f   leveldb:db_impl.obj
 0001:00014680       ?Delete@DBImpl@leveldb@@UEAA?AVStatus@2@AEBUWriteOptions@2@AEBVSlice@2@@Z 0000000180015680 f   leveldb:db_impl.obj
 0001:000147e0       ?Write@DBImpl@leveldb@@UEAA?AVStatus@2@AEBUWriteOptions@2@PEAVWriteBatch@2@@Z 00000001800157e0 f   leveldb:db_impl.obj
 0001:00014d90       ?BuildBatchGroup@DBImpl@leveldb@@AEAAPEAVWriteBatch@2@PEAPEAUWriter@12@@Z 0000000180015d90 f   leveldb:db_impl.obj
 0001:00015080       ?MakeRoomForWrite@DBImpl@leveldb@@AEAA?AVStatus@2@_N@Z 0000000180016080 f   leveldb:db_impl.obj
 0001:00015480       ?GetProperty@DBImpl@leveldb@@UEAA_NAEBVSlice@2@PEAV?$basic_string@DU?$char_traits@D@std@@V?$allocator@D@2@@std@@@Z 0000000180016480 f   leveldb:db_impl.obj
 0001:00015a10       ?GetApproximateSizes@DBImpl@leveldb@@UEAAXPEBURange@2@HPEA_K@Z 0000000180016a10 f   leveldb:db_impl.obj
 0001:00015ce0       ?Put@DB@leveldb@@UEAA?AVStatus@2@AEBUWriteOptions@2@AEBVSlice@2@1@Z 0000000180016ce0 f   leveldb:db_impl.obj
 0001:00015e40       ??1DB@leveldb@@UEAA@XZ     0000000180016e40 f   leveldb:db_impl.obj
 0001:00015e50       ?Open@DB@leveldb@@SA?AVStatus@2@AEBUOptions@2@AEBV?$basic_string@DU?$char_traits@D@std@@V?$allocator@D@2@@std@@PEAPEAV12@@Z 0000000180016e50 f   leveldb:db_impl.obj
 0001:00016230       ??1FileLock@leveldb@@UEAA@XZ 0000000180017230 f   leveldb:env.obj
 0001:00016230       ??1Snapshot@leveldb@@MEAA@XZ 0000000180017230 f   leveldb:db_impl.obj
 0001:00016240       ?DestroyDB@leveldb@@YA?AVStatus@1@AEBV?$basic_string@DU?$char_traits@D@std@@V?$allocator@D@2@@std@@AEBUOptions@1@@Z 0000000180017240 f   leveldb:db_impl.obj
 0001:00016730       ??_GDBImpl@leveldb@@UEAAPEAXI@Z 0000000180017730 f i leveldb:db_impl.obj
 0001:00016730       ??_EDBImpl@leveldb@@UEAAPEAXI@Z 0000000180017730 f i * CIL library *:* CIL module *
 0001:00016770       ??1SnapshotList@leveldb@@QEAA@XZ 0000000180017770 f i leveldb:db_impl.obj
 0001:000167a0       ??1?$set@_KU?$less@_K@std@@V?$allocator@_K@2@@std@@QEAA@XZ 00000001800177a0 f i leveldb:db_impl.obj
 0001:000167e0       ??_GTableCache@leveldb@@QEAAPEAXI@Z 00000001800177e0 f i leveldb:db_impl.obj
 0001:000168e0       ??1ManualCompaction@DBImpl@leveldb@@QEAA@XZ 00000001800178e0 f i leveldb:db_impl.obj
 0001:00016960       ??1Output@CompactionState@DBImpl@leveldb@@QEAA@XZ 0000000180017960 f i leveldb:db_impl.obj
 0001:00016a40       ??1Writer@DBImpl@leveldb@@QEAA@XZ 0000000180017a40 f i leveldb:db_impl.obj
 0001:00016a70       ??_GLogger@leveldb@@UEAAPEAXI@Z 0000000180017a70 f i leveldb:env.obj
 0001:00016a70       ??_GRandomAccessFile@leveldb@@UEAAPEAXI@Z 0000000180017a70 f i leveldb:env.obj
 0001:00016a70       ??_ELogger@leveldb@@UEAAPEAXI@Z 0000000180017a70 f i * CIL library *:* CIL module *
 0001:00016a70       ??_GReporter@Reader@log@leveldb@@UEAAPEAXI@Z 0000000180017a70 f i leveldb:db_impl.obj
 0001:00016a70       ??_ERandomAccessFile@leveldb@@UEAAPEAXI@Z 0000000180017a70 f i * CIL library *:* CIL module *
 0001:00016a70       ??_EReporter@Reader@log@leveldb@@UEAAPEAXI@Z 0000000180017a70 f i * CIL library *:* CIL module *
 0001:00016aa0       ??1?$vector@_KV?$allocator@_K@std@@@std@@QEAA@XZ 0000000180017aa0 f i leveldb:db_impl.obj
 0001:00016aa0       ??1?$vector@PEADV?$allocator@PEAD@std@@@std@@QEAA@XZ 0000000180017aa0 f i leveldb:arena.obj
 0001:00016aa0       ??1?$vector@PEAUFileMetaData@leveldb@@V?$allocator@PEAUFileMetaData@leveldb@@@std@@@std@@QEAA@XZ 0000000180017aa0 f i leveldb:version_set.obj
 0001:00016aa0       ??1?$vector@PEAVIterator@leveldb@@V?$allocator@PEAVIterator@leveldb@@@std@@@std@@QEAA@XZ 0000000180017aa0 f i leveldb:db_impl.obj
 0001:00016b10       ??1?$vector@UOutput@CompactionState@DBImpl@leveldb@@V?$allocator@UOutput@CompactionState@DBImpl@leveldb@@@std@@@std@@QEAA@XZ 0000000180017b10 f i leveldb:db_impl.obj
 0001:00016bd0       ?push_back@?$vector@U?$pair@HUFileMetaData@leveldb@@@std@@V?$allocator@U?$pair@HUFileMetaData@leveldb@@@std@@@2@@std@@QEAAX$$QEAU?$pair@HUFileMetaData@leveldb@@@2@@Z 0000000180017bd0 f i leveldb:db_impl.obj
 0001:00016ca0       ??1?$vector@U?$pair@HUFileMetaData@leveldb@@@std@@V?$allocator@U?$pair@HUFileMetaData@leveldb@@@std@@@2@@std@@QEAA@XZ 0000000180017ca0 f i leveldb:db_impl.obj
 0001:00016d70       ??1?$_Tree@V?$_Tset_traits@U?$pair@H_K@std@@U?$less@U?$pair@H_K@std@@@2@V?$allocator@U?$pair@H_K@std@@@2@$0A@@std@@@std@@QEAA@XZ 0000000180017d70 f i leveldb:db_impl.obj
 0001:00016da0       ??1?$vector@U?$pair@HVInternalKey@leveldb@@@std@@V?$allocator@U?$pair@HVInternalKey@leveldb@@@std@@@2@@std@@QEAA@XZ 0000000180017da0 f i leveldb:db_impl.obj
 0001:00016e40       ?erase@?$_Tree@V?$_Tset_traits@_KU?$less@_K@std@@V?$allocator@_K@2@$0A@@std@@@std@@QEAA_KAEB_K@Z 0000000180017e40 f i leveldb:db_impl.obj
 0001:00016f60       ??1?$_Tree@V?$_Tset_traits@_KU?$less@_K@std@@V?$allocator@_K@2@$0A@@std@@@std@@QEAA@XZ 0000000180017f60 f i leveldb:db_impl.obj
 0001:00016fa0       ??1?$deque@PEAUWriter@DBImpl@leveldb@@V?$allocator@PEAUWriter@DBImpl@leveldb@@@std@@@std@@QEAA@XZ 0000000180017fa0 f i leveldb:db_impl.obj
 0001:00017080       ??1?$vector@V?$basic_string@DU?$char_traits@D@std@@V?$allocator@D@2@@std@@V?$allocator@V?$basic_string@DU?$char_traits@D@std@@V?$allocator@D@2@@std@@@2@@std@@QEAA@XZ 0000000180018080 f i leveldb:db_impl.obj
 0001:00017100       ??4?$basic_string@DU?$char_traits@D@std@@V?$allocator@D@2@@std@@QEAAAEAV01@$$QEAV01@@Z 0000000180018100 f i leveldb:db_impl.obj
 0001:00017160       ??1?$_Tree_comp_alloc@V?$_Tset_traits@_KU?$less@_K@std@@V?$allocator@_K@2@$0A@@std@@@std@@QEAA@XZ 0000000180018160 f i leveldb:db_impl.obj
 0001:00017180       ?erase@?$_Tree@V?$_Tset_traits@_KU?$less@_K@std@@V?$allocator@_K@2@$0A@@std@@@std@@QEAA?AV?$_Tree_const_iterator@V?$_Tree_val@U?$_Tree_simple_types@_K@std@@@std@@@2@V32@0@Z 0000000180018180 f i leveldb:db_impl.obj
 0001:00017300       ??1?$_Deque_alloc@U?$_Deque_base_types@PEAUWriter@DBImpl@leveldb@@V?$allocator@PEAUWriter@DBImpl@leveldb@@@std@@@std@@@std@@QEAA@XZ 0000000180018300 f i leveldb:db_impl.obj
 0001:00017330       ?_Growmap@?$deque@PEAUWriter@DBImpl@leveldb@@V?$allocator@PEAUWriter@DBImpl@leveldb@@@std@@@std@@IEAAX_K@Z 0000000180018330 f i leveldb:db_impl.obj
 0001:00017510       ?_Xlen@?$deque@PEAUWriter@DBImpl@leveldb@@V?$allocator@PEAUWriter@DBImpl@leveldb@@@std@@@std@@IEBAXXZ 0000000180018510 f i leveldb:db_impl.obj
 0001:00017530       ?clear@?$_Tree@V?$_Tset_traits@U?$pair@H_K@std@@U?$less@U?$pair@H_K@std@@@2@V?$allocator@U?$pair@H_K@std@@@2@$0A@@std@@@std@@QEAAXXZ 0000000180018530 f i leveldb:db_impl.obj
 0001:000175c0       ?_Erase@?$_Tree@V?$_Tset_traits@_KU?$less@_K@std@@V?$allocator@_K@2@$0A@@std@@@std@@IEAAXPEAU?$_Tree_node@_KPEAX@2@@Z 00000001800185c0 f i leveldb:db_impl.obj
 0001:000175c0       ?_Erase@?$_Tree@V?$_Tset_traits@PEAUFileMetaData@leveldb@@UBySmallestKey@Builder@VersionSet@2@V?$allocator@PEAUFileMetaData@leveldb@@@std@@$0A@@std@@@std@@IEAAXPEAU?$_Tree_node@PEAUFileMetaData@leveldb@@PEAX@2@@Z 00000001800185c0 f i leveldb:version_set.obj
 0001:00017620       ??$?HDU?$char_traits@D@std@@V?$allocator@D@1@@std@@YA?AV?$basic_string@DU?$char_traits@D@std@@V?$allocator@D@2@@0@AEBV10@QEBD@Z 0000000180018620 f i leveldb:db_impl.obj
 0001:000176d0       ??$?HDU?$char_traits@D@std@@V?$allocator@D@1@@std@@YA?AV?$basic_string@DU?$char_traits@D@std@@V?$allocator@D@2@@0@$$QEAV10@AEBV10@@Z 00000001800186d0 f i leveldb:db_impl.obj
 0001:00017750       ??$insert@$0A@$0A@@?$_Tree@V?$_Tset_traits@_KU?$less@_K@std@@V?$allocator@_K@2@$0A@@std@@@std@@QEAA?AU?$pair@V?$_Tree_const_iterator@V?$_Tree_val@U?$_Tree_simple_types@_K@std@@@std@@@std@@_N@1@AEB_K@Z 0000000180018750 f i leveldb:db_impl.obj
 0001:00017880       ??$_Emplace_reallocate@AEBQEAUFileMetaData@leveldb@@@?$vector@PEAUFileMetaData@leveldb@@V?$allocator@PEAUFileMetaData@leveldb@@@std@@@std@@QEAAPEAPEAUFileMetaData@leveldb@@QEAPEAU23@AEBQEAU23@@Z 0000000180018880 f i leveldb:version_set.obj
 0001:00017880       ??$_Emplace_reallocate@AEB_K@?$vector@_KV?$allocator@_K@std@@@std@@QEAAPEA_KQEA_KAEB_K@Z 0000000180018880 f i leveldb:db_impl.obj
 0001:00017880       ??$_Emplace_reallocate@_K@?$vector@_KV?$allocator@_K@std@@@std@@QEAAPEA_KQEA_K$$QEA_K@Z 0000000180018880 f i leveldb:filter_block.obj
 0001:000179e0       ??$_Emplace_reallocate@AEBUOutput@CompactionState@DBImpl@leveldb@@@?$vector@UOutput@CompactionState@DBImpl@leveldb@@V?$allocator@UOutput@CompactionState@DBImpl@leveldb@@@std@@@std@@QEAAPEAUOutput@CompactionState@DBImpl@leveldb@@QEAU2345@AEBU2345@@Z 00000001800189e0 f i leveldb:db_impl.obj
 0001:00017c30       ??$_Emplace_reallocate@PEAVIterator@leveldb@@@?$vector@PEAVIterator@leveldb@@V?$allocator@PEAVIterator@leveldb@@@std@@@std@@QEAAPEAPEAVIterator@leveldb@@QEAPEAV23@$$QEAPEAV23@@Z 0000000180018c30 f i leveldb:db_impl.obj
 0001:00017c30       ??$_Emplace_reallocate@AEBQEAD@?$vector@PEADV?$allocator@PEAD@std@@@std@@QEAAPEAPEADQEAPEADAEBQEAD@Z 0000000180018c30 f i leveldb:arena.obj
 0001:00017dd0       ??$construct@U?$pair@HUFileMetaData@leveldb@@@std@@U12@@?$_Default_allocator_traits@V?$allocator@U?$pair@HUFileMetaData@leveldb@@@std@@@std@@@std@@SAXAEAV?$allocator@U?$pair@HUFileMetaData@leveldb@@@std@@@1@QEAU?$pair@HUFileMetaData@leveldb@@@1@$$QEAU31@@Z 0000000180018dd0 f i leveldb:db_impl.obj
 0001:00017e80       ??$_Emplace_reallocate@U?$pair@HUFileMetaData@leveldb@@@std@@@?$vector@U?$pair@HUFileMetaData@leveldb@@@std@@V?$allocator@U?$pair@HUFileMetaData@leveldb@@@std@@@2@@std@@QEAAPEAU?$pair@HUFileMetaData@leveldb@@@1@QEAU21@$$QEAU21@@Z 0000000180018e80 f i leveldb:db_impl.obj
 0001:000180c0       ??$_Destroy_range@V?$allocator@U?$pair@HVInternalKey@leveldb@@@std@@@std@@@std@@YAXPEAU?$pair@HVInternalKey@leveldb@@@0@0AEAV?$allocator@U?$pair@HVInternalKey@leveldb@@@std@@@0@@Z 00000001800190c0 f i leveldb:db_impl.obj
 0001:00018160       ??$_Destroy_range@V?$allocator@V?$basic_string@DU?$char_traits@D@std@@V?$allocator@D@2@@std@@@std@@@std@@YAXPEAV?$basic_string@DU?$char_traits@D@std@@V?$allocator@D@2@@0@0AEAV?$allocator@V?$basic_string@DU?$char_traits@D@std@@V?$allocator@D@2@@std@@@0@@Z 0000000180019160 f i leveldb:db_impl.obj
 0001:000181f0       ?_Change_array@?$vector@PEAUFileMetaData@leveldb@@V?$allocator@PEAUFileMetaData@leveldb@@@std@@@std@@AEAAXQEAPEAUFileMetaData@leveldb@@_K1@Z 00000001800191f0 f i leveldb:version_set.obj
 0001:000181f0       ?_Change_array@?$vector@_KV?$allocator@_K@std@@@std@@AEAAXQEA_K_K1@Z 00000001800191f0 f i leveldb:db_impl.obj
 0001:00018280       ?reserve@?$basic_string@DU?$char_traits@D@std@@V?$allocator@D@2@@std@@QEAAX_K@Z 0000000180019280 f i leveldb:db_impl.obj
 0001:00018440       ??$_Eqrange@_K@?$_Tree@V?$_Tset_traits@_KU?$less@_K@std@@V?$allocator@_K@2@$0A@@std@@@std@@IEBA?AU?$pair@V?$_Tree_const_iterator@V?$_Tree_val@U?$_Tree_simple_types@_K@std@@@std@@@std@@V12@@1@AEB_K@Z 0000000180019440 f i leveldb:db_impl.obj
 0001:000184d0       ??$_Insert_nohint@U?$pair@H_K@std@@U_Not_a_node_tag@2@@?$_Tree@V?$_Tset_traits@U?$pair@H_K@std@@U?$less@U?$pair@H_K@std@@@2@V?$allocator@U?$pair@H_K@std@@@2@$0A@@std@@@std@@IEAA?AU?$pair@V?$_Tree_const_iterator@V?$_Tree_val@U?$_Tree_simple_types@U?$pair@H_K@std@@@std@@@std@@@std@@_N@1@_N$$QEAU?$pair@H_K@1@U_Not_a_node_tag@1@@Z 00000001800194d0 f i leveldb:db_impl.obj
 0001:00018610       ??$_Uninitialized_move@PEAUOutput@CompactionState@DBImpl@leveldb@@PEAU1234@V?$allocator@UOutput@CompactionState@DBImpl@leveldb@@@std@@@std@@YAPEAUOutput@CompactionState@DBImpl@leveldb@@QEAU1234@0PEAU1234@AEAV?$allocator@UOutput@CompactionState@DBImpl@leveldb@@@0@@Z 0000000180019610 f i leveldb:db_impl.obj
 0001:000186e0       ??$_Uninitialized_move@PEAU?$pair@HUFileMetaData@leveldb@@@std@@PEAU12@V?$allocator@U?$pair@HUFileMetaData@leveldb@@@std@@@2@@std@@YAPEAU?$pair@HUFileMetaData@leveldb@@@0@QEAU10@0PEAU10@AEAV?$allocator@U?$pair@HUFileMetaData@leveldb@@@std@@@0@@Z 00000001800196e0 f i leveldb:db_impl.obj
 0001:000187d0       ??$_Insert_at@U?$pair@H_K@std@@U_Not_a_node_tag@2@@?$_Tree@V?$_Tset_traits@U?$pair@H_K@std@@U?$less@U?$pair@H_K@std@@@2@V?$allocator@U?$pair@H_K@std@@@2@$0A@@std@@@std@@IEAA?AV?$_Tree_const_iterator@V?$_Tree_val@U?$_Tree_simple_types@U?$pair@H_K@std@@@std@@@std@@@1@_NPEAU?$_Tree_node@U?$pair@H_K@std@@PEAX@1@$$QEAU?$pair@H_K@1@U_Not_a_node_tag@1@@Z 00000001800197d0 f i leveldb:db_impl.obj
 0001:00018ab0       ??$_Sort_unchecked@PEA_KU?$less@X@std@@@std@@YAXPEA_K0_JU?$less@X@0@@Z 0000000180019ab0 f i leveldb:db_impl.obj
 0001:00018db0       ??$_Insert_at@AEB_KU_Not_a_node_tag@std@@@?$_Tree@V?$_Tset_traits@_KU?$less@_K@std@@V?$allocator@_K@2@$0A@@std@@@std@@IEAA?AV?$_Tree_const_iterator@V?$_Tree_val@U?$_Tree_simple_types@_K@std@@@std@@@1@_NPEAU?$_Tree_node@_KPEAX@1@AEB_KU_Not_a_node_tag@1@@Z 0000000180019db0 f i leveldb:db_impl.obj
 0001:00019090       ??$_Copy_nodes@U_Copy_tag@?$_Tree@V?$_Tset_traits@_KU?$less@_K@std@@V?$allocator@_K@2@$0A@@std@@@std@@@?$_Tree@V?$_Tset_traits@_KU?$less@_K@std@@V?$allocator@_K@2@$0A@@std@@@std@@IEAAPEAU?$_Tree_node@_KPEAX@1@PEAU21@0U_Copy_tag@01@@Z 000000018001a090 f i leveldb:db_impl.obj
 0001:00019160       ??1?$_Uninitialized_backout_al@PEAU?$pair@HUFileMetaData@leveldb@@@std@@V?$allocator@U?$pair@HUFileMetaData@leveldb@@@std@@@2@@std@@QEAA@XZ 000000018001a160 f i leveldb:db_impl.obj
 0001:000191b0       ??1?$_Uninitialized_backout_al@PEAUOutput@CompactionState@DBImpl@leveldb@@V?$allocator@UOutput@CompactionState@DBImpl@leveldb@@@std@@@std@@QEAA@XZ 000000018001a1b0 f i leveldb:db_impl.obj
 0001:000191f0       ??$_Partition_by_median_guess_unchecked@PEA_KU?$less@X@std@@@std@@YA?AU?$pair@PEA_KPEA_K@0@PEA_K0U?$less@X@0@@Z 000000018001a1f0 f i leveldb:db_impl.obj
 0001:00019380       ??$_Guess_median_unchecked@PEA_KU?$less@X@std@@@std@@YAXPEA_K00U?$less@X@0@@Z 000000018001a380 f i leveldb:db_impl.obj
 0001:000194e0       ??_ECache@leveldb@@UEAAPEAXI@Z 000000018001a4e0 f i * CIL library *:* CIL module *
 0001:000194e0       ??_GCache@leveldb@@UEAAPEAXI@Z 000000018001a4e0 f i leveldb:cache.obj
 0001:00019510       ??1Cache@leveldb@@UEAA@XZ  000000018001a510 f   leveldb:cache.obj
 0001:0001a180       ?NewLRUCache@leveldb@@YAPEAVCache@1@_K@Z 000000018001b180 f   leveldb:cache.obj
 0001:0001a290       ??0Options@leveldb@@QEAA@XZ 000000018001b290 f   leveldb:options.obj
 0001:0001ce20       ?RepairDB@leveldb@@YA?AVStatus@1@AEBV?$basic_string@DU?$char_traits@D@std@@V?$allocator@D@2@@std@@AEBUOptions@1@@Z 000000018001de20 f   leveldb:repair.obj
 0001:0001d3e0       ??$_Emplace_reallocate@AEBV?$basic_string@DU?$char_traits@D@std@@V?$allocator@D@2@@std@@@?$vector@V?$basic_string@DU?$char_traits@D@std@@V?$allocator@D@2@@std@@V?$allocator@V?$basic_string@DU?$char_traits@D@std@@V?$allocator@D@2@@std@@@2@@std@@QEAAPEAV?$basic_string@DU?$char_traits@D@std@@V?$allocator@D@2@@1@QEAV21@AEBV21@@Z 000000018001e3e0 f i leveldb:repair.obj
 0001:0001d690       ??$_Uninitialized_move@PEAV?$basic_string@DU?$char_traits@D@std@@V?$allocator@D@2@@std@@PEAV12@V?$allocator@V?$basic_string@DU?$char_traits@D@std@@V?$allocator@D@2@@std@@@2@@std@@YAPEAV?$basic_string@DU?$char_traits@D@std@@V?$allocator@D@2@@0@QEAV10@0PEAV10@AEAV?$allocator@V?$basic_string@DU?$char_traits@D@std@@V?$allocator@D@2@@std@@@0@@Z 000000018001e690 f i leveldb:repair.obj
 0001:0001d710       ??1?$_Uninitialized_backout_al@PEAV?$basic_string@DU?$char_traits@D@std@@V?$allocator@D@2@@std@@V?$allocator@V?$basic_string@DU?$char_traits@D@std@@V?$allocator@D@2@@std@@@2@@std@@QEAA@XZ 000000018001e710 f i leveldb:repair.obj
 0001:0001d770       ?PutFixed64@leveldb@@YAXPEAV?$basic_string@DU?$char_traits@D@std@@V?$allocator@D@2@@std@@_K@Z 000000018001e770 f   leveldb:coding.obj
 0001:0001d810       ?EncodeVarint32@leveldb@@YAPEADPEADI@Z 000000018001e810 f   leveldb:coding.obj
 0001:0001d890       ?PutVarint32@leveldb@@YAXPEAV?$basic_string@DU?$char_traits@D@std@@V?$allocator@D@2@@std@@I@Z 000000018001e890 f   leveldb:coding.obj
 0001:0001d9c0       ?PutVarint64@leveldb@@YAXPEAV?$basic_string@DU?$char_traits@D@std@@V?$allocator@D@2@@std@@_K@Z 000000018001e9c0 f   leveldb:coding.obj
 0001:0001db10       ??0MemTable@leveldb@@QEAA@AEBVInternalKeyComparator@1@@Z 000000018001eb10 f   leveldb:memtable.obj
 0001:0001dcb0       ??1KeyComparator@MemTable@leveldb@@QEAA@XZ 000000018001ecb0 f i leveldb:memtable.obj
 0001:0001dce0       ??1?$SkipList@PEBDUKeyComparator@MemTable@leveldb@@@leveldb@@QEAA@XZ 000000018001ece0 f i leveldb:memtable.obj
 0001:0001dd10       ??RKeyComparator@MemTable@leveldb@@QEBAHPEBD0@Z 000000018001ed10 f   leveldb:memtable.obj
 0001:0001ddd0       ?Valid@MemTableIterator@leveldb@@UEBA_NXZ 000000018001edd0 f i leveldb:memtable.obj
 0001:0001dde0       ?Seek@MemTableIterator@leveldb@@UEAAXAEBVSlice@2@@Z 000000018001ede0 f i leveldb:memtable.obj
 0001:0001dec0       ?SeekToFirst@MemTableIterator@leveldb@@UEAAXXZ 000000018001eec0 f i leveldb:memtable.obj
 0001:0001dee0       ?SeekToLast@MemTableIterator@leveldb@@UEAAXXZ 000000018001eee0 f i leveldb:memtable.obj
 0001:0001df70       ?Next@MemTableIterator@leveldb@@UEAAXXZ 000000018001ef70 f i leveldb:memtable.obj
 0001:0001dfc0       ?Prev@MemTableIterator@leveldb@@UEAAXXZ 000000018001efc0 f i leveldb:memtable.obj
 0001:0001e0d0       ?key@MemTableIterator@leveldb@@UEBA?AVSlice@2@XZ 000000018001f0d0 f i leveldb:memtable.obj
 0001:0001e120       ?value@MemTableIterator@leveldb@@UEBA?AVSlice@2@XZ 000000018001f120 f i leveldb:memtable.obj
 0001:0001e1c0       ?Flush@WinWritableFile@leveldb@@UEAA?AVStatus@2@XZ 000000018001f1c0 f i leveldb:env_win.obj
 0001:0001e1c0       ?status@LevelFileNumIterator@Version@leveldb@@UEBA?AVStatus@3@XZ 000000018001f1c0 f i leveldb:version_set.obj
 0001:0001e1c0       ?status@MemTableIterator@leveldb@@UEBA?AVStatus@2@XZ 000000018001f1c0 f i leveldb:memtable.obj
 0001:0001e200       ??_EMemTableIterator@leveldb@@UEAAPEAXI@Z 000000018001f200 f i * CIL library *:* CIL module *
 0001:0001e200       ??_GMemTableIterator@leveldb@@UEAAPEAXI@Z 000000018001f200 f i leveldb:memtable.obj
 0001:0001e2a0       ?NewIterator@MemTable@leveldb@@QEAAPEAVIterator@2@XZ 000000018001f2a0 f   leveldb:memtable.obj
 0001:0001e300       ?Add@MemTable@leveldb@@QEAAX_KW4ValueType@2@AEBVSlice@2@2@Z 000000018001f300 f   leveldb:memtable.obj
 0001:0001e480       ?Get@MemTable@leveldb@@QEAA_NAEBVLookupKey@2@PEAV?$basic_string@DU?$char_traits@D@std@@V?$allocator@D@2@@std@@PEAVStatus@2@@Z 000000018001f480 f   leveldb:memtable.obj
 0001:0001e6e0       ?Insert@?$SkipList@PEBDUKeyComparator@MemTable@leveldb@@@leveldb@@QEAAXAEBQEBD@Z 000000018001f6e0 f i leveldb:memtable.obj
 0001:0001e9a0       ?Hash@leveldb@@YAIPEBD_KI@Z 000000018001f9a0 f   leveldb:hash.obj
 0001:0001ea20       ??1FilterPolicy@leveldb@@UEAA@XZ 000000018001fa20 f   leveldb:filter_policy.obj
 0001:0001ea20       ??1Source@snappy@@UEAA@XZ  000000018001fa20 f   snappy:snappy-sinksource.obj
 0001:0001ea30       ?DebugString@ParsedInternalKey@leveldb@@QEBA?AV?$basic_string@DU?$char_traits@D@std@@V?$allocator@D@2@@std@@XZ 000000018001fa30 f   leveldb:dbformat.obj
 0001:0001ec20       ?DebugString@InternalKey@leveldb@@QEBA?AV?$basic_string@DU?$char_traits@D@std@@V?$allocator@D@2@@std@@XZ 000000018001fc20 f   leveldb:dbformat.obj
 0001:0001ee30       ?Name@InternalKeyComparator@leveldb@@UEBAPEBDXZ 000000018001fe30 f   leveldb:dbformat.obj
 0001:0001ee40       ?Compare@InternalKeyComparator@leveldb@@UEBAHAEBVSlice@2@0@Z 000000018001fe40 f   leveldb:dbformat.obj
 0001:0001ef30       ?FindShortestSeparator@InternalKeyComparator@leveldb@@UEBAXPEAV?$basic_string@DU?$char_traits@D@std@@V?$allocator@D@2@@std@@AEBVSlice@2@@Z 000000018001ff30 f   leveldb:dbformat.obj
 0001:0001f1b0       ?FindShortSuccessor@InternalKeyComparator@leveldb@@UEBAXPEAV?$basic_string@DU?$char_traits@D@std@@V?$allocator@D@2@@std@@@Z 00000001800201b0 f   leveldb:dbformat.obj
 0001:0001f3a0       ?Name@InternalFilterPolicy@leveldb@@UEBAPEBDXZ 00000001800203a0 f   leveldb:dbformat.obj
 0001:0001f3b0       ?CreateFilter@InternalFilterPolicy@leveldb@@UEBAXPEBVSlice@2@HPEAV?$basic_string@DU?$char_traits@D@std@@V?$allocator@D@2@@std@@@Z 00000001800203b0 f   leveldb:dbformat.obj
 0001:0001f460       ?KeyMayMatch@InternalFilterPolicy@leveldb@@UEBA_NAEBVSlice@2@0@Z 0000000180020460 f   leveldb:dbformat.obj
 0001:0001f4e0       ?BuildTable@leveldb@@YA?AVStatus@1@AEBV?$basic_string@DU?$char_traits@D@std@@V?$allocator@D@2@@std@@PEAVEnv@1@AEBUOptions@1@PEAVTableCache@1@PEAVIterator@1@PEAUFileMetaData@1@@Z 00000001800204e0 f   leveldb:builder.obj
 0001:0001fa40       ??1Mutex@port@leveldb@@QEAA@XZ 0000000180020a40 f   leveldb:port_uv.obj
 0001:0001fa60       ??1CondVar@port@leveldb@@QEAA@XZ 0000000180020a60 f   leveldb:port_uv.obj
 0001:0001fb90       ?LogFileName@leveldb@@YA?AV?$basic_string@DU?$char_traits@D@std@@V?$allocator@D@2@@std@@AEBV23@_K@Z 0000000180020b90 f   leveldb:filename.obj
 0001:0001fc10       ?TableFileName@leveldb@@YA?AV?$basic_string@DU?$char_traits@D@std@@V?$allocator@D@2@@std@@AEBV23@_K@Z 0000000180020c10 f   leveldb:filename.obj
 0001:0001fc90       ?DescriptorFileName@leveldb@@YA?AV?$basic_string@DU?$char_traits@D@std@@V?$allocator@D@2@@std@@AEBV23@_K@Z 0000000180020c90 f   leveldb:filename.obj
 0001:0001fdb0       ?LockFileName@leveldb@@YA?AV?$basic_string@DU?$char_traits@D@std@@V?$allocator@D@2@@std@@AEBV23@@Z 0000000180020db0 f   leveldb:filename.obj
 0001:0001fe50       ?TempFileName@leveldb@@YA?AV?$basic_string@DU?$char_traits@D@std@@V?$allocator@D@2@@std@@AEBV23@_K@Z 0000000180020e50 f   leveldb:filename.obj
 0001:0001fed0       ?ParseFileName@leveldb@@YA_NAEBV?$basic_string@DU?$char_traits@D@std@@V?$allocator@D@2@@std@@PEA_KPEAW4FileType@1@@Z 0000000180020ed0 f   leveldb:filename.obj
 0001:00020170       ?SetCurrentFile@leveldb@@YA?AVStatus@1@PEAVEnv@1@AEBV?$basic_string@DU?$char_traits@D@std@@V?$allocator@D@2@@std@@_K@Z 0000000180021170 f   leveldb:filename.obj
 0001:00020630       ??$?HDU?$char_traits@D@std@@V?$allocator@D@1@@std@@YA?AV?$basic_string@DU?$char_traits@D@std@@V?$allocator@D@2@@0@$$QEAV10@QEBD@Z 0000000180021630 f i leveldb:filename.obj
 0001:000206b0       ??_EEnv@leveldb@@UEAAPEAXI@Z 00000001800216b0 f i * CIL library *:* CIL module *
 0001:000206b0       ??_GEnv@leveldb@@UEAAPEAXI@Z 00000001800216b0 f i leveldb:env.obj
 0001:000206e0       ??1Env@leveldb@@UEAA@XZ    00000001800216e0 f   leveldb:env.obj
 0001:000206f0       ?NewAppendableFile@Env@leveldb@@UEAA?AVStatus@2@AEBV?$basic_string@DU?$char_traits@D@std@@V?$allocator@D@2@@std@@PEAPEAVWritableFile@2@@Z 00000001800216f0 f   leveldb:env.obj
 0001:00020780       ??1RandomAccessFile@leveldb@@UEAA@XZ 0000000180021780 f   leveldb:env.obj
 0001:00020780       ??1Reporter@Reader@log@leveldb@@UEAA@XZ 0000000180021780 f   leveldb:log_reader.obj
 0001:00020780       ??1Logger@leveldb@@UEAA@XZ 0000000180021780 f   leveldb:env.obj
 0001:00020790       ??1Comparator@leveldb@@UEAA@XZ 0000000180021790 f   leveldb:comparator.obj
 0001:00020790       ??1WritableFile@leveldb@@UEAA@XZ 0000000180021790 f   leveldb:env.obj
 0001:000207a0       ?Log@leveldb@@YAXPEAVLogger@1@PEBDZZ 00000001800217a0 f   leveldb:env.obj
 0001:00020a00       ?ReadFileToString@leveldb@@YA?AVStatus@1@PEAVEnv@1@AEBV?$basic_string@DU?$char_traits@D@std@@V?$allocator@D@2@@std@@PEAV45@@Z 0000000180021a00 f   leveldb:env.obj
 0001:00020c10       ??0IteratorWrapper@leveldb@@QEAA@XZ 0000000180021c10 f i leveldb:merger.obj
 0001:00020c30       ??1IteratorWrapper@leveldb@@QEAA@XZ 0000000180021c30 f i leveldb:merger.obj
 0001:00020c60       ?status@IteratorWrapper@leveldb@@QEBA?AVStatus@2@XZ 0000000180021c60 f i leveldb:merger.obj
 0001:00020cd0       ?Next@IteratorWrapper@leveldb@@QEAAXXZ 0000000180021cd0 f i leveldb:merger.obj
 0001:00020d30       ?Seek@IteratorWrapper@leveldb@@QEAAXAEBVSlice@2@@Z 0000000180021d30 f i leveldb:merger.obj
 0001:00020da0       ?SeekToFirst@IteratorWrapper@leveldb@@QEAAXXZ 0000000180021da0 f i leveldb:merger.obj
 0001:00020e00       ?SeekToLast@IteratorWrapper@leveldb@@QEAAXXZ 0000000180021e00 f i leveldb:merger.obj
 0001:000218d0       ?NewMergingIterator@leveldb@@YAPEAVIterator@1@PEBVComparator@1@PEAPEAV21@H@Z 00000001800228d0 f   leveldb:merger.obj
 0001:00021a70       fprintf                    0000000180022a70 f i leveldb:version_set.obj
 0001:00021ac0       ?Compare@InternalKeyComparator@leveldb@@QEBAHAEBVInternalKey@2@0@Z 0000000180022ac0 f i leveldb:version_set.obj
 0001:00021b70       ?SetCompactPointer@VersionEdit@leveldb@@QEAAXHAEBVInternalKey@2@@Z 0000000180022b70 f i leveldb:version_set.obj
 0001:00021c50       ??0Version@leveldb@@AEAA@PEAVVersionSet@1@@Z 0000000180022c50 f i leveldb:version_set.obj
 0001:00021d60       ??1Version@leveldb@@AEAA@XZ 0000000180022d60 f   leveldb:version_set.obj
 0001:00021e80       ?FindFile@leveldb@@YAHAEBVInternalKeyComparator@1@AEBV?$vector@PEAUFileMetaData@leveldb@@V?$allocator@PEAUFileMetaData@leveldb@@@std@@@std@@AEBVSlice@1@@Z 0000000180022e80 f   leveldb:version_set.obj
 0001:00022080       ?SomeFileOverlapsRange@leveldb@@YA_NAEBVInternalKeyComparator@1@_NAEBV?$vector@PEAUFileMetaData@leveldb@@V?$allocator@PEAUFileMetaData@leveldb@@@std@@@std@@PEBVSlice@1@3@Z 0000000180023080 f   leveldb:version_set.obj
 0001:000222e0       ?Valid@LevelFileNumIterator@Version@leveldb@@UEBA_NXZ 00000001800232e0 f i leveldb:version_set.obj
 0001:00022300       ?Seek@LevelFileNumIterator@Version@leveldb@@UEAAXAEBVSlice@3@@Z 0000000180023300 f i leveldb:version_set.obj
 0001:00022330       ?SeekToFirst@LevelFileNumIterator@Version@leveldb@@UEAAXXZ 0000000180023330 f i leveldb:version_set.obj
 0001:00022340       ?SeekToLast@LevelFileNumIterator@Version@leveldb@@UEAAXXZ 0000000180023340 f i leveldb:version_set.obj
 0001:00022370       ?Next@LevelFileNumIterator@Version@leveldb@@UEAAXXZ 0000000180023370 f i leveldb:version_set.obj
 0001:000223b0       ?Prev@LevelFileNumIterator@Version@leveldb@@UEAAXXZ 00000001800233b0 f i leveldb:version_set.obj
 0001:00022410       ?key@LevelFileNumIterator@Version@leveldb@@UEBA?AVSlice@3@XZ 0000000180023410 f i leveldb:version_set.obj
 0001:000224a0       ?value@LevelFileNumIterator@Version@leveldb@@UEBA?AVSlice@3@XZ 00000001800234a0 f i leveldb:version_set.obj
 0001:00022520       ??_GLevelFileNumIterator@Version@leveldb@@UEAAPEAXI@Z 0000000180023520 f i leveldb:version_set.obj
 0001:00022520       ??_ELevelFileNumIterator@Version@leveldb@@UEAAPEAXI@Z 0000000180023520 f i * CIL library *:* CIL module *
 0001:000226f0       ?ForEachOverlapping@Version@leveldb@@AEAAXVSlice@2@0PEAXP6A_N1HPEAUFileMetaData@2@@Z@Z 00000001800236f0 f   leveldb:version_set.obj
 0001:00022a30       ?Get@Version@leveldb@@QEAA?AVStatus@2@AEBUReadOptions@2@AEBVLookupKey@2@PEAV?$basic_string@DU?$char_traits@D@std@@V?$allocator@D@2@@std@@PEAUGetStats@12@@Z 0000000180023a30 f   leveldb:version_set.obj
 0001:00023330       ?Unref@Version@leveldb@@QEAAXXZ 0000000180024330 f   leveldb:version_set.obj
 0001:000233b0       ?PickLevelForMemTableOutput@Version@leveldb@@QEAAHAEBVSlice@2@0@Z 00000001800243b0 f   leveldb:version_set.obj
 0001:000239a0       ?GetOverlappingInputs@Version@leveldb@@QEAAXHPEBVInternalKey@2@0PEAV?$vector@PEAUFileMetaData@leveldb@@V?$allocator@PEAUFileMetaData@leveldb@@@std@@@std@@@Z 00000001800249a0 f   leveldb:version_set.obj
 0001:00023c80       ?DebugString@Version@leveldb@@QEBA?AV?$basic_string@DU?$char_traits@D@std@@V?$allocator@D@2@@std@@XZ 0000000180024c80 f   leveldb:version_set.obj
 0001:00023f90       ??0Builder@VersionSet@leveldb@@QEAA@PEAV12@PEAVVersion@2@@Z 0000000180024f90 f i leveldb:version_set.obj
 0001:00024060       ??1Builder@VersionSet@leveldb@@QEAA@XZ 0000000180025060 f i leveldb:version_set.obj
 0001:00024330       ?Apply@Builder@VersionSet@leveldb@@QEAAXPEAVVersionEdit@3@@Z 0000000180025330 f i leveldb:version_set.obj
 0001:000246d0       ?SaveTo@Builder@VersionSet@leveldb@@QEAAXPEAVVersion@3@@Z 00000001800256d0 f i leveldb:version_set.obj
 0001:00024aa0       ?MaybeAddFile@Builder@VersionSet@leveldb@@QEAAXPEAVVersion@3@HPEAUFileMetaData@3@@Z 0000000180025aa0 f i leveldb:version_set.obj
 0001:00024bf0       ??0LevelState@Builder@VersionSet@leveldb@@QEAA@XZ 0000000180025bf0 f i leveldb:version_set.obj
 0001:00024c40       ??1LevelState@Builder@VersionSet@leveldb@@QEAA@XZ 0000000180025c40 f i leveldb:version_set.obj
 0001:00024c90       ?AppendVersion@VersionSet@leveldb@@AEAAXPEAVVersion@2@@Z 0000000180025c90 f   leveldb:version_set.obj
 0001:00024d30       ?LogAndApply@VersionSet@leveldb@@QEAA?AVStatus@2@PEAVVersionEdit@2@PEAVMutex@port@2@@Z 0000000180025d30 f   leveldb:version_set.obj
 0001:000252b0       ?Recover@VersionSet@leveldb@@QEAA?AVStatus@2@PEA_N@Z 00000001800262b0 f   leveldb:version_set.obj
 0001:00026180       ?ReuseManifest@VersionSet@leveldb@@AEAA_NAEBV?$basic_string@DU?$char_traits@D@std@@V?$allocator@D@2@@std@@0@Z 0000000180027180 f   leveldb:version_set.obj
 0001:000263d0       ?Finalize@VersionSet@leveldb@@AEAAXPEAVVersion@2@@Z 00000001800273d0 f   leveldb:version_set.obj
 0001:00026590       ?WriteSnapshot@VersionSet@leveldb@@AEAA?AVStatus@2@PEAVWriter@log@2@@Z 0000000180027590 f   leveldb:version_set.obj
 0001:00026930       ?NumLevelFiles@VersionSet@leveldb@@QEBAHH@Z 0000000180027930 f   leveldb:version_set.obj
 0001:000269b0       ?LevelSummary@VersionSet@leveldb@@QEBAPEBDPEAULevelSummaryStorage@12@@Z 00000001800279b0 f   leveldb:version_set.obj
 0001:00026a70       ?ApproximateOffsetOf@VersionSet@leveldb@@QEAA_KPEAVVersion@2@AEBVInternalKey@2@@Z 0000000180027a70 f   leveldb:version_set.obj
 0001:00026d90       ?AddLiveFiles@VersionSet@leveldb@@QEAAXPEAV?$set@_KU?$less@_K@std@@V?$allocator@_K@2@@std@@@Z 0000000180027d90 f   leveldb:version_set.obj
 0001:00026e60       ?GetRange@VersionSet@leveldb@@AEAAXAEBV?$vector@PEAUFileMetaData@leveldb@@V?$allocator@PEAUFileMetaData@leveldb@@@std@@@std@@PEAVInternalKey@2@1@Z 0000000180027e60 f   leveldb:version_set.obj
 0001:00026fe0       ?GetRange2@VersionSet@leveldb@@AEAAXAEBV?$vector@PEAUFileMetaData@leveldb@@V?$allocator@PEAUFileMetaData@leveldb@@@std@@@std@@0PEAVInternalKey@2@1@Z 0000000180027fe0 f   leveldb:version_set.obj
 0001:00027100       ?MakeInputIterator@VersionSet@leveldb@@QEAAPEAVIterator@2@PEAVCompaction@2@@Z 0000000180028100 f   leveldb:version_set.obj
 0001:00027440       ?PickCompaction@VersionSet@leveldb@@QEAAPEAVCompaction@2@XZ 0000000180028440 f   leveldb:version_set.obj
 0001:00027a50       ?SetupOtherInputs@VersionSet@leveldb@@AEAAXPEAVCompaction@2@@Z 0000000180028a50 f   leveldb:version_set.obj
 0001:00028bd0       ?CompactRange@VersionSet@leveldb@@QEAAPEAVCompaction@2@HPEBVInternalKey@2@0@Z 0000000180029bd0 f   leveldb:version_set.obj
 0001:00028d20       ??0Compaction@leveldb@@AEAA@PEBUOptions@1@H@Z 0000000180029d20 f   leveldb:version_set.obj
 0001:00028df0       ??1?$_Tree@V?$_Tset_traits@PEAUFileMetaData@leveldb@@UBySmallestKey@Builder@VersionSet@2@V?$allocator@PEAUFileMetaData@leveldb@@@std@@$0A@@std@@@std@@QEAA@XZ 0000000180029df0 f i leveldb:version_set.obj
 0001:00028ea0       ?reserve@?$vector@PEAUFileMetaData@leveldb@@V?$allocator@PEAUFileMetaData@leveldb@@@std@@@std@@QEAAX_K@Z 0000000180029ea0 f i leveldb:version_set.obj
 0001:00028f90       ??4?$vector@PEAUFileMetaData@leveldb@@V?$allocator@PEAUFileMetaData@leveldb@@@std@@@std@@QEAAAEAV01@AEBV01@@Z 0000000180029f90 f i leveldb:version_set.obj
 0001:000290f0       ??0?$vector@PEAUFileMetaData@leveldb@@V?$allocator@PEAUFileMetaData@leveldb@@@std@@@std@@QEAA@XZ 000000018002a0f0 f i leveldb:version_set.obj
 0001:00029110       ?push_back@?$vector@U?$pair@HVInternalKey@leveldb@@@std@@V?$allocator@U?$pair@HVInternalKey@leveldb@@@std@@@2@@std@@QEAAX$$QEAU?$pair@HVInternalKey@leveldb@@@2@@Z 000000018002a110 f i leveldb:version_set.obj
 0001:00029180       ??1?$_Tree_comp_alloc@V?$_Tset_traits@PEAUFileMetaData@leveldb@@UBySmallestKey@Builder@VersionSet@2@V?$allocator@PEAUFileMetaData@leveldb@@@std@@$0A@@std@@@std@@QEAA@XZ 000000018002a180 f i leveldb:version_set.obj
 0001:000291a0       ?_Buy@?$vector@PEAUFileMetaData@leveldb@@V?$allocator@PEAUFileMetaData@leveldb@@@std@@@std@@AEAA_N_K@Z 000000018002a1a0 f i leveldb:version_set.obj
 0001:00029250       ??$_Resize@V<lambda_9c2e681044e6d49512e65148943e3898>@@@?$vector@PEAUFileMetaData@leveldb@@V?$allocator@PEAUFileMetaData@leveldb@@@std@@@std@@AEAAX_KV<lambda_9c2e681044e6d49512e65148943e3898>@@@Z 000000018002a250 f i leveldb:version_set.obj
 0001:000293c0       ??$_Emplace_reallocate@U?$pair@HVInternalKey@leveldb@@@std@@@?$vector@U?$pair@HVInternalKey@leveldb@@@std@@V?$allocator@U?$pair@HVInternalKey@leveldb@@@std@@@2@@std@@QEAAPEAU?$pair@HVInternalKey@leveldb@@@1@QEAU21@$$QEAU21@@Z 000000018002a3c0 f i leveldb:version_set.obj
 0001:00029610       ??$_Sort_unchecked@PEAPEAUFileMetaData@leveldb@@P6A_NPEAU12@0@Z@std@@YAXPEAPEAUFileMetaData@leveldb@@0_JP6A_NPEAU12@2@Z@Z 000000018002a610 f i leveldb:version_set.obj
 0001:000298f0       ??$_Insert_nohint@AEBQEAUFileMetaData@leveldb@@U_Not_a_node_tag@std@@@?$_Tree@V?$_Tset_traits@PEAUFileMetaData@leveldb@@UBySmallestKey@Builder@VersionSet@2@V?$allocator@PEAUFileMetaData@leveldb@@@std@@$0A@@std@@@std@@IEAA?AU?$pair@V?$_Tree_const_iterator@V?$_Tree_val@U?$_Tree_simple_types@PEAUFileMetaData@leveldb@@@std@@@std@@@std@@_N@1@_NAEBQEAUFileMetaData@leveldb@@U_Not_a_node_tag@1@@Z 000000018002a8f0 f i leveldb:version_set.obj
 0001:00029a80       ??$_Insert_range@PEBQEAUFileMetaData@leveldb@@@?$vector@PEAUFileMetaData@leveldb@@V?$allocator@PEAUFileMetaData@leveldb@@@std@@@std@@AEAAXV?$_Vector_const_iterator@V?$_Vector_val@U?$_Simple_types@PEAUFileMetaData@leveldb@@@std@@@std@@@1@PEBQEAUFileMetaData@leveldb@@1Uforward_iterator_tag@1@@Z 000000018002aa80 f i leveldb:version_set.obj
 0001:00029ca0       ??$_Uninitialized_move@PEAU?$pair@HVInternalKey@leveldb@@@std@@PEAU12@V?$allocator@U?$pair@HVInternalKey@leveldb@@@std@@@2@@std@@YAPEAU?$pair@HVInternalKey@leveldb@@@0@QEAU10@0PEAU10@AEAV?$allocator@U?$pair@HVInternalKey@leveldb@@@std@@@0@@Z 000000018002aca0 f i leveldb:version_set.obj
 0001:00029d40       ??$_Partition_by_median_guess_unchecked@PEAPEAUFileMetaData@leveldb@@P6A_NPEAU12@0@Z@std@@YA?AU?$pair@PEAPEAUFileMetaData@leveldb@@PEAPEAU12@@0@PEAPEAUFileMetaData@leveldb@@0P6A_NPEAU23@1@Z@Z 000000018002ad40 f i leveldb:version_set.obj
 0001:00029f30       ??$_Insert_at@AEBQEAUFileMetaData@leveldb@@U_Not_a_node_tag@std@@@?$_Tree@V?$_Tset_traits@PEAUFileMetaData@leveldb@@UBySmallestKey@Builder@VersionSet@2@V?$allocator@PEAUFileMetaData@leveldb@@@std@@$0A@@std@@@std@@IEAA?AV?$_Tree_const_iterator@V?$_Tree_val@U?$_Tree_simple_types@PEAUFileMetaData@leveldb@@@std@@@std@@@1@_NPEAU?$_Tree_node@PEAUFileMetaData@leveldb@@PEAX@1@AEBQEAUFileMetaData@leveldb@@U_Not_a_node_tag@1@@Z 000000018002af30 f i leveldb:version_set.obj
 0001:0002a220       ??1?$_Uninitialized_backout_al@PEAU?$pair@HVInternalKey@leveldb@@@std@@V?$allocator@U?$pair@HVInternalKey@leveldb@@@std@@@2@@std@@QEAA@XZ 000000018002b220 f i leveldb:version_set.obj
 0001:0002a230       ??$_Guess_median_unchecked@PEAPEAUFileMetaData@leveldb@@P6A_NPEAU12@0@Z@std@@YAXPEAPEAUFileMetaData@leveldb@@00P6A_NPEAU12@1@Z@Z 000000018002b230 f i leveldb:version_set.obj
 0001:0002a430       ??$_Pop_heap_hole_by_index@PEAPEAUFileMetaData@leveldb@@PEAU12@P6A_NPEAU12@0@Z@std@@YAXPEAPEAUFileMetaData@leveldb@@_J1$$QEAPEAU12@P6A_NPEAU12@3@Z@Z 000000018002b430 f i leveldb:version_set.obj
 0001:0002a610       ?FindTable@TableCache@leveldb@@AEAA?AVStatus@2@_K0PEAPEAUHandle@Cache@2@@Z 000000018002b610 f   leveldb:table_cache.obj
 0001:0002a930       ?NewIterator@TableCache@leveldb@@QEAAPEAVIterator@2@AEBUReadOptions@2@_K1PEAPEAVTable@2@@Z 000000018002b930 f   leveldb:table_cache.obj
 0001:0002aa70       ?Clear@VersionEdit@leveldb@@QEAAXXZ 000000018002ba70 f   leveldb:version_edit.obj
 0001:0002ab20       ?EncodeTo@VersionEdit@leveldb@@QEBAXPEAV?$basic_string@DU?$char_traits@D@std@@V?$allocator@D@2@@std@@@Z 000000018002bb20 f   leveldb:version_edit.obj
 0001:0002b330       ?DecodeFrom@VersionEdit@leveldb@@QEAA?AVStatus@2@AEBVSlice@2@@Z 000000018002c330 f   leveldb:version_edit.obj
 0001:0002bf20       ??1Reader@log@leveldb@@QEAA@XZ 000000018002cf20 f   leveldb:log_reader.obj
 0001:0002bf30       ?ReadRecord@Reader@log@leveldb@@QEAA_NPEAVSlice@3@PEAV?$basic_string@DU?$char_traits@D@std@@V?$allocator@D@2@@std@@@Z 000000018002cf30 f   leveldb:log_reader.obj
 0001:0002c570       ?ReadPhysicalRecord@Reader@log@leveldb@@AEAAIPEAVSlice@3@@Z 000000018002d570 f   leveldb:log_reader.obj
 0001:0002c8a0       ??0Writer@log@leveldb@@QEAA@PEAVWritableFile@2@@Z 000000018002d8a0 f   leveldb:log_writer.obj
 0001:0002c900       ??0Writer@log@leveldb@@QEAA@PEAVWritableFile@2@_K@Z 000000018002d900 f   leveldb:log_writer.obj
 0001:0002c970       ?AddRecord@Writer@log@leveldb@@QEAA?AVStatus@3@AEBVSlice@3@@Z 000000018002d970 f   leveldb:log_writer.obj
 0001:0002cc80       ??_EIterator@leveldb@@UEAAPEAXI@Z 000000018002dc80 f i * CIL library *:* CIL module *
 0001:0002cc80       ??_GIterator@leveldb@@UEAAPEAXI@Z 000000018002dc80 f i leveldb:iterator.obj
 0001:0002ccc0       ??1Iterator@leveldb@@UEAA@XZ 000000018002dcc0 f   leveldb:iterator.obj
 0001:0002cea0       ?NewEmptyIterator@leveldb@@YAPEAVIterator@1@XZ 000000018002dea0 f   leveldb:iterator.obj
 0001:0002cf40       ?NewErrorIterator@leveldb@@YAPEAVIterator@1@AEBVStatus@1@@Z 000000018002df40 f   leveldb:iterator.obj
 0001:0002de80       ?ok@TableBuilder@leveldb@@AEBA_NXZ 000000018002ee80 f i leveldb:table_builder.obj
 0001:0002dee0       ??1BlockBuilder@leveldb@@QEAA@XZ 000000018002eee0 f i leveldb:table_builder.obj
 0001:0002e000       ??0TableBuilder@leveldb@@QEAA@AEBUOptions@1@PEAVWritableFile@1@@Z 000000018002f000 f   leveldb:table_builder.obj
 0001:0002e1e0       ??1TableBuilder@leveldb@@QEAA@XZ 000000018002f1e0 f   leveldb:table_builder.obj
 0001:0002e370       ??1FilterBlockBuilder@leveldb@@QEAA@XZ 000000018002f370 f i leveldb:table_builder.obj
 0001:0002e540       ?Add@TableBuilder@leveldb@@QEAAXAEBVSlice@2@0@Z 000000018002f540 f   leveldb:table_builder.obj
 0001:0002e870       ?Flush@TableBuilder@leveldb@@QEAAXXZ 000000018002f870 f   leveldb:table_builder.obj
 0001:0002e9a0       ?WriteBlock@TableBuilder@leveldb@@AEAAXPEAVBlockBuilder@2@PEAVBlockHandle@2@@Z 000000018002f9a0 f   leveldb:table_builder.obj
 0001:0002ed10       ?WriteRawBlock@TableBuilder@leveldb@@AEAAXAEBVSlice@2@W4CompressionType@2@PEAVBlockHandle@2@@Z 000000018002fd10 f   leveldb:table_builder.obj
 0001:0002ee80       ?Finish@TableBuilder@leveldb@@QEAA?AVStatus@2@XZ 000000018002fe80 f   leveldb:table_builder.obj
 0001:0002f610       ??1?$vector@VSlice@leveldb@@V?$allocator@VSlice@leveldb@@@std@@@std@@QEAA@XZ 0000000180030610 f i leveldb:table_builder.obj
 0001:0002f680       ??1?$vector@IV?$allocator@I@std@@@std@@QEAA@XZ 0000000180030680 f i leveldb:table_builder.obj
 0001:0002f6f0       ?EscapeString@leveldb@@YA?AV?$basic_string@DU?$char_traits@D@std@@V?$allocator@D@2@@std@@AEBVSlice@1@@Z 00000001800306f0 f   leveldb:logging.obj
 0001:0002f800       ?ConsumeDecimalNumber@leveldb@@YA_NPEAVSlice@1@PEA_K@Z 0000000180030800 f   leveldb:logging.obj
 0001:0002fb80       ??_GWinLogger@leveldb@@UEAAPEAXI@Z 0000000180030b80 f i leveldb:env_win.obj
 0001:0002fb80       ??_EWinLogger@leveldb@@UEAAPEAXI@Z 0000000180030b80 f i * CIL library *:* CIL module *
 0001:0002fdc0       ?Read@WinSequentialFile@leveldb@@UEAA?AVStatus@2@_KPEAVSlice@2@PEAD@Z 0000000180030dc0 f i leveldb:env_win.obj
 0001:0002fe80       ?Skip@WinSequentialFile@leveldb@@UEAA?AVStatus@2@_K@Z 0000000180030e80 f i leveldb:env_win.obj
 0001:0002ff00       ??_GWinSequentialFile@leveldb@@UEAAPEAXI@Z 0000000180030f00 f i leveldb:env_win.obj
 0001:0002ff00       ??_EWinSequentialFile@leveldb@@UEAAPEAXI@Z 0000000180030f00 f i * CIL library *:* CIL module *
 0001:0002ffb0       ?Read@WinRandomAccessFile@leveldb@@UEBA?AVStatus@2@_K0PEAVSlice@2@PEAD@Z 0000000180030fb0 f i leveldb:env_win.obj
 0001:000300f0       ??_EWinRandomAccessFile@leveldb@@UEAAPEAXI@Z 00000001800310f0 f i * CIL library *:* CIL module *
 0001:000300f0       ??_GWinRandomAccessFile@leveldb@@UEAAPEAXI@Z 00000001800310f0 f i leveldb:env_win.obj
 0001:000301a0       ?Append@WinWritableFile@leveldb@@UEAA?AVStatus@2@AEBVSlice@2@@Z 00000001800311a0 f i leveldb:env_win.obj
 0001:00030350       ?Close@WinWritableFile@leveldb@@UEAA?AVStatus@2@XZ 0000000180031350 f i leveldb:env_win.obj
 0001:00030420       ?Sync@WinWritableFile@leveldb@@UEAA?AVStatus@2@XZ 0000000180031420 f i leveldb:env_win.obj
 0001:00030490       ??_EWinWritableFile@leveldb@@UEAAPEAXI@Z 0000000180031490 f i * CIL library *:* CIL module *
 0001:00030490       ??_GWinWritableFile@leveldb@@UEAAPEAXI@Z 0000000180031490 f i leveldb:env_win.obj
 0001:00032ca0       ??$?HDU?$char_traits@D@std@@V?$allocator@D@1@@std@@YA?AV?$basic_string@DU?$char_traits@D@std@@V?$allocator@D@2@@0@QEBDAEBV10@@Z 0000000180033ca0 f i leveldb:env_win.obj
 0001:00032d50       ??$_Emplace_reallocate@V?$basic_string@DU?$char_traits@D@std@@V?$allocator@D@2@@std@@@?$vector@V?$basic_string@DU?$char_traits@D@std@@V?$allocator@D@2@@std@@V?$allocator@V?$basic_string@DU?$char_traits@D@std@@V?$allocator@D@2@@std@@@2@@std@@QEAAPEAV?$basic_string@DU?$char_traits@D@std@@V?$allocator@D@2@@1@QEAV21@$$QEAV21@@Z 0000000180033d50 f i leveldb:env_win.obj
 0001:00032f20       ??1Arena@leveldb@@QEAA@XZ  0000000180033f20 f   leveldb:arena.obj
 0001:00032fe0       ?AllocateFallback@Arena@leveldb@@AEAAPEAD_K@Z 0000000180033fe0 f   leveldb:arena.obj
 0001:000330d0       ??_GBlock@leveldb@@QEAAPEAXI@Z 00000001800340d0 f i leveldb:table.obj
 0001:00033100       ?Open@Table@leveldb@@SA?AVStatus@2@AEBUOptions@2@PEAVRandomAccessFile@2@_KPEAPEAV12@@Z 0000000180034100 f   leveldb:table.obj
 0001:000334c0       ?ReadMeta@Table@leveldb@@AEAAXAEBVFooter@2@@Z 00000001800344c0 f   leveldb:table.obj
 0001:000338e0       ?BlockReader@Table@leveldb@@CAPEAVIterator@2@PEAXAEBUReadOptions@2@AEBVSlice@2@@Z 00000001800348e0 f   leveldb:table.obj
 0001:00033c20       ?InternalGet@Table@leveldb@@AEAA?AVStatus@2@AEBUReadOptions@2@AEBVSlice@2@PEAXP6AX211@Z@Z 0000000180034c20 f   leveldb:table.obj
 0001:00033e70       ??0IteratorWrapper@leveldb@@QEAA@PEAVIterator@1@@Z 0000000180034e70 f i leveldb:two_level_iterator.obj
 0001:00034830       ?NewTwoLevelIterator@leveldb@@YAPEAVIterator@1@PEAV21@P6APEAV21@PEAXAEBUReadOptions@1@AEBVSlice@1@@Z12@Z 0000000180035830 f   leveldb:two_level_iterator.obj
 0001:00034920       ?Extend@crc32c@leveldb@@YAIIPEBD_K@Z 0000000180035920 f   leveldb:crc32c.obj
 0001:00034c10       ?DecodeFrom@BlockHandle@leveldb@@QEAA?AVStatus@2@PEAVSlice@2@@Z 0000000180035c10 f   leveldb:format.obj
 0001:00034d80       ?EncodeTo@Footer@leveldb@@QEBAXPEAV?$basic_string@DU?$char_traits@D@std@@V?$allocator@D@2@@std@@@Z 0000000180035d80 f   leveldb:format.obj
 0001:00034f60       ?DecodeFrom@Footer@leveldb@@QEAA?AVStatus@2@PEAVSlice@2@@Z 0000000180035f60 f   leveldb:format.obj
 0001:00035110       ?ReadBlock@leveldb@@YA?AVStatus@1@PEAVRandomAccessFile@1@AEBUReadOptions@1@AEBVBlockHandle@1@PEAUBlockContents@1@@Z 0000000180036110 f   leveldb:format.obj
 0001:000355c0       ??0BlockBuilder@leveldb@@QEAA@PEBUOptions@1@@Z 00000001800365c0 f   leveldb:block_builder.obj
 0001:00035670       ?Add@BlockBuilder@leveldb@@QEAAXAEBVSlice@2@0@Z 0000000180036670 f   leveldb:block_builder.obj
 0001:000358a0       ??$_Emplace_reallocate@I@?$vector@IV?$allocator@I@std@@@std@@QEAAPEAIQEAI$$QEAI@Z 00000001800368a0 f i leveldb:block_builder.obj
 0001:00035a40       ?StartBlock@FilterBlockBuilder@leveldb@@QEAAX_K@Z 0000000180036a40 f   leveldb:filter_block.obj
 0001:00035ac0       ?GenerateFilter@FilterBlockBuilder@leveldb@@AEAAXXZ 0000000180036ac0 f   leveldb:filter_block.obj
 0001:00035c40       ??$_Resize@V<lambda_85fee89a0047aa4cf7bf4f4eab065fc4>@@@?$vector@VSlice@leveldb@@V?$allocator@VSlice@leveldb@@@std@@@std@@AEAAX_KV<lambda_85fee89a0047aa4cf7bf4f4eab065fc4>@@@Z 0000000180036c40 f i leveldb:filter_block.obj
 0001:00035e40       _snprintf_s                0000000180036e40 f i leveldb:win_logger.obj
 0001:00035eb0       ?Logv@WinLogger@leveldb@@UEAAXPEBDPEAD@Z 0000000180036eb0 f   leveldb:win_logger.obj
 0001:00036090       ??0Block@leveldb@@QEAA@AEBUBlockContents@1@@Z 0000000180037090 f   leveldb:block.obj
 0001:00036280       ?SeekToRestartPoint@Iter@Block@leveldb@@AEAAXI@Z 0000000180037280 f i leveldb:block.obj
 0001:00036300       ?Valid@Iter@Block@leveldb@@UEBA_NXZ 0000000180037300 f i leveldb:block.obj
 0001:00036310       ?status@Iter@Block@leveldb@@UEBA?AVStatus@3@XZ 0000000180037310 f i leveldb:block.obj
 0001:00036350       ?key@Iter@Block@leveldb@@UEBA?AVSlice@3@XZ 0000000180037350 f i leveldb:block.obj
 0001:000363b0       ?value@Iter@Block@leveldb@@UEBA?AVSlice@3@XZ 00000001800373b0 f i leveldb:block.obj
 0001:00036400       ?Next@Iter@Block@leveldb@@UEAAXXZ 0000000180037400 f i leveldb:block.obj
 0001:00036440       ?Prev@Iter@Block@leveldb@@UEAAXXZ 0000000180037440 f i leveldb:block.obj
 0001:00036510       ?Seek@Iter@Block@leveldb@@UEAAXAEBVSlice@3@@Z 0000000180037510 f i leveldb:block.obj
 0001:00036770       ?SeekToFirst@Iter@Block@leveldb@@UEAAXXZ 0000000180037770 f i leveldb:block.obj
 0001:00036790       ?SeekToLast@Iter@Block@leveldb@@UEAAXXZ 0000000180037790 f i leveldb:block.obj
 0001:000367d0       ?CorruptionError@Iter@Block@leveldb@@AEAAXXZ 00000001800377d0 f i leveldb:block.obj
 0001:000368e0       ?ParseNextKey@Iter@Block@leveldb@@AEAA_NXZ 00000001800378e0 f i leveldb:block.obj
 0001:00036a20       ??_EIter@Block@leveldb@@UEAAPEAXI@Z 0000000180037a20 f i * CIL library *:* CIL module *
 0001:00036a20       ??_GIter@Block@leveldb@@UEAAPEAXI@Z 0000000180037a20 f i leveldb:block.obj
 0001:00036ad0       ?NewIterator@Block@leveldb@@QEAAPEAVIterator@2@PEBVComparator@2@@Z 0000000180037ad0 f   leveldb:block.obj
 0001:00036c20       ??1WorkingMemory@internal@snappy@@QEAA@XZ 0000000180037c20 f i snappy:snappy.obj
 0001:00036c30       ??_ESink@snappy@@UEAAPEAXI@Z 0000000180037c30 f i * CIL library *:* CIL module *
 0001:00036c30       ??_GSink@snappy@@UEAAPEAXI@Z 0000000180037c30 f i snappy:snappy.obj
 0001:00036c60       ??_GByteArraySource@snappy@@UEAAPEAXI@Z 0000000180037c60 f i snappy:snappy.obj
 0001:00036c60       ??_EByteArraySource@snappy@@UEAAPEAXI@Z 0000000180037c60 f i * CIL library *:* CIL module *
 0001:00036cb0       ??_GUncheckedByteArraySink@snappy@@UEAAPEAXI@Z 0000000180037cb0 f i snappy:snappy.obj
 0001:00036cb0       ??_EUncheckedByteArraySink@snappy@@UEAAPEAXI@Z 0000000180037cb0 f i * CIL library *:* CIL module *
 0001:00037060       ?CompressFragment@internal@snappy@@YAPEADPEBD_KPEADPEAGH@Z 0000000180038060 f   snappy:snappy.obj
 0001:00037620       ??1SnappyDecompressor@snappy@@QEAA@XZ 0000000180038620 f i snappy:snappy.obj
 0001:00037640       ?RefillTag@SnappyDecompressor@snappy@@AEAA_NXZ 0000000180038640 f   snappy:snappy.obj
 0001:00037810       ?Compress@snappy@@YA_KPEAVSource@1@PEAVSink@1@@Z 0000000180038810 f   snappy:snappy.obj
 0001:00037b90       ?RawUncompress@snappy@@YA_NPEBD_KPEAD@Z 0000000180038b90 f   snappy:snappy.obj
 0001:00037cf0       ??$DecompressAllTags@VSnappyArrayWriter@snappy@@@SnappyDecompressor@snappy@@QEAAXPEAVSnappyArrayWriter@1@@Z 0000000180038cf0 f i snappy:snappy.obj
 0001:00037f80       ??1Sink@snappy@@UEAA@XZ    0000000180038f80 f   snappy:snappy-sinksource.obj
 0001:00037f90       ?GetAppendBuffer@Sink@snappy@@UEAAPEAD_KPEAD@Z 0000000180038f90 f   snappy:snappy-sinksource.obj
 0001:00037fa0       ?GetAppendBufferVariable@Sink@snappy@@UEAAPEAD_K0PEAD0PEA_K@Z 0000000180038fa0 f   snappy:snappy-sinksource.obj
 0001:00037fc0       ?AppendAndTakeOwnership@Sink@snappy@@UEAAXPEAD_KP6AXPEAXPEBD1@Z2@Z 0000000180038fc0 f   snappy:snappy-sinksource.obj
 0001:00038000       ??1ByteArraySource@snappy@@UEAA@XZ 0000000180039000 f   snappy:snappy-sinksource.obj
 0001:00038030       ?Available@ByteArraySource@snappy@@UEBA_KXZ 0000000180039030 f   snappy:snappy-sinksource.obj
 0001:00038040       ?Peek@ByteArraySource@snappy@@UEAAPEBDPEA_K@Z 0000000180039040 f   snappy:snappy-sinksource.obj
 0001:00038050       ?Skip@ByteArraySource@snappy@@UEAAX_K@Z 0000000180039050 f   snappy:snappy-sinksource.obj
 0001:00038060       ??1UncheckedByteArraySink@snappy@@UEAA@XZ 0000000180039060 f   snappy:snappy-sinksource.obj
 0001:00038090       ?Append@UncheckedByteArraySink@snappy@@UEAAXPEBD_K@Z 0000000180039090 f   snappy:snappy-sinksource.obj
 0001:000380e0       ?GetAppendBuffer@UncheckedByteArraySink@snappy@@UEAAPEAD_KPEAD@Z 00000001800390e0 f   snappy:snappy-sinksource.obj
 0001:000380f0       ?AppendAndTakeOwnership@UncheckedByteArraySink@snappy@@UEAAXPEAD_KP6AXPEAXPEBD1@Z2@Z 00000001800390f0 f   snappy:snappy-sinksource.obj
 0001:00038160       ?GetAppendBufferVariable@UncheckedByteArraySink@snappy@@UEAAPEAD_K0PEAD0PEA_K@Z 0000000180039160 f   snappy:snappy-sinksource.obj
 0001:0003816d       __imp_load_uv_queue_work   000000018003916d f   node:node.exe
 0001:00038179       __tailMerge_node_exe       0000000180039179     node:node.exe
 0001:000381f2       __imp_load_?Global@Context@v8@@QEAA?AV?$Local@VObject@v8@@@2@XZ 00000001800391f2 f   node:node.exe
 0001:000381fe       __imp_load_?Value@External@v8@@QEBAPEAXXZ 00000001800391fe f   node:node.exe
 0001:0003820a       __imp_load_?New@External@v8@@SA?AV?$Local@VExternal@v8@@@2@PEAVIsolate@2@PEAX@Z 000000018003920a f   node:node.exe
 0001:00038216       __imp_load_?New@Signature@v8@@SA?AV?$Local@VSignature@v8@@@2@PEAVIsolate@2@V?$Local@VFunctionTemplate@v8@@@2@@Z 0000000180039216 f   node:node.exe
 0001:00038222       __imp_load_?ThrowException@Isolate@v8@@QEAA?AV?$Local@VValue@v8@@@2@V32@@Z 0000000180039222 f   node:node.exe
 0001:0003822e       __imp_load_?GetCurrentContext@Isolate@v8@@QEAA?AV?$Local@VContext@v8@@@2@XZ 000000018003922e f   node:node.exe
 0001:0003823a       __imp_load_?GetCurrent@Isolate@v8@@SAPEAV12@XZ 000000018003923a f   node:node.exe
 0001:00038246       __imp_load_?CreateHandle@HandleScope@v8@@KAPEAPEAVObject@internal@2@PEAVIsolate@42@PEAV342@@Z 0000000180039246 f   node:node.exe
 0001:00038252       __imp_load_?CreateHandle@HandleScope@v8@@CAPEAPEAVObject@internal@2@PEAVHeapObject@42@PEAV342@@Z 0000000180039252 f   node:node.exe
 0001:0003825e       __imp_load_??1HandleScope@v8@@QEAA@XZ 000000018003925e f   node:node.exe
 0001:0003826a       __imp_load_??0HandleScope@v8@@QEAA@PEAVIsolate@1@@Z 000000018003926a f   node:node.exe
 0001:00038276       __imp_load_?Set@Template@v8@@QEAAXV?$Local@VName@v8@@@2@V?$Local@VData@v8@@@2@W4PropertyAttribute@2@@Z 0000000180039276 f   node:node.exe
 0001:00038282       __imp_load_?Error@Exception@v8@@SA?AV?$Local@VValue@v8@@@2@V?$Local@VString@v8@@@2@@Z 0000000180039282 f   node:node.exe
 0001:0003828e       __imp_load_?SetClassName@FunctionTemplate@v8@@QEAAXV?$Local@VString@v8@@@2@@Z 000000018003928e f   node:node.exe
 0001:0003829a       __imp_load_?PrototypeTemplate@FunctionTemplate@v8@@QEAA?AV?$Local@VObjectTemplate@v8@@@2@XZ 000000018003929a f   node:node.exe
 0001:000382a6       __imp_load_?InstanceTemplate@FunctionTemplate@v8@@QEAA?AV?$Local@VObjectTemplate@v8@@@2@XZ 00000001800392a6 f   node:node.exe
 0001:000382b2       __imp_load_?GetFunction@FunctionTemplate@v8@@QEAA?AV?$Local@VFunction@v8@@@2@XZ 00000001800392b2 f   node:node.exe
 0001:000382be       __imp_load_?New@FunctionTemplate@v8@@SA?AV?$Local@VFunctionTemplate@v8@@@2@PEAVIsolate@2@P6AXAEBV?$FunctionCallbackInfo@VValue@v8@@@2@@ZV?$Local@VValue@v8@@@2@V?$Local@VSignature@v8@@@2@HW4ConstructorBehavior@2@W4SideEffectType@2@@Z 00000001800392be f   node:node.exe
 0001:000382ca       __imp_load_?ToLocalEmpty@V8@v8@@CAXXZ 00000001800392ca f   node:node.exe
 0001:000382d6       __imp_load_?ClearWeak@V8@v8@@CAPEAXPEAPEAVObject@internal@2@@Z 00000001800392d6 f   node:node.exe
 0001:000382e2       __imp_load_?MakeWeak@V8@v8@@CAXPEAPEAVObject@internal@2@PEAXP6AXAEBV?$WeakCallbackInfo@X@2@@ZW4WeakCallbackType@2@@Z 00000001800392e2 f   node:node.exe
 0001:000382ee       __imp_load_?DisposeGlobal@V8@v8@@CAXPEAPEAVObject@internal@2@@Z 00000001800392ee f   node:node.exe
 0001:000382fa       __imp_load_?GlobalizeReference@V8@v8@@CAPEAPEAVObject@internal@2@PEAVIsolate@42@PEAPEAV342@@Z 00000001800392fa f   node:node.exe
 0001:00038306       __imp_load_?BooleanValue@Value@v8@@QEBA_NXZ 0000000180039306 f   node:node.exe
 0001:00038312       __imp_load_?IsObject@Value@v8@@QEBA_NXZ 0000000180039312 f   node:node.exe
 0001:0003831e       __imp_load_?Escape@EscapableHandleScope@v8@@AEAAPEAPEAVObject@internal@2@PEAPEAV342@@Z 000000018003931e f   node:node.exe
 0001:0003832a       __imp_load_??0EscapableHandleScope@v8@@QEAA@PEAVIsolate@1@@Z 000000018003932a f   node:node.exe
 0001:00038336       __imp_load_?NewFromUtf8@String@v8@@SA?AV?$MaybeLocal@VString@v8@@@2@PEAVIsolate@2@PEBDW4NewStringType@2@H@Z 0000000180039336 f   node:node.exe
 0001:00038342       __imp_load_?WriteUtf8@String@v8@@QEBAHPEADHPEAHH@Z 0000000180039342 f   node:node.exe
 0001:0003834e       __imp_load_?Utf8Length@String@v8@@QEBAHXZ 000000018003934e f   node:node.exe
 0001:0003835a       __imp_load_?SlowGetAlignedPointerFromInternalField@Object@v8@@AEAAPEAXH@Z 000000018003935a f   node:node.exe
 0001:00038366       __imp_load_?SlowGetInternalField@Object@v8@@AEAA?AV?$Local@VValue@v8@@@2@H@Z 0000000180039366 f   node:node.exe
 0001:00038372       __imp_load_?SetAlignedPointerInInternalField@Object@v8@@QEAAXHPEAX@Z 0000000180039372 f   node:node.exe
 0001:0003837e       __imp_load_?SetInternalField@Object@v8@@QEAAXHV?$Local@VValue@v8@@@2@@Z 000000018003937e f   node:node.exe
 0001:0003838a       __imp_load_?InternalFieldCount@Object@v8@@QEAAHXZ 000000018003938a f   node:node.exe
 0001:00038396       __imp_load_?Has@Object@v8@@QEAA_NV?$Local@VValue@v8@@@2@@Z 0000000180039396 f   node:node.exe
 0001:000383a2       __imp_load_?Get@Object@v8@@QEAA?AV?$Local@VValue@v8@@@2@V32@@Z 00000001800393a2 f   node:node.exe
 0001:000383ae       __imp_load_?Set@Object@v8@@QEAA_NV?$Local@VValue@v8@@@2@0@Z 00000001800393ae f   node:node.exe
 0001:000383ba       __imp_load_?NewInstance@Function@v8@@QEBA?AV?$MaybeLocal@VObject@v8@@@2@V?$Local@VContext@v8@@@2@HQEAV?$Local@VValue@v8@@@2@@Z 00000001800393ba f   node:node.exe
 0001:000383c6       __imp_load_?SetInternalFieldCount@ObjectTemplate@v8@@QEAAXH@Z 00000001800393c6 f   node:node.exe
 0001:000383d2       __imp_load_?NewInstance@ObjectTemplate@v8@@QEAA?AV?$MaybeLocal@VObject@v8@@@2@V?$Local@VContext@v8@@@2@@Z 00000001800393d2 f   node:node.exe
 0001:000383de       __imp_load_?New@ObjectTemplate@v8@@SA?AV?$Local@VObjectTemplate@v8@@@2@PEAVIsolate@2@V?$Local@VFunctionTemplate@v8@@@2@@Z 00000001800393de f   node:node.exe
 0001:000383ea       __imp_load_?HasInstance@Buffer@node@@YA_NV?$Local@VValue@v8@@@v8@@@Z 00000001800393ea f   node:node.exe
 0001:000383f6       __imp_load_?HasInstance@Buffer@node@@YA_NV?$Local@VObject@v8@@@v8@@@Z 00000001800393f6 f   node:node.exe
 0001:00038402       __imp_load_?Data@Buffer@node@@YAPEADV?$Local@VObject@v8@@@v8@@@Z 0000000180039402 f   node:node.exe
 0001:0003840e       __imp_load_?Length@Buffer@node@@YA_KV?$Local@VObject@v8@@@v8@@@Z 000000018003940e f   node:node.exe
 0001:0003841a       __imp_load_?MakeCallback@node@@YA?AV?$Local@VValue@v8@@@v8@@PEAVIsolate@3@V?$Local@VObject@v8@@@3@V?$Local@VFunction@v8@@@3@HPEAV23@@Z 000000018003941a f   node:node.exe
 0001:00038426       __imp_load_uv_default_loop 0000000180039426 f   node:node.exe
 0001:00038432       __imp_load_?ToObject@Value@v8@@QEBA?AV?$Local@VObject@v8@@@2@XZ 0000000180039432 f   node:node.exe
 0001:0003843e       __imp_load_?ToString@Value@v8@@QEBA?AV?$Local@VString@v8@@@2@XZ 000000018003943e f   node:node.exe
 0001:0003844a       __imp_load_??1EscapableHandleScope@v8@@QEAA@XZ 000000018003944a f   node:node.exe
 0001:00038456       __imp_load_?New@Object@v8@@SA?AV?$Local@VObject@v8@@@2@PEAVIsolate@2@@Z 0000000180039456 f   node:node.exe
 0001:00038462       __imp_load_?Length@Array@v8@@QEBAIXZ 0000000180039462 f   node:node.exe
 0001:0003846e       __imp_load_?StrictEquals@Value@v8@@QEBA_NV?$Local@VValue@v8@@@2@@Z 000000018003946e f   node:node.exe
 0001:0003847a       __imp_load_?Uint32Value@Value@v8@@QEBAIXZ 000000018003947a f   node:node.exe
 0001:00038486       __imp_load_?IsNumber@Value@v8@@QEBA_NXZ 0000000180039486 f   node:node.exe
 0001:00038492       __imp_load_?IsArray@Value@v8@@QEBA_NXZ 0000000180039492 f   node:node.exe
 0001:0003849e       __imp_load_?IsFunction@Value@v8@@QEBA_NXZ 000000018003949e f   node:node.exe
 0001:000384aa       __imp_load_?HasCaught@TryCatch@v8@@QEBA_NXZ 00000001800394aa f   node:node.exe
 0001:000384b6       __imp_load_??1TryCatch@v8@@QEAA@XZ 00000001800394b6 f   node:node.exe
 0001:000384c2       __imp_load_??0TryCatch@v8@@QEAA@PEAVIsolate@1@@Z 00000001800394c2 f   node:node.exe
 0001:000384ce       __imp_load_?Length@String@v8@@QEBAHXZ 00000001800394ce f   node:node.exe
 0001:000384da       __imp_load_?New@Number@v8@@SA?AV?$Local@VNumber@v8@@@2@PEAVIsolate@2@N@Z 00000001800394da f   node:node.exe
 0001:000384e6       __imp_load_?Get@Object@v8@@QEAA?AV?$Local@VValue@v8@@@2@I@Z 00000001800394e6 f   node:node.exe
 0001:000384f2       __imp_load_?Copy@Buffer@node@@YA?AV?$MaybeLocal@VObject@v8@@@v8@@PEAVIsolate@4@PEBD_K@Z 00000001800394f2 f   node:node.exe
 0001:000384fe       __imp_load_?Value@Integer@v8@@QEBA_JXZ 00000001800394fe f   node:node.exe
 0001:0003850a       __imp_load_?Int32Value@Value@v8@@QEBAHXZ 000000018003950a f   node:node.exe
 0001:00038516       __imp_load_?New@Integer@v8@@SA?AV?$Local@VInteger@v8@@@2@PEAVIsolate@2@H@Z 0000000180039516 f   node:node.exe
 0001:00038522       __imp_load_?New@Array@v8@@SA?AV?$Local@VArray@v8@@@2@PEAVIsolate@2@H@Z 0000000180039522 f   node:node.exe
 0001:0003852e       __imp_load_?ToInteger@Value@v8@@QEBA?AV?$MaybeLocal@VInteger@v8@@@2@V?$Local@VContext@v8@@@2@@Z 000000018003952e f   node:node.exe
 0001:0003853a       __imp_load_node_module_register 000000018003953a f   node:node.exe
 0001:00038548       ??0bad_alloc@std@@QEAA@AEBV01@@Z 0000000180039548 f i libcpmt:xthrow.obj
 0001:00038588       ??0bad_alloc@std@@QEAA@XZ  0000000180039588 f i libcpmt:xthrow.obj
 0001:000385a8       ??0exception@std@@QEAA@AEBV01@@Z 00000001800395a8 f i libcpmt:xthrow.obj
 0001:000385e0       ??0length_error@std@@QEAA@AEBV01@@Z 00000001800395e0 f i libcpmt:xthrow.obj
 0001:00038620       ??0length_error@std@@QEAA@PEBD@Z 0000000180039620 f i libcpmt:xthrow.obj
 0001:0003866c       ??0logic_error@std@@QEAA@AEBV01@@Z 000000018003966c f i libcpmt:xthrow.obj
 0001:000386ac       ??1bad_array_new_length@std@@UEAA@XZ 00000001800396ac f i LIBCMT:throw_bad_alloc.obj
 0001:000386ac       ??1bad_alloc@std@@UEAA@XZ  00000001800396ac f i libcpmt:xthrow.obj
 0001:000386ac       ??1bad_exception@std@@UEAA@XZ 00000001800396ac f i libvcruntime:frame.obj
 0001:000386ac       ??1length_error@std@@UEAA@XZ 00000001800396ac f i libcpmt:xthrow.obj
 0001:000386c0       ??_Gbad_alloc@std@@UEAAPEAXI@Z 00000001800396c0 f i libcpmt:xthrow.obj
 0001:000386c0       ??_Gbad_array_new_length@std@@UEAAPEAXI@Z 00000001800396c0 f i LIBCMT:throw_bad_alloc.obj
 0001:000386c0       ??_Eexception@std@@UEAAPEAXI@Z 00000001800396c0 f i libcpmt:xthrow.obj
 0001:000386c0       ??_Ebad_array_new_length@std@@UEAAPEAXI@Z 00000001800396c0 f i LIBCMT:throw_bad_alloc.obj
 0001:000386c0       ??_Gexception@std@@UEAAPEAXI@Z 00000001800396c0 f i libcpmt:xthrow.obj
 0001:000386c0       ??_Ebad_exception@std@@UEAAPEAXI@Z 00000001800396c0 f i libvcruntime:frame.obj
 0001:000386c0       ??_Elength_error@std@@UEAAPEAXI@Z 00000001800396c0 f i libcpmt:xthrow.obj
 0001:000386c0       ??_Gbad_exception@std@@UEAAPEAXI@Z 00000001800396c0 f i libvcruntime:frame.obj
 0001:000386c0       ??_Ebad_alloc@std@@UEAAPEAXI@Z 00000001800396c0 f i libcpmt:xthrow.obj
 0001:000386c0       ??_Elogic_error@std@@UEAAPEAXI@Z 00000001800396c0 f i libcpmt:xthrow.obj
 0001:000386c0       ??_Glength_error@std@@UEAAPEAXI@Z 00000001800396c0 f i libcpmt:xthrow.obj
 0001:000386c0       ??_Glogic_error@std@@UEAAPEAXI@Z 00000001800396c0 f i libcpmt:xthrow.obj
 0001:00038704       ?_Xlength_error@std@@YAXPEBD@Z 0000000180039704 f   libcpmt:xthrow.obj
 0001:00038728       ?what@exception@std@@UEBAPEBDXZ 0000000180039728 f i libcpmt:xthrow.obj
 0001:00038750       __security_check_cookie    0000000180039750 f   LIBCMT:amdsecgs.obj
 0001:00038774       ??_V@YAXPEAX@Z             0000000180039774 f   LIBCMT:delete_array.obj
 0001:00038774       ??3@YAXPEAX_K@Z            0000000180039774 f   LIBCMT:delete_scalar_size.obj
 0001:0003877c       ??2@YAPEAX_K@Z             000000018003977c f   LIBCMT:new_scalar.obj
 0001:000387b8       __scrt_acquire_startup_lock 00000001800397b8 f   LIBCMT:utility.obj
 0001:000387f4       __scrt_dllmain_after_initialize_c 00000001800397f4 f   LIBCMT:utility.obj
 0001:00038828       __scrt_dllmain_before_initialize_c 0000000180039828 f   LIBCMT:utility.obj
 0001:00038840       __scrt_dllmain_crt_thread_attach 0000000180039840 f   LIBCMT:utility.obj
 0001:00038868       __scrt_dllmain_crt_thread_detach 0000000180039868 f   LIBCMT:utility.obj
 0001:00038880       __scrt_dllmain_exception_filter 0000000180039880 f   LIBCMT:utility.obj
 0001:000388e0       __scrt_dllmain_uninitialize_c 00000001800398e0 f   LIBCMT:utility.obj
 0001:00038910       __scrt_dllmain_uninitialize_critical 0000000180039910 f   LIBCMT:utility.obj
 0001:00038924       __scrt_initialize_crt      0000000180039924 f   LIBCMT:utility.obj
 0001:00038970       __scrt_initialize_onexit_tables 0000000180039970 f   LIBCMT:utility.obj
 0001:00038a48       __scrt_is_nonwritable_in_current_image 0000000180039a48 f   LIBCMT:utility.obj
 0001:00038ae4       __scrt_release_startup_lock 0000000180039ae4 f   LIBCMT:utility.obj
 0001:00038b08       __scrt_uninitialize_crt    0000000180039b08 f   LIBCMT:utility.obj
 0001:00038b34       _onexit                    0000000180039b34 f   LIBCMT:utility.obj
 0001:00038b84       atexit                     0000000180039b84 f   LIBCMT:utility.obj
 0001:00038b9c       ??_U@YAPEAX_K@Z            0000000180039b9c f   LIBCMT:new_array.obj
 0001:00038ed4       _DllMainCRTStartup         0000000180039ed4 f   LIBCMT:dll_dllmain.obj
 0001:00038f14       ??_M@YAXPEAX_K1P6AX0@Z@Z   0000000180039f14 f   LIBCMT:ehvecdtr.obj
 0001:00038f80       ?__ArrayUnwind@@YAXPEAX_K1P6AX0@Z@Z 0000000180039f80 f   LIBCMT:ehvecdtr.obj
 0001:00038fe4       ??_L@YAXPEAX_K1P6AX0@Z2@Z  0000000180039fe4 f   LIBCMT:ehvecctr.obj
 0001:00039054       ??_V@YAXPEAX_K@Z           000000018003a054 f   LIBCMT:delete_array_size.obj
 0001:000391e4       _Init_thread_abort         000000018003a1e4 f   LIBCMT:thread_safe_statics.obj
 0001:00039214       _Init_thread_footer        000000018003a214 f   LIBCMT:thread_safe_statics.obj
 0001:00039274       _Init_thread_header        000000018003a274 f   LIBCMT:thread_safe_statics.obj
 0001:000392dc       _Init_thread_notify        000000018003a2dc f   LIBCMT:thread_safe_statics.obj
 0001:0003932c       _Init_thread_wait          000000018003a32c f   LIBCMT:thread_safe_statics.obj
 0001:000393a4       ??_Gtype_info@@UEAAPEAXI@Z 000000018003a3a4 f i LIBCMT:std_type_info_static.obj
 0001:000393a4       ??_Etype_info@@UEAAPEAXI@Z 000000018003a3a4 f i LIBCMT:std_type_info_static.obj
 0001:000393d0       __raise_securityfailure    000000018003a3d0 f   LIBCMT:gs_report.obj
 0001:00039404       __report_gsfailure         000000018003a404 f   LIBCMT:gs_report.obj
 0001:000394d8       __report_rangecheckfailure 000000018003a4d8 f   LIBCMT:gs_report.obj
 0001:000394ec       __report_securityfailure   000000018003a4ec f   LIBCMT:gs_report.obj
 0001:0003966c       ??3@YAXPEAX@Z              000000018003a66c f   LIBCMT:delete_scalar.obj
 0001:00039674       ??0bad_array_new_length@std@@QEAA@AEBV01@@Z 000000018003a674 f i LIBCMT:throw_bad_alloc.obj
 0001:000396b4       ??0bad_array_new_length@std@@QEAA@XZ 000000018003a6b4 f i LIBCMT:throw_bad_alloc.obj
 0001:000396d4       ?__scrt_throw_std_bad_alloc@@YAXXZ 000000018003a6d4 f   LIBCMT:throw_bad_alloc.obj
 0001:000396f4       ?__scrt_throw_std_bad_array_new_length@@YAXXZ 000000018003a6f4 f   LIBCMT:throw_bad_alloc.obj
 0001:00039714       __isa_available_init       000000018003a714 f   LIBCMT:cpu_disp.obj
 0001:000398d0       _get_startup_argv_mode     000000018003a8d0 f   LIBCMT:argv_mode.obj
 0001:000398d0       DllMain                    000000018003a8d0 f   LIBCMT:dll_dllmain_stub.obj
 0001:000398d8       __scrt_is_ucrt_dll_in_use  000000018003a8d8 f   LIBCMT:ucrt_detection.obj
 0001:000398e4       __crt_debugger_hook        000000018003a8e4 f   LIBCMT:utility_desktop.obj
 0001:000398ec       __scrt_fastfail            000000018003a8ec f   LIBCMT:utility_desktop.obj
 0001:00039a38       __security_init_cookie     000000018003aa38 f   LIBCMT:gs_support.obj
 0001:00039ae4       ?__scrt_initialize_type_info@@YAXXZ 000000018003aae4 f   LIBCMT:tncleanup.obj
 0001:00039af4       ?__scrt_uninitialize_type_info@@YAXXZ 000000018003aaf4 f   LIBCMT:tncleanup.obj
 0001:00039b00       __local_stdio_scanf_options 000000018003ab00 f i LIBCMT:default_local_stdio_options.obj
 0001:00039b08       __scrt_initialize_default_local_stdio_options 000000018003ab08 f   LIBCMT:default_local_stdio_options.obj
 0001:00039b24       __scrt_get_dyn_tls_init_callback 000000018003ab24 f   LIBCMT:dyn_tls_init.obj
 0001:00039b2c       _RTC_Initialize            000000018003ab2c f   LIBCMT:initsect.obj
 0001:00039b68       _RTC_Terminate             000000018003ab68 f   LIBCMT:initsect.obj
 0001:00039bb0       ??$_CallSETranslator@V__FrameHandler3@@@@YAHPEAUEHExceptionRecord@@PEA_KPEAU_CONTEXT@@PEAU_xDISPATCHER_CONTEXT@@PEBU_s_FuncInfo@@K1@Z 000000018003abb0 f i libvcruntime:risctrnsctrl.obj
 0001:00039c04       ?CatchTryBlock@__FrameHandler3@@SAPEBU_s_TryBlockMapEntry@@PEBU_s_FuncInfo@@H@Z 000000018003ac04 f   libvcruntime:risctrnsctrl.obj
 0001:00039c5c       ?ExecutionInCatch@__FrameHandler3@@SA_NPEAU_xDISPATCHER_CONTEXT@@PEBU_s_FuncInfo@@@Z 000000018003ac5c f   libvcruntime:risctrnsctrl.obj
 0001:00039c88       ?FrameUnwindToEmptyState@__FrameHandler3@@SAXPEA_KPEAU_xDISPATCHER_CONTEXT@@PEBU_s_FuncInfo@@@Z 000000018003ac88 f   libvcruntime:risctrnsctrl.obj
 0001:00039cec       ?GetEstablisherFrame@__FrameHandler3@@SAPEA_KPEA_KPEAU_xDISPATCHER_CONTEXT@@PEBU_s_FuncInfo@@0@Z 000000018003acec f   libvcruntime:risctrnsctrl.obj
 0001:00039db8       ?GetRangeOfTrysToCheck@__FrameHandler3@@SA?AU?$pair@Viterator@TryBlockMap@__FrameHandler3@@V123@@std@@AEAVTryBlockMap@1@HH@Z 000000018003adb8 f   libvcruntime:risctrnsctrl.obj
 0001:00039f14       ?UnwindNestedFrames@__FrameHandler3@@SAXPEA_KPEAUEHExceptionRecord@@PEAU_CONTEXT@@0PEAXPEBU_s_FuncInfo@@HHPEBU_s_HandlerType@@PEAU_xDISPATCHER_CONTEXT@@E@Z 000000018003af14 f   libvcruntime:risctrnsctrl.obj
 0001:0003a038       _CreateFrameInfo           000000018003b038 f   libvcruntime:risctrnsctrl.obj
 0001:0003a074       _FindAndUnlinkFrame        000000018003b074 f   libvcruntime:risctrnsctrl.obj
 0001:0003a0c8       _GetImageBase              000000018003b0c8 f   libvcruntime:risctrnsctrl.obj
 0001:0003a0dc       _GetThrowImageBase         000000018003b0dc f   libvcruntime:risctrnsctrl.obj
 0001:0003a0f0       _SetImageBase              000000018003b0f0 f   libvcruntime:risctrnsctrl.obj
 0001:0003a108       _SetThrowImageBase         000000018003b108 f   libvcruntime:risctrnsctrl.obj
 0001:0003a120       __CxxFrameHandler3         000000018003b120 f   libvcruntime:risctrnsctrl.obj
 0001:0003a1a0       _purecall                  000000018003b1a0 f   libvcruntime:purevirt.obj
 0001:0003a1d0       strrchr                    000000018003b1d0 f   libvcruntime:strrchr.obj
 0001:0003a31c       __std_exception_copy       000000018003b31c f   libvcruntime:std_exception.obj
 0001:0003a3ac       __std_exception_destroy    000000018003b3ac f   libvcruntime:std_exception.obj
 0001:0003a3d4       _CxxThrowException         000000018003b3d4 f   libvcruntime:throw.obj
 0001:0003a494       __vcrt_initialize          000000018003b494 f   libvcruntime:initialization.obj
 0001:0003a4c8       __vcrt_thread_attach       000000018003b4c8 f   libvcruntime:initialization.obj
 0001:0003a4dc       __vcrt_thread_detach       000000018003b4dc f   libvcruntime:initialization.obj
 0001:0003a4f0       __vcrt_uninitialize        000000018003b4f0 f   libvcruntime:initialization.obj
 0001:0003a510       __vcrt_uninitialize_critical 000000018003b510 f   libvcruntime:initialization.obj
 0001:0003a520       __C_specific_handler       000000018003b520 f   libvcruntime:riscchandler.obj
 0001:0003a72c       __DestructExceptionObject  000000018003b72c f   libvcruntime:ehhelpers.obj
 0001:0003a7a0       ?_CallMemberFunction0@@YAXQEAX0@Z 000000018003b7a0 f i libvcruntime:ehhelpers.obj
 0001:0003a7a4       _IsExceptionObjectToBeDestroyed 000000018003b7a4 f   libvcruntime:ehhelpers.obj
 0001:0003a7d4       __AdjustPointer            000000018003b7d4 f   libvcruntime:ehhelpers.obj
 0001:0003a7f8       __FrameUnwindFilter        000000018003b7f8 f   libvcruntime:ehhelpers.obj
 0001:0003a844       __std_terminate            000000018003b844 f   libvcruntime:ehhelpers.obj
 0001:0003a860       memset_repmovs             000000018003b860 f   libvcruntime:memset.obj
 0001:0003a880       memset                     000000018003b880 f   libvcruntime:memset.obj
 0001:0003aa10       __std_type_info_compare    000000018003ba10 f   libvcruntime:std_type_info.obj
 0001:0003aa38       __std_type_info_destroy_list 000000018003ba38 f   libvcruntime:std_type_info.obj
 0001:0003aa64       __vcrt_freefls             000000018003ba64 f   libvcruntime:per_thread_data.obj
 0001:0003aa84       __vcrt_freeptd             000000018003ba84 f   libvcruntime:per_thread_data.obj
 0001:0003aad4       __vcrt_getptd              000000018003bad4 f   libvcruntime:per_thread_data.obj
 0001:0003aaf0       __vcrt_getptd_noexit       000000018003baf0 f   libvcruntime:per_thread_data.obj
 0001:0003abbc       __vcrt_initialize_ptd      000000018003bbbc f   libvcruntime:per_thread_data.obj
 0001:0003ac10       __vcrt_uninitialize_ptd    000000018003bc10 f   libvcruntime:per_thread_data.obj
 0001:0003ac34       ?GetCurrentState@__FrameHandler3@@SAHPEA_KPEAU_xDISPATCHER_CONTEXT@@PEBU_s_FuncInfo@@@Z 000000018003bc34 f   libvcruntime:ehstate.obj
 0001:0003ac5c       ?GetUnwindTryBlock@__FrameHandler3@@SAHPEA_KPEAU_xDISPATCHER_CONTEXT@@PEBU_s_FuncInfo@@@Z 000000018003bc5c f   libvcruntime:ehstate.obj
 0001:0003ac88       ?SetState@__FrameHandler3@@SAXPEA_KPEBU_s_FuncInfo@@H@Z 000000018003bc88 f   libvcruntime:ehstate.obj
 0001:0003ac94       ?SetUnwindTryBlock@__FrameHandler3@@SAXPEA_KPEAU_xDISPATCHER_CONTEXT@@PEBU_s_FuncInfo@@H@Z 000000018003bc94 f   libvcruntime:ehstate.obj
 0001:0003acd0       ?StateFromControlPc@__FrameHandler3@@SAHPEBU_s_FuncInfo@@PEAU_xDISPATCHER_CONTEXT@@@Z 000000018003bcd0 f   libvcruntime:ehstate.obj
 0001:0003acd8       ?StateFromIp@__FrameHandler3@@SAHPEBU_s_FuncInfo@@PEAU_xDISPATCHER_CONTEXT@@_K@Z 000000018003bcd8 f   libvcruntime:ehstate.obj
 0001:0003b764       ??$TypeMatchHelper@V__FrameHandler3@@@@YAHPEBU_s_HandlerType@@PEBU_s_CatchableType@@PEBU_s_ThrowInfo@@@Z 000000018003c764 f i libvcruntime:frame.obj
 0001:0003b8a8       ??$__InternalCxxFrameHandler@V__FrameHandler3@@@@YA?AW4_EXCEPTION_DISPOSITION@@PEAUEHExceptionRecord@@PEA_KPEAU_CONTEXT@@PEAU_xDISPATCHER_CONTEXT@@PEBU_s_FuncInfo@@H1E@Z 000000018003c8a8 f i libvcruntime:frame.obj
 0001:0003baf0       ??0bad_exception@std@@QEAA@AEBV01@@Z 000000018003caf0 f i libvcruntime:frame.obj
 0001:0003bb30       ??0bad_exception@std@@QEAA@XZ 000000018003cb30 f i libvcruntime:frame.obj
 0001:0003bb50       ?CxxCallCatchBlock@__FrameHandler3@@SAPEAXPEAU_EXCEPTION_RECORD@@@Z 000000018003cb50 f   libvcruntime:frame.obj
 0001:0003bdc4       ?FrameUnwindToState@__FrameHandler3@@SAXPEA_KPEAU_xDISPATCHER_CONTEXT@@PEBU_s_FuncInfo@@H@Z 000000018003cdc4 f   libvcruntime:frame.obj
 0001:0003bf58       ?GetHandlerSearchState@__FrameHandler3@@SAHPEA_KPEAU_xDISPATCHER_CONTEXT@@PEBU_s_FuncInfo@@@Z 000000018003cf58 f i libvcruntime:frame.obj
 0001:0003c15c       ?_CallMemberFunction1@@YAXQEAX00@Z 000000018003d15c f i libvcruntime:frame.obj
 0001:0003c168       ?_CallMemberFunction2@@YAXQEAX00H@Z 000000018003d168 f i libvcruntime:frame.obj
 0001:0003c178       __vcrt_initialize_pure_virtual_call_handler 000000018003d178 f   libvcruntime:purevirt_data.obj
 0001:0003c188       __vcrt_initialize_locks    000000018003d188 f   libvcruntime:locks.obj
 0001:0003c1d0       __vcrt_uninitialize_locks  000000018003d1d0 f   libvcruntime:locks.obj
 0001:0003c3e0       __vcrt_FlsAlloc            000000018003d3e0 f   libvcruntime:winapi_downlevel.obj
 0001:0003c428       __vcrt_FlsFree             000000018003d428 f   libvcruntime:winapi_downlevel.obj
 0001:0003c470       __vcrt_FlsGetValue         000000018003d470 f   libvcruntime:winapi_downlevel.obj
 0001:0003c4b8       __vcrt_FlsSetValue         000000018003d4b8 f   libvcruntime:winapi_downlevel.obj
 0001:0003c50c       __vcrt_InitializeCriticalSectionEx 000000018003d50c f   libvcruntime:winapi_downlevel.obj
 0001:0003c570       __vcrt_initialize_winapi_thunks 000000018003d570 f   libvcruntime:winapi_downlevel.obj
 0001:0003c5a0       __vcrt_uninitialize_winapi_thunks 000000018003d5a0 f   libvcruntime:winapi_downlevel.obj
 0001:0003c5f0       _NLG_Notify                000000018003d5f0 f   libvcruntime:notify.obj
 0001:0003c610       __NLG_Dispatch2            000000018003d610 f   libvcruntime:notify.obj
 0001:0003c620       __NLG_Return2              000000018003d620 f   libvcruntime:notify.obj
 0001:0003c624       __except_validate_context_record 000000018003d624 f   libvcruntime:jbcxrval.obj
 0001:0003c670       _CallSettingFrame          000000018003d670 f   libvcruntime:handlers.obj
 0001:0003c6c0       _CallSettingFrameEncoded   000000018003d6c0 f   libvcruntime:handlers.obj
 0001:0003c720       memcpy_repmovs             000000018003d720 f   libvcruntime:memcpy.obj
 0001:0003c740       memcpy                     000000018003d740 f   libvcruntime:memcpy.obj
 0001:0003c740       memmove                    000000018003d740 f   libvcruntime:memcpy.obj
 0001:0003d54c       ??$ftprintf@PEAU_iobuf@@PEB_WAEBQEB_WAEBQEB_WAEBI@?$__crt_char_traits@_W@@SAH$$QEAPEAU_iobuf@@$$QEAPEB_WAEBQEB_W2AEBI@Z 000000018003e54c f i libucrt:assert.obj
 0001:0003d574       _wassert                   000000018003e574 f   libucrt:assert.obj
 0001:0003d5f8       fwprintf                   000000018003e5f8 f i libucrt:assert.obj
 0001:0003d63c       swprintf                   000000018003e63c f i libucrt:assert.obj
 0001:0003d690       __acrt_call_reportfault    000000018003e690 f   libucrt:invalid_parameter.obj
 0001:0003d7ec       __acrt_initialize_invalid_parameter_handler 000000018003e7ec f   libucrt:invalid_parameter.obj
 0001:0003d7f4       _invalid_parameter         000000018003e7f4 f   libucrt:invalid_parameter.obj
 0001:0003d8a4       _invalid_parameter_noinfo  000000018003e8a4 f   libucrt:invalid_parameter.obj
 0001:0003d8c4       _invalid_parameter_noinfo_noreturn 000000018003e8c4 f   libucrt:invalid_parameter.obj
 0001:0003d8f4       _invoke_watson             000000018003e8f4 f   libucrt:invalid_parameter.obj
 0001:0003d93c       free                       000000018003e93c f   libucrt:free.obj
 0001:0003d950       malloc                     000000018003e950 f   libucrt:malloc.obj
 0001:0003d958       ??0_LocaleUpdate@@QEAA@QEAU__crt_locale_pointers@@@Z 000000018003e958 f i libucrt:stricmp.obj
 0001:0003d9e8       __ascii_stricmp            000000018003e9e8 f   libucrt:stricmp.obj
 0001:0003da28       _stricmp                   000000018003ea28 f   libucrt:stricmp.obj
 0001:0003da70       _stricmp_l                 000000018003ea70 f   libucrt:stricmp.obj
 0001:0003e110       ??$ensure_buffer_is_big_enough@D@formatting_buffer@__crt_stdio_output@@QEAA_N_K@Z 000000018003f110 f i libucrt:output.obj
 0001:0003e1b8       ??$ensure_buffer_is_big_enough@_W@formatting_buffer@__crt_stdio_output@@QEAA_N_K@Z 000000018003f1b8 f i libucrt:output.obj
 0001:0003e264       ??$is_wide_character_specifier@_W@__crt_stdio_output@@YA_N_K_WW4length_modifier@0@@Z 000000018003f264 f i libucrt:output.obj
 0001:0003e2a4       ??$type_case_integer_parse_into_buffer@I@?$output_processor@DV?$string_output_adapter@D@__crt_stdio_output@@V?$standard_base@DV?$string_output_adapter@D@__crt_stdio_output@@@2@@__crt_stdio_output@@AEAAXII_N@Z 000000018003f2a4 f i libucrt:output.obj
 0001:0003e2a4       ??$type_case_integer_parse_into_buffer@I@?$output_processor@DV?$stream_output_adapter@D@__crt_stdio_output@@V?$standard_base@DV?$stream_output_adapter@D@__crt_stdio_output@@@2@@__crt_stdio_output@@AEAAXII_N@Z 000000018003f2a4 f i libucrt:output.obj
 0001:0003e2a4       ??$type_case_integer_parse_into_buffer@I@?$output_processor@DV?$string_output_adapter@D@__crt_stdio_output@@V?$format_validation_base@DV?$string_output_adapter@D@__crt_stdio_output@@@2@@__crt_stdio_output@@AEAAXII_N@Z 000000018003f2a4 f i libucrt:output.obj
 0001:0003e32c       ??$type_case_integer_parse_into_buffer@I@?$output_processor@_WV?$stream_output_adapter@_W@__crt_stdio_output@@V?$standard_base@_WV?$stream_output_adapter@_W@__crt_stdio_output@@@2@@__crt_stdio_output@@AEAAXII_N@Z 000000018003f32c f i libucrt:output.obj
 0001:0003e32c       ??$type_case_integer_parse_into_buffer@I@?$output_processor@_WV?$string_output_adapter@_W@__crt_stdio_output@@V?$standard_base@_WV?$string_output_adapter@_W@__crt_stdio_output@@@2@@__crt_stdio_output@@AEAAXII_N@Z 000000018003f32c f i libucrt:output.obj
 0001:0003e3c8       ??$type_case_integer_parse_into_buffer@_K@?$output_processor@DV?$stream_output_adapter@D@__crt_stdio_output@@V?$standard_base@DV?$stream_output_adapter@D@__crt_stdio_output@@@2@@__crt_stdio_output@@AEAAX_KI_N@Z 000000018003f3c8 f i libucrt:output.obj
 0001:0003e3c8       ??$type_case_integer_parse_into_buffer@_K@?$output_processor@DV?$string_output_adapter@D@__crt_stdio_output@@V?$standard_base@DV?$string_output_adapter@D@__crt_stdio_output@@@2@@__crt_stdio_output@@AEAAX_KI_N@Z 000000018003f3c8 f i libucrt:output.obj
 0001:0003e3c8       ??$type_case_integer_parse_into_buffer@_K@?$output_processor@DV?$string_output_adapter@D@__crt_stdio_output@@V?$format_validation_base@DV?$string_output_adapter@D@__crt_stdio_output@@@2@@__crt_stdio_output@@AEAAX_KI_N@Z 000000018003f3c8 f i libucrt:output.obj
 0001:0003e458       ??$type_case_integer_parse_into_buffer@_K@?$output_processor@_WV?$string_output_adapter@_W@__crt_stdio_output@@V?$standard_base@_WV?$string_output_adapter@_W@__crt_stdio_output@@@2@@__crt_stdio_output@@AEAAX_KI_N@Z 000000018003f458 f i libucrt:output.obj
 0001:0003e458       ??$type_case_integer_parse_into_buffer@_K@?$output_processor@_WV?$stream_output_adapter@_W@__crt_stdio_output@@V?$standard_base@_WV?$stream_output_adapter@_W@__crt_stdio_output@@@2@@__crt_stdio_output@@AEAAX_KI_N@Z 000000018003f458 f i libucrt:output.obj
 0001:0003e4f8       ??$write_multiple_characters@V?$stream_output_adapter@D@__crt_stdio_output@@D@__crt_stdio_output@@YAXAEBV?$stream_output_adapter@D@0@DHQEAH@Z 000000018003f4f8 f i libucrt:output.obj
 0001:0003e57c       ??$write_multiple_characters@V?$stream_output_adapter@_W@__crt_stdio_output@@D@__crt_stdio_output@@YAXAEBV?$stream_output_adapter@_W@0@DHQEAH@Z 000000018003f57c f i libucrt:output.obj
 0001:0003e608       ??$write_multiple_characters@V?$string_output_adapter@D@__crt_stdio_output@@D@__crt_stdio_output@@YAXAEBV?$string_output_adapter@D@0@DHQEAH@Z 000000018003f608 f i libucrt:output.obj
 0001:0003e664       ??$write_multiple_characters@V?$string_output_adapter@_W@__crt_stdio_output@@D@__crt_stdio_output@@YAXAEBV?$string_output_adapter@_W@0@DHQEAH@Z 000000018003f664 f i libucrt:output.obj
 0001:0003e938       ?force_decimal_point@__crt_stdio_output@@YAXPEADQEAU__crt_locale_pointers@@@Z 000000018003f938 f i libucrt:output.obj
 0001:0003e9a8       ?parse_int_from_format_string@?$output_processor@DV?$string_output_adapter@D@__crt_stdio_output@@V?$standard_base@DV?$string_output_adapter@D@__crt_stdio_output@@@2@@__crt_stdio_output@@AEAA_NQEAH@Z 000000018003f9a8 f i libucrt:output.obj
 0001:0003e9a8       ?parse_int_from_format_string@?$output_processor@DV?$string_output_adapter@D@__crt_stdio_output@@V?$format_validation_base@DV?$string_output_adapter@D@__crt_stdio_output@@@2@@__crt_stdio_output@@AEAA_NQEAH@Z 000000018003f9a8 f i libucrt:output.obj
 0001:0003e9a8       ?parse_int_from_format_string@?$output_processor@DV?$stream_output_adapter@D@__crt_stdio_output@@V?$standard_base@DV?$stream_output_adapter@D@__crt_stdio_output@@@2@@__crt_stdio_output@@AEAA_NQEAH@Z 000000018003f9a8 f i libucrt:output.obj
 0001:0003ea4c       ?parse_int_from_format_string@?$output_processor@_WV?$stream_output_adapter@_W@__crt_stdio_output@@V?$standard_base@_WV?$stream_output_adapter@_W@__crt_stdio_output@@@2@@__crt_stdio_output@@AEAA_NQEAH@Z 000000018003fa4c f i libucrt:output.obj
 0001:0003ea4c       ?parse_int_from_format_string@?$output_processor@_WV?$string_output_adapter@_W@__crt_stdio_output@@V?$standard_base@_WV?$string_output_adapter@_W@__crt_stdio_output@@@2@@__crt_stdio_output@@AEAA_NQEAH@Z 000000018003fa4c f i libucrt:output.obj
 0001:0003eaf0       ?process@?$output_processor@DV?$stream_output_adapter@D@__crt_stdio_output@@V?$standard_base@DV?$stream_output_adapter@D@__crt_stdio_output@@@2@@__crt_stdio_output@@QEAAHXZ 000000018003faf0 f i libucrt:output.obj
 0001:0003ed04       ?process@?$output_processor@DV?$string_output_adapter@D@__crt_stdio_output@@V?$format_validation_base@DV?$string_output_adapter@D@__crt_stdio_output@@@2@@__crt_stdio_output@@QEAAHXZ 000000018003fd04 f i libucrt:output.obj
 0001:0003ef20       ?process@?$output_processor@DV?$string_output_adapter@D@__crt_stdio_output@@V?$standard_base@DV?$string_output_adapter@D@__crt_stdio_output@@@2@@__crt_stdio_output@@QEAAHXZ 000000018003ff20 f i libucrt:output.obj
 0001:0003f128       ?process@?$output_processor@_WV?$stream_output_adapter@_W@__crt_stdio_output@@V?$standard_base@_WV?$stream_output_adapter@_W@__crt_stdio_output@@@2@@__crt_stdio_output@@QEAAHXZ 0000000180040128 f i libucrt:output.obj
 0001:0003f398       ?process@?$output_processor@_WV?$string_output_adapter@_W@__crt_stdio_output@@V?$standard_base@_WV?$string_output_adapter@_W@__crt_stdio_output@@@2@@__crt_stdio_output@@QEAAHXZ 0000000180040398 f i libucrt:output.obj
 0001:0003f600       ?state_case_normal@?$output_processor@DV?$stream_output_adapter@D@__crt_stdio_output@@V?$standard_base@DV?$stream_output_adapter@D@__crt_stdio_output@@@2@@__crt_stdio_output@@AEAA_NXZ 0000000180040600 f i libucrt:output.obj
 0001:0003f670       ?state_case_normal@?$output_processor@DV?$string_output_adapter@D@__crt_stdio_output@@V?$format_validation_base@DV?$string_output_adapter@D@__crt_stdio_output@@@2@@__crt_stdio_output@@AEAA_NXZ 0000000180040670 f i libucrt:output.obj
 0001:0003f670       ?state_case_normal@?$output_processor@DV?$string_output_adapter@D@__crt_stdio_output@@V?$standard_base@DV?$string_output_adapter@D@__crt_stdio_output@@@2@@__crt_stdio_output@@AEAA_NXZ 0000000180040670 f i libucrt:output.obj
 0001:0003f6e4       ?state_case_normal_tchar@?$output_processor@DV?$stream_output_adapter@D@__crt_stdio_output@@V?$standard_base@DV?$stream_output_adapter@D@__crt_stdio_output@@@2@@__crt_stdio_output@@AEAA_ND@Z 00000001800406e4 f i libucrt:output.obj
 0001:0003f780       ?state_case_normal_tchar@?$output_processor@DV?$string_output_adapter@D@__crt_stdio_output@@V?$standard_base@DV?$string_output_adapter@D@__crt_stdio_output@@@2@@__crt_stdio_output@@AEAA_ND@Z 0000000180040780 f i libucrt:output.obj
 0001:0003f780       ?state_case_normal_tchar@?$output_processor@DV?$string_output_adapter@D@__crt_stdio_output@@V?$format_validation_base@DV?$string_output_adapter@D@__crt_stdio_output@@@2@@__crt_stdio_output@@AEAA_ND@Z 0000000180040780 f i libucrt:output.obj
 0001:0003f818       ?state_case_size@?$output_processor@DV?$stream_output_adapter@D@__crt_stdio_output@@V?$standard_base@DV?$stream_output_adapter@D@__crt_stdio_output@@@2@@__crt_stdio_output@@AEAA_NXZ 0000000180040818 f i libucrt:output.obj
 0001:0003f994       ?state_case_size@?$output_processor@DV?$string_output_adapter@D@__crt_stdio_output@@V?$format_validation_base@DV?$string_output_adapter@D@__crt_stdio_output@@@2@@__crt_stdio_output@@AEAA_NXZ 0000000180040994 f i libucrt:output.obj
 0001:0003f994       ?state_case_size@?$output_processor@DV?$string_output_adapter@D@__crt_stdio_output@@V?$standard_base@DV?$string_output_adapter@D@__crt_stdio_output@@@2@@__crt_stdio_output@@AEAA_NXZ 0000000180040994 f i libucrt:output.obj
 0001:0003fb10       ?state_case_size@?$output_processor@_WV?$stream_output_adapter@_W@__crt_stdio_output@@V?$standard_base@_WV?$stream_output_adapter@_W@__crt_stdio_output@@@2@@__crt_stdio_output@@AEAA_NXZ 0000000180040b10 f i libucrt:output.obj
 0001:0003fcb4       ?state_case_size@?$output_processor@_WV?$string_output_adapter@_W@__crt_stdio_output@@V?$standard_base@_WV?$string_output_adapter@_W@__crt_stdio_output@@@2@@__crt_stdio_output@@AEAA_NXZ 0000000180040cb4 f i libucrt:output.obj
 0001:0003fe58       ?state_case_type@?$output_processor@DV?$stream_output_adapter@D@__crt_stdio_output@@V?$standard_base@DV?$stream_output_adapter@D@__crt_stdio_output@@@2@@__crt_stdio_output@@AEAA_NXZ 0000000180040e58 f i libucrt:output.obj
 0001:000400f0       ?state_case_type@?$output_processor@DV?$string_output_adapter@D@__crt_stdio_output@@V?$standard_base@DV?$string_output_adapter@D@__crt_stdio_output@@@2@@__crt_stdio_output@@AEAA_NXZ 00000001800410f0 f i libucrt:output.obj
 0001:000400f0       ?state_case_type@?$output_processor@DV?$string_output_adapter@D@__crt_stdio_output@@V?$format_validation_base@DV?$string_output_adapter@D@__crt_stdio_output@@@2@@__crt_stdio_output@@AEAA_NXZ 00000001800410f0 f i libucrt:output.obj
 0001:00040364       ?state_case_type@?$output_processor@_WV?$stream_output_adapter@_W@__crt_stdio_output@@V?$standard_base@_WV?$stream_output_adapter@_W@__crt_stdio_output@@@2@@__crt_stdio_output@@AEAA_NXZ 0000000180041364 f i libucrt:output.obj
 0001:00040650       ?state_case_type@?$output_processor@_WV?$string_output_adapter@_W@__crt_stdio_output@@V?$standard_base@_WV?$string_output_adapter@_W@__crt_stdio_output@@@2@@__crt_stdio_output@@AEAA_NXZ 0000000180041650 f i libucrt:output.obj
 0001:0004092c       ?type_case_Z@?$output_processor@DV?$string_output_adapter@D@__crt_stdio_output@@V?$standard_base@DV?$string_output_adapter@D@__crt_stdio_output@@@2@@__crt_stdio_output@@AEAA_NXZ 000000018004192c f i libucrt:output.obj
 0001:0004092c       ?type_case_Z@?$output_processor@DV?$stream_output_adapter@D@__crt_stdio_output@@V?$standard_base@DV?$stream_output_adapter@D@__crt_stdio_output@@@2@@__crt_stdio_output@@AEAA_NXZ 000000018004192c f i libucrt:output.obj
 0001:0004092c       ?type_case_Z@?$output_processor@DV?$string_output_adapter@D@__crt_stdio_output@@V?$format_validation_base@DV?$string_output_adapter@D@__crt_stdio_output@@@2@@__crt_stdio_output@@AEAA_NXZ 000000018004192c f i libucrt:output.obj
 0001:000409ac       ?type_case_Z@?$output_processor@_WV?$stream_output_adapter@_W@__crt_stdio_output@@V?$standard_base@_WV?$stream_output_adapter@_W@__crt_stdio_output@@@2@@__crt_stdio_output@@AEAA_NXZ 00000001800419ac f i libucrt:output.obj
 0001:000409ac       ?type_case_Z@?$output_processor@_WV?$string_output_adapter@_W@__crt_stdio_output@@V?$standard_base@_WV?$string_output_adapter@_W@__crt_stdio_output@@@2@@__crt_stdio_output@@AEAA_NXZ 00000001800419ac f i libucrt:output.obj
 0001:00040a2c       ?type_case_a@?$output_processor@DV?$stream_output_adapter@D@__crt_stdio_output@@V?$standard_base@DV?$stream_output_adapter@D@__crt_stdio_output@@@2@@__crt_stdio_output@@AEAA_NXZ 0000000180041a2c f i libucrt:output.obj
 0001:00040a2c       ?type_case_a@?$output_processor@DV?$string_output_adapter@D@__crt_stdio_output@@V?$standard_base@DV?$string_output_adapter@D@__crt_stdio_output@@@2@@__crt_stdio_output@@AEAA_NXZ 0000000180041a2c f i libucrt:output.obj
 0001:00040a2c       ?type_case_a@?$output_processor@DV?$string_output_adapter@D@__crt_stdio_output@@V?$format_validation_base@DV?$string_output_adapter@D@__crt_stdio_output@@@2@@__crt_stdio_output@@AEAA_NXZ 0000000180041a2c f i libucrt:output.obj
 0001:00040c44       ?type_case_a@?$output_processor@_WV?$string_output_adapter@_W@__crt_stdio_output@@V?$standard_base@_WV?$string_output_adapter@_W@__crt_stdio_output@@@2@@__crt_stdio_output@@AEAA_NXZ 0000000180041c44 f i libucrt:output.obj
 0001:00040c44       ?type_case_a@?$output_processor@_WV?$stream_output_adapter@_W@__crt_stdio_output@@V?$standard_base@_WV?$stream_output_adapter@_W@__crt_stdio_output@@@2@@__crt_stdio_output@@AEAA_NXZ 0000000180041c44 f i libucrt:output.obj
 0001:00040e84       ?type_case_c_tchar@?$output_processor@DV?$string_output_adapter@D@__crt_stdio_output@@V?$standard_base@DV?$string_output_adapter@D@__crt_stdio_output@@@2@@__crt_stdio_output@@AEAA_ND@Z 0000000180041e84 f i libucrt:output.obj
 0001:00040e84       ?type_case_c_tchar@?$output_processor@DV?$string_output_adapter@D@__crt_stdio_output@@V?$format_validation_base@DV?$string_output_adapter@D@__crt_stdio_output@@@2@@__crt_stdio_output@@AEAA_ND@Z 0000000180041e84 f i libucrt:output.obj
 0001:00040e84       ?type_case_c_tchar@?$output_processor@DV?$stream_output_adapter@D@__crt_stdio_output@@V?$standard_base@DV?$stream_output_adapter@D@__crt_stdio_output@@@2@@__crt_stdio_output@@AEAA_ND@Z 0000000180041e84 f i libucrt:output.obj
 0001:00040f50       ?type_case_c_tchar@?$output_processor@_WV?$string_output_adapter@_W@__crt_stdio_output@@V?$standard_base@_WV?$string_output_adapter@_W@__crt_stdio_output@@@2@@__crt_stdio_output@@AEAA_N_W@Z 0000000180041f50 f i libucrt:output.obj
 0001:00040f50       ?type_case_c_tchar@?$output_processor@_WV?$stream_output_adapter@_W@__crt_stdio_output@@V?$standard_base@_WV?$stream_output_adapter@_W@__crt_stdio_output@@@2@@__crt_stdio_output@@AEAA_N_W@Z 0000000180041f50 f i libucrt:output.obj
 0001:00040ff8       ?type_case_integer@?$output_processor@DV?$string_output_adapter@D@__crt_stdio_output@@V?$format_validation_base@DV?$string_output_adapter@D@__crt_stdio_output@@@2@@__crt_stdio_output@@AEAA_NI_N@Z 0000000180041ff8 f i libucrt:output.obj
 0001:00040ff8       ?type_case_integer@?$output_processor@DV?$string_output_adapter@D@__crt_stdio_output@@V?$standard_base@DV?$string_output_adapter@D@__crt_stdio_output@@@2@@__crt_stdio_output@@AEAA_NI_N@Z 0000000180041ff8 f i libucrt:output.obj
 0001:00040ff8       ?type_case_integer@?$output_processor@DV?$stream_output_adapter@D@__crt_stdio_output@@V?$standard_base@DV?$stream_output_adapter@D@__crt_stdio_output@@@2@@__crt_stdio_output@@AEAA_NI_N@Z 0000000180041ff8 f i libucrt:output.obj
 0001:000411bc       ?type_case_integer@?$output_processor@_WV?$string_output_adapter@_W@__crt_stdio_output@@V?$standard_base@_WV?$string_output_adapter@_W@__crt_stdio_output@@@2@@__crt_stdio_output@@AEAA_NI_N@Z 00000001800421bc f i libucrt:output.obj
 0001:000411bc       ?type_case_integer@?$output_processor@_WV?$stream_output_adapter@_W@__crt_stdio_output@@V?$standard_base@_WV?$stream_output_adapter@_W@__crt_stdio_output@@@2@@__crt_stdio_output@@AEAA_NI_N@Z 00000001800421bc f i libucrt:output.obj
 0001:00041388       ?type_case_n@?$output_processor@DV?$stream_output_adapter@D@__crt_stdio_output@@V?$standard_base@DV?$stream_output_adapter@D@__crt_stdio_output@@@2@@__crt_stdio_output@@AEAA_NXZ 0000000180042388 f i libucrt:output.obj
 0001:00041388       ?type_case_n@?$output_processor@_WV?$string_output_adapter@_W@__crt_stdio_output@@V?$standard_base@_WV?$string_output_adapter@_W@__crt_stdio_output@@@2@@__crt_stdio_output@@AEAA_NXZ 0000000180042388 f i libucrt:output.obj
 0001:00041388       ?type_case_n@?$output_processor@DV?$string_output_adapter@D@__crt_stdio_output@@V?$standard_base@DV?$string_output_adapter@D@__crt_stdio_output@@@2@@__crt_stdio_output@@AEAA_NXZ 0000000180042388 f i libucrt:output.obj
 0001:00041388       ?type_case_n@?$output_processor@DV?$string_output_adapter@D@__crt_stdio_output@@V?$format_validation_base@DV?$string_output_adapter@D@__crt_stdio_output@@@2@@__crt_stdio_output@@AEAA_NXZ 0000000180042388 f i libucrt:output.obj
 0001:00041388       ?type_case_n@?$output_processor@_WV?$stream_output_adapter@_W@__crt_stdio_output@@V?$standard_base@_WV?$stream_output_adapter@_W@__crt_stdio_output@@@2@@__crt_stdio_output@@AEAA_NXZ 0000000180042388 f i libucrt:output.obj
 0001:00041464       ?type_case_s@?$output_processor@DV?$stream_output_adapter@D@__crt_stdio_output@@V?$standard_base@DV?$stream_output_adapter@D@__crt_stdio_output@@@2@@__crt_stdio_output@@AEAA_NXZ 0000000180042464 f i libucrt:output.obj
 0001:00041464       ?type_case_s@?$output_processor@DV?$string_output_adapter@D@__crt_stdio_output@@V?$format_validation_base@DV?$string_output_adapter@D@__crt_stdio_output@@@2@@__crt_stdio_output@@AEAA_NXZ 0000000180042464 f i libucrt:output.obj
 0001:00041464       ?type_case_s@?$output_processor@DV?$string_output_adapter@D@__crt_stdio_output@@V?$standard_base@DV?$string_output_adapter@D@__crt_stdio_output@@@2@@__crt_stdio_output@@AEAA_NXZ 0000000180042464 f i libucrt:output.obj
 0001:00041500       ?type_case_s@?$output_processor@_WV?$stream_output_adapter@_W@__crt_stdio_output@@V?$standard_base@_WV?$stream_output_adapter@_W@__crt_stdio_output@@@2@@__crt_stdio_output@@AEAA_NXZ 0000000180042500 f i libucrt:output.obj
 0001:00041500       ?type_case_s@?$output_processor@_WV?$string_output_adapter@_W@__crt_stdio_output@@V?$standard_base@_WV?$string_output_adapter@_W@__crt_stdio_output@@@2@@__crt_stdio_output@@AEAA_NXZ 0000000180042500 f i libucrt:output.obj
 0001:000415c8       ?validate_stream_is_ansi_if_required@?$__acrt_stdio_char_traits@D@@SA_NQEAU_iobuf@@@Z 00000001800425c8 f i libucrt:output.obj
 0001:00041654       ?write_stored_string_tchar@?$output_processor@DV?$stream_output_adapter@D@__crt_stdio_output@@V?$standard_base@DV?$stream_output_adapter@D@__crt_stdio_output@@@2@@__crt_stdio_output@@AEAA_ND@Z 0000000180042654 f i libucrt:output.obj
 0001:00041778       ?write_stored_string_tchar@?$output_processor@DV?$string_output_adapter@D@__crt_stdio_output@@V?$format_validation_base@DV?$string_output_adapter@D@__crt_stdio_output@@@2@@__crt_stdio_output@@AEAA_ND@Z 0000000180042778 f i libucrt:output.obj
 0001:00041778       ?write_stored_string_tchar@?$output_processor@DV?$string_output_adapter@D@__crt_stdio_output@@V?$standard_base@DV?$string_output_adapter@D@__crt_stdio_output@@@2@@__crt_stdio_output@@AEAA_ND@Z 0000000180042778 f i libucrt:output.obj
 0001:00041850       ?write_stored_string_tchar@?$output_processor@_WV?$stream_output_adapter@_W@__crt_stdio_output@@V?$standard_base@_WV?$stream_output_adapter@_W@__crt_stdio_output@@@2@@__crt_stdio_output@@AEAA_N_W@Z 0000000180042850 f i libucrt:output.obj
 0001:00041958       ?write_stored_string_tchar@?$output_processor@_WV?$string_output_adapter@_W@__crt_stdio_output@@V?$standard_base@_WV?$string_output_adapter@_W@__crt_stdio_output@@@2@@__crt_stdio_output@@AEAA_N_W@Z 0000000180042958 f i libucrt:output.obj
 0001:00041a48       ?write_string@?$string_output_adapter@D@__crt_stdio_output@@QEBAXQEBDHQEAHAEAV__crt_deferred_errno_cache@@@Z 0000000180042a48 f i libucrt:output.obj
 0001:00041aec       ?write_string@?$string_output_adapter@_W@__crt_stdio_output@@QEBAXQEB_WHQEAHAEAV__crt_deferred_errno_cache@@@Z 0000000180042aec f i libucrt:output.obj
 0001:00041b94       ?write_string_impl@?$output_adapter_common@DV?$stream_output_adapter@D@__crt_stdio_output@@@__crt_stdio_output@@IEBAXQEBDHQEAHAEAV__crt_deferred_errno_cache@@@Z 0000000180042b94 f i libucrt:output.obj
 0001:00041c8c       ?write_string_impl@?$output_adapter_common@_WV?$stream_output_adapter@_W@__crt_stdio_output@@@__crt_stdio_output@@IEBAXQEB_WHQEAHAEAV__crt_deferred_errno_cache@@@Z 0000000180042c8c f i libucrt:output.obj
 0001:00041d90       __stdio_common_vfprintf    0000000180042d90 f   libucrt:output.obj
 0001:00041e1c       __stdio_common_vfwprintf   0000000180042e1c f   libucrt:output.obj
 0001:00041ea8       __stdio_common_vsnprintf_s 0000000180042ea8 f   libucrt:output.obj
 0001:00041ff4       __stdio_common_vsprintf    0000000180042ff4 f   libucrt:output.obj
 0001:00041ffc       __stdio_common_vswprintf   0000000180042ffc f   libucrt:output.obj
 0001:00042004       abort                      0000000180043004 f   libucrt:abort.obj
 0001:0004205c       __acrt_initialize_stdio    000000018004305c f   libucrt:_file.obj
 0001:0004217c       __acrt_iob_func            000000018004317c f   libucrt:_file.obj
 0001:00042190       __acrt_uninitialize_stdio  0000000180043190 f   libucrt:_file.obj
 0001:000421ec       _lock_file                 00000001800431ec f   libucrt:_file.obj
 0001:000421f8       _unlock_file               00000001800431f8 f   libucrt:_file.obj
 0001:00042340       _beginthreadex             0000000180043340 f   libucrt:thread.obj
 0001:00042414       _endthreadex               0000000180043414 f   libucrt:thread.obj
 0001:000424d8       fopen                      00000001800434d8 f   libucrt:fopen.obj
 0001:000424e4       _fclose_nolock             00000001800434e4 f   libucrt:fclose.obj
 0001:00042568       fclose                     0000000180043568 f   libucrt:fclose.obj
 0001:000425cc       __acrt_errno_from_os_error 00000001800435cc f   libucrt:errno.obj
 0001:00042614       __acrt_errno_map_os_error  0000000180043614 f   libucrt:errno.obj
 0001:00042664       __doserrno                 0000000180043664 f   libucrt:errno.obj
 0001:00042684       _errno                     0000000180043684 f   libucrt:errno.obj
 0001:000426a4       strerror                   00000001800436a4 f   libucrt:strerror.obj
 0001:0004296c       __acrt_stdio_flush_nolock  000000018004396c f   libucrt:fflush.obj
 0001:000429e8       _fflush_nolock             00000001800439e8 f   libucrt:fflush.obj
 0001:00042a34       _flushall                  0000000180043a34 f   libucrt:fflush.obj
 0001:00042a3c       fflush                     0000000180043a3c f   libucrt:fflush.obj
 0001:00042b48       _fwrite_nolock             0000000180043b48 f   libucrt:fwrite.obj
 0001:00042ce0       fwrite                     0000000180043ce0 f   libucrt:fwrite.obj
 0001:00042d64       __acrt_initialize_new_handler 0000000180043d64 f   libucrt:new_handler.obj
 0001:00042d6c       _callnewh                  0000000180043d6c f   libucrt:new_handler.obj
 0001:00042d9c       _query_new_handler         0000000180043d9c f   libucrt:new_handler.obj
 0001:00042dd0       _seh_filter_dll            0000000180043dd0 f   libucrt:exception_filter.obj
 0001:00042de4       _seh_filter_exe            0000000180043de4 f   libucrt:exception_filter.obj
 0001:000431f0       __acrt_initialize_thread_local_exit_callback 00000001800441f0 f   libucrt:exit.obj
 0001:000431f8       _cexit                     00000001800441f8 f   libucrt:exit.obj
 0001:00043208       _exit                      0000000180044208 f   libucrt:exit.obj
 0001:00043214       _is_c_termination_complete 0000000180044214 f   libucrt:exit.obj
 0001:000433d8       __acrt_allocate_buffer_for_argv 00000001800443d8 f   libucrt:argv_parsing.obj
 0001:00043438       _configure_narrow_argv     0000000180044438 f   libucrt:argv_parsing.obj
 0001:000437b4       __dcrt_uninitialize_environments_nolock 00000001800447b4 f   libucrt:environment_initialization.obj
 0001:000437ec       _initialize_narrow_environment 00000001800447ec f   libucrt:environment_initialization.obj
 0001:00043b7c       _crt_atexit                0000000180044b7c f   libucrt:onexit.obj
 0001:00043b8c       _execute_onexit_table      0000000180044b8c f   libucrt:onexit.obj
 0001:00043bc8       _initialize_onexit_table   0000000180044bc8 f   libucrt:onexit.obj
 0001:00043c08       _register_onexit_function  0000000180044c08 f   libucrt:onexit.obj
 0001:00043c88       __acrt_uninitialize_command_line 0000000180044c88 f   libucrt:argv_data.obj
 0001:00043d94       __acrt_initialize          0000000180044d94 f   libucrt:initialization.obj
 0001:00043da8       __acrt_thread_attach       0000000180044da8 f   libucrt:initialization.obj
 0001:00043dbc       __acrt_thread_detach       0000000180044dbc f   libucrt:initialization.obj
 0001:00043dcc       __acrt_uninitialize        0000000180044dcc f   libucrt:initialization.obj
 0001:00043e04       __acrt_uninitialize_critical 0000000180044e04 f   libucrt:initialization.obj
 0001:00043e14       _initterm                  0000000180044e14 f   libucrt:initterm.obj
 0001:00043e78       _initterm_e                0000000180044e78 f   libucrt:initterm.obj
 0001:00043eb8       terminate                  0000000180044eb8 f   libucrt:terminate.obj
 0001:00043ed8       strcpy_s                   0000000180044ed8 f   libucrt:strcpy_s.obj
 0001:00043f38       calloc                     0000000180044f38 f   libucrt:calloc.obj
 0001:00043f40       wcsncmp                    0000000180044f40 f   libucrt:wcsncmp.obj
 0001:00043f6c       ??$parse_integer@KV?$c_string_character_source@D@__crt_strtox@@@__crt_strtox@@YAKQEAU__crt_locale_pointers@@V?$c_string_character_source@D@0@H_N@Z 0000000180044f6c f i libucrt:atox.obj
 0001:00044288       ??$parse_integer@KV?$c_string_character_source@_W@__crt_strtox@@@__crt_strtox@@YAKQEAU__crt_locale_pointers@@V?$c_string_character_source@_W@0@H_N@Z 0000000180045288 f i libucrt:atox.obj
 0001:00044960       strncmp                    0000000180045960 f   libucrt:strncmp.obj
 0001:000449e0       _query_app_type            00000001800459e0 f   libucrt:report_runtime_error.obj
 0001:00044afc       _itow_s                    0000000180045afc f   libucrt:xtoa.obj
 0001:00044b1c       _set_error_mode            0000000180045b1c f   libucrt:set_error_mode.obj
 0001:00044b5c       wcscat_s                   0000000180045b5c f   libucrt:wcscat_s.obj
 0001:00044bdc       wcscpy_s                   0000000180045bdc f   libucrt:wcscpy_s.obj
 0001:00044c44       wcsncat_s                  0000000180045c44 f   libucrt:wcsncat_s.obj
 0001:00044d44       __acrt_show_wide_message_box 0000000180045d44 f   libucrt:crtmbox.obj
 0001:00044f18       setvbuf                    0000000180045f18 f   libucrt:setvbuf.obj
 0001:00044ffc       __acrt_get_sigabrt_handler 0000000180045ffc f   libucrt:signal.obj
 0001:0004502c       __acrt_initialize_signal_handlers 000000018004602c f   libucrt:signal.obj
 0001:0004504c       raise                      000000018004604c f   libucrt:signal.obj
 0001:00045638       __acrt_freeptd             0000000180046638 f   libucrt:per_thread_data.obj
 0001:0004567c       __acrt_getptd              000000018004667c f   libucrt:per_thread_data.obj
 0001:00045748       __acrt_getptd_head         0000000180046748 f   libucrt:per_thread_data.obj
 0001:000457f0       __acrt_getptd_noexit       00000001800467f0 f   libucrt:per_thread_data.obj
 0001:000458c0       __acrt_initialize_ptd      00000001800468c0 f   libucrt:per_thread_data.obj
 0001:000458fc       __acrt_uninitialize_ptd    00000001800468fc f   libucrt:per_thread_data.obj
 0001:00045920       _free_base                 0000000180046920 f   libucrt:free_base.obj
 0001:00045960       _malloc_base               0000000180046960 f   libucrt:malloc_base.obj
 0001:00045a04       _tolower_l                 0000000180046a04 f   libucrt:tolower_toupper.obj
 0001:00045b44       tolower                    0000000180046b44 f   libucrt:tolower_toupper.obj
 0001:00045b70       __acrt_update_locale_info  0000000180046b70 f   libucrt:locale_update.obj
 0001:00045ba4       __acrt_update_multibyte_info 0000000180046ba4 f   libucrt:locale_update.obj
 0001:00045c48       __acrt_set_locale_changed  0000000180046c48 f   libucrt:wsetlocale.obj
 0001:00045c54       __acrt_uninitialize_locale 0000000180046c54 f   libucrt:wsetlocale.obj
 0001:00045c84       isdigit                    0000000180046c84 f i libucrt:_ctype.obj
 0001:00045cf8       strtol                     0000000180046cf8 f   libucrt:strtox.obj
 0001:00045d24       wcstol                     0000000180046d24 f   libucrt:strtox.obj
 0001:00045d50       _mbtowc_l                  0000000180046d50 f   libucrt:mbtowc.obj
 0001:00045e98       mbtowc                     0000000180046e98 f   libucrt:mbtowc.obj
 0001:00045ea0       _wctomb_s_l                0000000180046ea0 f   libucrt:wctomb.obj
 0001:00046024       wctomb_s                   0000000180047024 f   libucrt:wctomb.obj
 0001:00046038       strnlen                    0000000180047038 f   libucrt:strnlen.obj
 0001:0004617c       wcsnlen                    000000018004717c f   libucrt:strnlen.obj
 0001:00046d00       __acrt_fp_format           0000000180047d00 f   libucrt:cvt.obj
 0001:00046f88       _fputwc_nolock             0000000180047f88 f   libucrt:fputwc.obj
 0001:00047100       _fileno                    0000000180048100 f   libucrt:fileno.obj
 0001:00047128       _fputc_nolock              0000000180048128 f   libucrt:fputc.obj
 0001:00047140       _get_printf_count_output   0000000180048140 f   libucrt:printf_count_output.obj
 0001:00047158       __acrt_stdio_begin_temporary_buffering_nolock 0000000180048158 f   libucrt:_sftbuf.obj
 0001:00047228       __acrt_stdio_end_temporary_buffering_nolock 0000000180048228 f   libucrt:_sftbuf.obj
 0001:0004744c       __acrt_initialize_lowio    000000018004844c f   libucrt:ioinit.obj
 0001:00047488       __acrt_uninitialize_lowio  0000000180048488 f   libucrt:ioinit.obj
 0001:000474c8       _calloc_base               00000001800484c8 f   libucrt:calloc_base.obj
 0001:00047718       __acrt_AppPolicyGetProcessTerminationMethodInternal 0000000180048718 f   libucrt:winapi_thunks.obj
 0001:00047768       __acrt_AppPolicyGetShowDeveloperDiagnosticInternal 0000000180048768 f   libucrt:winapi_thunks.obj
 0001:000477b8       __acrt_AppPolicyGetThreadInitializationTypeInternal 00000001800487b8 f   libucrt:winapi_thunks.obj
 0001:00047808       __acrt_AppPolicyGetWindowingModelInternal 0000000180048808 f   libucrt:winapi_thunks.obj
 0001:00047858       __acrt_AreFileApisANSI     0000000180048858 f   libucrt:winapi_thunks.obj
 0001:00047894       __acrt_FlsAlloc            0000000180048894 f   libucrt:winapi_thunks.obj
 0001:000478dc       __acrt_FlsFree             00000001800488dc f   libucrt:winapi_thunks.obj
 0001:00047924       __acrt_FlsGetValue         0000000180048924 f   libucrt:winapi_thunks.obj
 0001:0004796c       __acrt_FlsSetValue         000000018004896c f   libucrt:winapi_thunks.obj
 0001:000479c0       __acrt_InitializeCriticalSectionEx 00000001800489c0 f   libucrt:winapi_thunks.obj
 0001:00047a24       __acrt_LCMapStringEx       0000000180048a24 f   libucrt:winapi_thunks.obj
 0001:00047b00       __acrt_LocaleNameToLCID    0000000180048b00 f   libucrt:winapi_thunks.obj
 0001:00047b50       __acrt_MessageBoxW         0000000180048b50 f   libucrt:winapi_thunks.obj
 0001:00047bc4       __acrt_OutputDebugStringW  0000000180048bc4 f   libucrt:winapi_thunks.obj
 0001:00047bcc       __acrt_RoInitialize        0000000180048bcc f   libucrt:winapi_thunks.obj
 0001:00047c0c       __acrt_RoUninitialize      0000000180048c0c f   libucrt:winapi_thunks.obj
 0001:00047c40       __acrt_can_show_message_box 0000000180048c40 f   libucrt:winapi_thunks.obj
 0001:00047cb0       __acrt_get_parent_window   0000000180048cb0 f   libucrt:winapi_thunks.obj
 0001:00047d2c       __acrt_initialize_winapi_thunks 0000000180048d2c f   libucrt:winapi_thunks.obj
 0001:00047d74       __acrt_is_interactive      0000000180048d74 f   libucrt:winapi_thunks.obj
 0001:00047e3c       __acrt_uninitialize_winapi_thunks 0000000180048e3c f   libucrt:winapi_thunks.obj
 0001:00047e80       _fcloseall                 0000000180048e80 f   libucrt:closeall.obj
 0001:00047f34       __acrt_stdio_free_buffer_nolock 0000000180048f34 f   libucrt:_freebuf.obj
 0001:00047f74       __acrt_get_begin_thread_init_policy 0000000180048f74 f   libucrt:win_policies.obj
 0001:00047fc8       __acrt_get_developer_information_policy 0000000180048fc8 f   libucrt:win_policies.obj
 0001:0004801c       __acrt_get_process_end_policy 000000018004901c f   libucrt:win_policies.obj
 0001:00048058       __acrt_get_windowing_model_policy 0000000180049058 f   libucrt:win_policies.obj
 0001:000480c4       ?__acrt_stdio_allocate_stream@@YA?AV__crt_stdio_stream@@XZ 00000001800490c4 f   libucrt:stream.obj
 0001:0004811c       ?__acrt_stdio_free_stream@@YAXV__crt_stdio_stream@@@Z 000000018004911c f   libucrt:stream.obj
 0001:00048224       ??$__acrt_stdio_parse_mode@D@@YA?AU__acrt_stdio_stream_mode@@QEBD@Z 0000000180049224 f i libucrt:openfile.obj
 0001:000484d0       _openfile                  00000001800494d0 f   libucrt:openfile.obj
 0001:000485e0       _close                     00000001800495e0 f   libucrt:close.obj
 0001:00048684       _close_nolock              0000000180049684 f   libucrt:close.obj
 0001:00048740       __sys_errlist              0000000180049740 f   libucrt:syserr.obj
 0001:00048748       __sys_nerr                 0000000180049748 f   libucrt:syserr.obj
 0001:00048750       strncpy_s                  0000000180049750 f   libucrt:strncpy_s.obj
 0001:00048824       __acrt_initialize_locks    0000000180049824 f   libucrt:locks.obj
 0001:0004886c       __acrt_lock                000000018004986c f   libucrt:locks.obj
 0001:00048888       __acrt_uninitialize_locks  0000000180049888 f   libucrt:locks.obj
 0001:000488c0       __acrt_unlock              00000001800498c0 f   libucrt:locks.obj
 0001:00048968       _commit                    0000000180049968 f   libucrt:commit.obj
 0001:00048fb4       _write                     0000000180049fb4 f   libucrt:write.obj
 0001:000490a0       _write_nolock              000000018004a0a0 f   libucrt:write.obj
 0001:000495a8       __acrt_stdio_flush_and_write_narrow_nolock 000000018004a5a8 f   libucrt:_flsbuf.obj
 0001:00049690       __acrt_stdio_flush_and_write_wide_nolock 000000018004a690 f   libucrt:_flsbuf.obj
 0001:00049ce0       __acrt_expand_narrow_argv_wildcards 000000018004ace0 f   libucrt:argv_wildcards.obj
 0001:0004a428       __acrt_initialize_multibyte 000000018004b428 f   libucrt:mbctype.obj
 0001:0004a488       __acrt_update_thread_multibyte_data 000000018004b488 f   libucrt:mbctype.obj
 0001:0004a4a4       _setmbcp_nolock            000000018004b4a4 f   libucrt:mbctype.obj
 0001:0004a7dc       _ismbblead                 000000018004b7dc f   libucrt:ismbbyte.obj
 0001:0004a7f0       __acrt_initialize_command_line 000000018004b7f0 f   libucrt:argv_data.obj
 0001:0004a818       __dcrt_get_narrow_environment_from_os 000000018004b818 f   libucrt:get_environment_from_os.obj
 0001:0004a91c       _recalloc                  000000018004b91c f   libucrt:recalloc.obj
 0001:0004a924       _recalloc_base             000000018004b924 f   libucrt:recalloc.obj
 0001:0004a9bc       __acrt_initialize_heap     000000018004b9bc f   libucrt:heap_handle.obj
 0001:0004a9d8       __acrt_uninitialize_heap   000000018004b9d8 f   libucrt:heap_handle.obj
 0001:0004a9e4       __acrt_execute_initializers 000000018004b9e4 f   libucrt:shared_initialization.obj
 0001:0004aa64       __acrt_execute_uninitializers 000000018004ba64 f   libucrt:shared_initialization.obj
 0001:0004aaa0       __acrt_has_user_matherr    000000018004baa0 f   libucrt:matherr.obj
 0001:0004aac0       __acrt_initialize_user_matherr 000000018004bac0 f   libucrt:matherr.obj
 0001:0004aac8       __acrt_invoke_user_matherr 000000018004bac8 f   libucrt:matherr.obj
 0001:0004aaf8       __pctype_func              000000018004baf8 f   libucrt:ctype.obj
 0001:0004ab28       iswctype                   000000018004bb28 f   libucrt:iswctype.obj
 0001:0004ab98       _isctype_l                 000000018004bb98 f   libucrt:isctype.obj
 0001:0004aca8       __acrt_add_locale_ref      000000018004bca8 f   libucrt:locale_refcounting.obj
 0001:0004ad34       __acrt_free_locale         000000018004bd34 f   libucrt:locale_refcounting.obj
 0001:0004aeac       __acrt_locale_add_lc_time_reference 000000018004beac f   libucrt:locale_refcounting.obj
 0001:0004aed4       __acrt_locale_free_lc_time_if_unreferenced 000000018004bed4 f   libucrt:locale_refcounting.obj
 0001:0004af0c       __acrt_locale_release_lc_time_reference 000000018004bf0c f   libucrt:locale_refcounting.obj
 0001:0004af34       __acrt_release_locale_ref  000000018004bf34 f   libucrt:locale_refcounting.obj
 0001:0004afdc       __acrt_update_thread_locale_data 000000018004bfdc f   libucrt:locale_refcounting.obj
 0001:0004b04c       _updatetlocinfoEx_nolock   000000018004c04c f   libucrt:locale_refcounting.obj
 0001:0004b0b4       _query_new_mode            000000018004c0b4 f   libucrt:new_mode.obj
 0001:0004b0bc       _isleadbyte_l              000000018004c0bc f i libucrt:_wctype.obj
 0001:0004b414       __acrt_LCMapStringA        000000018004c414 f   libucrt:lcmapstringa.obj
 0001:0004b4ac       __acrt_locale_free_monetary 000000018004c4ac f   libucrt:initmon.obj
 0001:0004b5b8       __acrt_locale_free_numeric 000000018004c5b8 f   libucrt:initnum.obj
 0001:0004b678       __acrt_locale_free_time    000000018004c678 f   libucrt:inittime.obj
 0001:0004b780       __acrt_GetStringTypeA      000000018004c780 f   libucrt:getstringtypea.obj
 0001:0004b910       __acrt_MultiByteToWideChar 000000018004c910 f   libucrt:multibytetowidechar.obj
 0001:0004b918       __acrt_WideCharToMultiByte 000000018004c918 f   libucrt:widechartomultibyte.obj
 0001:0004b920       __acrt_fp_strflt_to_string 000000018004c920 f   libucrt:_fptostr.obj
 0001:0004b9e0       ?divide@__crt_strtox@@YA_KAEAUbig_integer@1@AEBU21@@Z 000000018004c9e0 f i libucrt:cfout.obj
 0001:0004be74       __acrt_fltout              000000018004ce74 f   libucrt:cfout.obj
 0001:0004d250       _isatty                    000000018004e250 f   libucrt:isatty.obj
 0001:0004d2b0       __acrt_lowio_create_handle_array 000000018004e2b0 f   libucrt:osfinfo.obj
 0001:0004d348       __acrt_lowio_destroy_handle_array 000000018004e348 f   libucrt:osfinfo.obj
 0001:0004d398       __acrt_lowio_ensure_fh_exists 000000018004e398 f   libucrt:osfinfo.obj
 0001:0004d440       __acrt_lowio_lock_fh       000000018004e440 f   libucrt:osfinfo.obj
 0001:0004d464       __acrt_lowio_set_os_handle 000000018004e464 f   libucrt:osfinfo.obj
 0001:0004d524       __acrt_lowio_unlock_fh     000000018004e524 f   libucrt:osfinfo.obj
 0001:0004d548       _alloc_osfhnd              000000018004e548 f   libucrt:osfinfo.obj
 0001:0004d66c       _free_osfhnd               000000018004e66c f   libucrt:osfinfo.obj
 0001:0004d728       _get_osfhandle             000000018004e728 f   libucrt:osfinfo.obj
 0001:0004d86c       __acrt_DownlevelLocaleNameToLCID 000000018004e86c f   libucrt:lcidtoname_downlevel.obj
 0001:0004d8a0       __ascii_strnicmp           000000018004e8a0 f   libucrt:strnicmp.obj
 0001:0004d8fc       _strnicmp                  000000018004e8fc f   libucrt:strnicmp.obj
 0001:0004d94c       _strnicmp_l                000000018004e94c f   libucrt:strnicmp.obj
 0001:0004e04c       _sopen_nolock              000000018004f04c f   libucrt:open.obj
 0001:0004e0dc       _sopen_s                   000000018004f0dc f   libucrt:open.obj
 0001:0004e110       _wsopen_nolock             000000018004f110 f   libucrt:open.obj
 0001:0004e688       _lseeki64                  000000018004f688 f   libucrt:lseek.obj
 0001:0004e690       _lseeki64_nolock           000000018004f690 f   libucrt:lseek.obj
 0001:0004e698       _putwch_nolock             000000018004f698 f   libucrt:putwch.obj
 0001:0004e6d4       __acrt_stdio_allocate_buffer_nolock 000000018004f6d4 f   libucrt:_getbuf.obj
 0001:0004e740       qsort                      000000018004f740 f   libucrt:qsort.obj
 0001:0004eb90       strpbrk                    000000018004fb90 f   libucrt:strpbrk.obj
 0001:0004ef70       _mbsdec                    000000018004ff70 f   libucrt:mbsdec.obj
 0001:0004ef78       _mbsdec_l                  000000018004ff78 f   libucrt:mbsdec.obj
 0001:0004f020       _msize                     0000000180050020 f   libucrt:msize.obj
 0001:0004f028       _msize_base                0000000180050028 f   libucrt:msize.obj
 0001:0004f064       _realloc_base              0000000180050064 f   libucrt:realloc_base.obj
 0001:0004f0e0       __acrt_GetStringTypeW      00000001800500e0 f   libucrt:getstringtypew.obj
 0001:0004f0e8       __strncnt                  00000001800500e8 f   libucrt:strncnt.obj
 0001:0004f100       fegetenv                   0000000180050100 f   libucrt:fegetenv.obj
 0001:0004f120       fesetenv                   0000000180050120 f   libucrt:fesetenv.obj
 0001:0004f170       feholdexcept               0000000180050170 f   libucrt:feholdexcept.obj
 0001:0004f1c0       ceil                       00000001800501c0 f   libucrt:ceil.obj
 0001:0004f290       log10                      0000000180050290 f   libucrt:log10.obj
 0001:0004f83c       _get_fmode                 000000018005083c f   libucrt:setmode.obj
 0001:0004f86c       _setmode_nolock            000000018005086c f   libucrt:setmode.obj
 0001:0004f94c       __acrt_copy_path_to_wide_string 000000018005094c f   libucrt:string_utilities.obj
 0001:0004fa44       _chsize_nolock             0000000180050a44 f   libucrt:chsize.obj
 0001:0005015c       _read_nolock               000000018005115c f   libucrt:read.obj
 0001:000505e8       __dcrt_lowio_ensure_console_output_initialized 00000001800515e8 f   libucrt:initcon.obj
 0001:0005063c       __dcrt_terminate_console_output 000000018005163c f   libucrt:initcon.obj
 0001:00050658       __dcrt_write_console_w     0000000180051658 f   libucrt:initcon.obj
 0001:00050718       __acrt_fenv_get_control    0000000180051718 f   libucrt:_fenvutils.obj
 0001:00050818       __acrt_fenv_get_status     0000000180051818 f   libucrt:_fenvutils.obj
 0001:00050870       __acrt_fenv_set_control    0000000180051870 f   libucrt:_fenvutils.obj
 0001:000509b8       __acrt_fenv_set_status     00000001800519b8 f   libucrt:_fenvutils.obj
 0001:00050a3c       _clearfp                   0000000180051a3c f   libucrt:ieee.obj
 0001:00050bd0       _handle_error              0000000180051bd0 f   libucrt:libm_error.obj
 0001:00050cf8       _handle_nan                0000000180051cf8 f   libucrt:libm_error.obj
 0001:00050d20       __acrt_initialize_fma3     0000000180051d20 f   libucrt:fma3_available.obj
 0001:00050d90       _log10_special             0000000180051d90 f   libucrt:log_special.obj
 0001:00050e60       _get_fpsr                  0000000180051e60 f   libucrt:fpsr.obj
 0001:00050e70       _set_fpsr                  0000000180051e70 f   libucrt:fpsr.obj
 0001:00050e7a       _fclrf                     0000000180051e7a f   libucrt:fpsr.obj
 0001:00050e8e       _frnd                      0000000180051e8e f   libucrt:fpsr.obj
 0001:00050eb0       _raise_exc                 0000000180051eb0 f   libucrt:fpexcept.obj
 0001:00050ed8       _raise_exc_ex              0000000180051ed8 f   libucrt:fpexcept.obj
 0001:000511e0       _set_errno_from_matherr    00000001800521e0 f   libucrt:fpexcept.obj
 0001:00051210       _clrfp                     0000000180052210 f   libucrt:fpctrl.obj
 0001:00051230       _ctrlfp                    0000000180052230 f   libucrt:fpctrl.obj
 0001:000512ac       _set_statfp                00000001800522ac f   libucrt:fpctrl.obj
 0001:000512cc       _statfp                    00000001800522cc f   libucrt:fpctrl.obj
 0001:000512dd       IsProcessorFeaturePresent  00000001800522dd f   kernel32:KERNEL32.dll
 0001:000512e4       ?DloadAcquireSectionWriteAccess@@YAXXZ 00000001800522e4 f i DelayImp:delayhlp.obj
 0001:00051390       ?DloadGetSRWLockFunctionPointers@@YAEXZ 0000000180052390 f i DelayImp:delayhlp.obj
 0001:0005142c       ?DloadMakePermanentImageCommit@@YAXPEAX_K@Z 000000018005242c f i DelayImp:delayhlp.obj
 0001:000514c4       ?DloadObtainSection@@YAPEAXPEAK0@Z 00000001800524c4 f i DelayImp:delayhlp.obj
 0001:00051560       ?DloadProtectSection@@YAXKPEAK@Z 0000000180052560 f i DelayImp:delayhlp.obj
 0001:000515f0       ?DloadReleaseSectionWriteAccess@@YAXXZ 00000001800525f0 f i DelayImp:delayhlp.obj
 0001:00051684       __delayLoadHelper2         0000000180052684 f   DelayImp:delayhlp.obj
 0001:00051941       __imp_load_uv_cond_signal  0000000180052941 f   node:node.exe
 0001:0005194d       __imp_load_uv_cond_destroy 000000018005294d f   node:node.exe
 0001:00051959       __imp_load_uv_mutex_unlock 0000000180052959 f   node:node.exe
 0001:00051965       __imp_load_uv_cond_init    0000000180052965 f   node:node.exe
 0001:00051971       __imp_load_uv_once         0000000180052971 f   node:node.exe
 0001:0005197d       __imp_load_uv_mutex_lock   000000018005297d f   node:node.exe
 0001:00051989       __imp_load_uv_cond_wait    0000000180052989 f   node:node.exe
 0001:00051995       __imp_load_uv_mutex_destroy 0000000180052995 f   node:node.exe
 0001:000519a1       __imp_load_uv_cond_broadcast 00000001800529a1 f   node:node.exe
 0001:000519ad       __imp_load_uv_mutex_init   00000001800529ad f   node:node.exe
 0001:000519bc       __GSHandlerCheck           00000001800529bc f   LIBCMT:gshandler.obj
 0001:000519dc       __GSHandlerCheckCommon     00000001800529dc f   LIBCMT:gshandler.obj
 0001:00051a40       _FindPESection             0000000180052a40 f   LIBCMT:pesect.obj
 0001:00051a90       _IsNonwritableInCurrentImage 0000000180052a90 f   LIBCMT:pesect.obj
 0001:00051ae0       _ValidateImageBase         0000000180052ae0 f   LIBCMT:pesect.obj
 0001:00051b20       __chkstk                   0000000180052b20 f   LIBCMT:chkstk.obj
 0001:00051b20       _alloca_probe              0000000180052b20 f   LIBCMT:chkstk.obj
 0001:00051b90       memcmp                     0000000180052b90 f   libvcruntime:memcmp.obj
 0001:00051c58       __GSHandlerCheck_EH        0000000180052c58 f   LIBCMT:gshandlereh.obj
 0001:00051cf0       _guard_dispatch_icall_nop  0000000180052cf0 f   LIBCMT:guard_dispatch.obj
 0002:00000000       __imp_GetModuleHandleA     000000018005b000     kernel32:KERNEL32.dll
 0002:00000008       __imp_LoadLibraryExA       000000018005b008     kernel32:KERNEL32.dll
 0002:00000010       __imp_CreateDirectoryW     000000018005b010     kernel32:KERNEL32.dll
 0002:00000018       __imp_ReadFile             000000018005b018     kernel32:KERNEL32.dll
 0002:00000020       __imp_FindFirstFileW       000000018005b020     kernel32:KERNEL32.dll
 0002:00000028       __imp_GetFileSizeEx        000000018005b028     kernel32:KERNEL32.dll
 0002:00000030       __imp_FindNextFileW        000000018005b030     kernel32:KERNEL32.dll
 0002:00000038       __imp_WriteFile            000000018005b038     kernel32:KERNEL32.dll
 0002:00000040       __imp_RemoveDirectoryW     000000018005b040     kernel32:KERNEL32.dll
 0002:00000048       __imp_GetTempPathW         000000018005b048     kernel32:KERNEL32.dll
 0002:00000050       __imp_FindClose            000000018005b050     kernel32:KERNEL32.dll
 0002:00000058       __imp_CreateFileW          000000018005b058     kernel32:KERNEL32.dll
 0002:00000060       __imp_MultiByteToWideChar  000000018005b060     kernel32:KERNEL32.dll
 0002:00000068       __imp_Sleep                000000018005b068     kernel32:KERNEL32.dll
 0002:00000070       __imp_GetLastError         000000018005b070     kernel32:KERNEL32.dll
 0002:00000078       __imp_GetFileAttributesExW 000000018005b078     kernel32:KERNEL32.dll
 0002:00000080       __imp_QueryPerformanceFrequency 000000018005b080     kernel32:KERNEL32.dll
 0002:00000088       __imp_DeleteFileW          000000018005b088     kernel32:KERNEL32.dll
 0002:00000090       __imp_CloseHandle          000000018005b090     kernel32:KERNEL32.dll
 0002:00000098       __imp_SetFilePointerEx     000000018005b098     kernel32:KERNEL32.dll
 0002:000000a0       __imp_LocalFree            000000018005b0a0     kernel32:KERNEL32.dll
 0002:000000a8       __imp_MoveFileExW          000000018005b0a8     kernel32:KERNEL32.dll
 0002:000000b0       __imp_WideCharToMultiByte  000000018005b0b0     kernel32:KERNEL32.dll
 0002:000000b8       __imp_FormatMessageA       000000018005b0b8     kernel32:KERNEL32.dll
 0002:000000c0       __imp_QueryPerformanceCounter 000000018005b0c0     kernel32:KERNEL32.dll
 0002:000000c8       __imp_FlushFileBuffers     000000018005b0c8     kernel32:KERNEL32.dll
 0002:000000d0       __imp_GetCurrentThreadId   000000018005b0d0     kernel32:KERNEL32.dll
 0002:000000d8       __imp_GetLocalTime         000000018005b0d8     kernel32:KERNEL32.dll
 0002:000000e0       __imp_EnterCriticalSection 000000018005b0e0     kernel32:KERNEL32.dll
 0002:000000e8       __imp_LeaveCriticalSection 000000018005b0e8     kernel32:KERNEL32.dll
 0002:000000f0       __imp_InitializeCriticalSectionAndSpinCount 000000018005b0f0     kernel32:KERNEL32.dll
 0002:000000f8       __imp_DeleteCriticalSection 000000018005b0f8     kernel32:KERNEL32.dll
 0002:00000100       __imp_SetEvent             000000018005b100     kernel32:KERNEL32.dll
 0002:00000108       __imp_ResetEvent           000000018005b108     kernel32:KERNEL32.dll
 0002:00000110       __imp_WaitForSingleObjectEx 000000018005b110     kernel32:KERNEL32.dll
 0002:00000118       __imp_CreateEventW         000000018005b118     kernel32:KERNEL32.dll
 0002:00000120       __imp_GetModuleHandleW     000000018005b120     kernel32:KERNEL32.dll
 0002:00000128       __imp_GetProcAddress       000000018005b128     kernel32:KERNEL32.dll
 0002:00000130       __imp_RtlCaptureContext    000000018005b130     kernel32:KERNEL32.dll
 0002:00000138       __imp_RtlLookupFunctionEntry 000000018005b138     kernel32:KERNEL32.dll
 0002:00000140       __imp_RtlVirtualUnwind     000000018005b140     kernel32:KERNEL32.dll
 0002:00000148       __imp_UnhandledExceptionFilter 000000018005b148     kernel32:KERNEL32.dll
 0002:00000150       __imp_SetUnhandledExceptionFilter 000000018005b150     kernel32:KERNEL32.dll
 0002:00000158       __imp_GetCurrentProcess    000000018005b158     kernel32:KERNEL32.dll
 0002:00000160       __imp_TerminateProcess     000000018005b160     kernel32:KERNEL32.dll
 0002:00000168       __imp_IsProcessorFeaturePresent 000000018005b168     kernel32:KERNEL32.dll
 0002:00000170       __imp_IsDebuggerPresent    000000018005b170     kernel32:KERNEL32.dll
 0002:00000178       __imp_GetStartupInfoW      000000018005b178     kernel32:KERNEL32.dll
 0002:00000180       __imp_GetCurrentProcessId  000000018005b180     kernel32:KERNEL32.dll
 0002:00000188       __imp_GetSystemTimeAsFileTime 000000018005b188     kernel32:KERNEL32.dll
 0002:00000190       __imp_InitializeSListHead  000000018005b190     kernel32:KERNEL32.dll
 0002:00000198       __imp_RtlUnwindEx          000000018005b198     kernel32:KERNEL32.dll
 0002:000001a0       __imp_RtlPcToFileHeader    000000018005b1a0     kernel32:KERNEL32.dll
 0002:000001a8       __imp_RaiseException       000000018005b1a8     kernel32:KERNEL32.dll
 0002:000001b0       __imp_InterlockedFlushSList 000000018005b1b0     kernel32:KERNEL32.dll
 0002:000001b8       __imp_SetLastError         000000018005b1b8     kernel32:KERNEL32.dll
 0002:000001c0       __imp_EncodePointer        000000018005b1c0     kernel32:KERNEL32.dll
 0002:000001c8       __imp_TlsAlloc             000000018005b1c8     kernel32:KERNEL32.dll
 0002:000001d0       __imp_TlsGetValue          000000018005b1d0     kernel32:KERNEL32.dll
 0002:000001d8       __imp_TlsSetValue          000000018005b1d8     kernel32:KERNEL32.dll
 0002:000001e0       __imp_TlsFree              000000018005b1e0     kernel32:KERNEL32.dll
 0002:000001e8       __imp_FreeLibrary          000000018005b1e8     kernel32:KERNEL32.dll
 0002:000001f0       __imp_LoadLibraryExW       000000018005b1f0     kernel32:KERNEL32.dll
 0002:000001f8       __imp_GetStdHandle         000000018005b1f8     kernel32:KERNEL32.dll
 0002:00000200       __imp_GetFileType          000000018005b200     kernel32:KERNEL32.dll
 0002:00000208       __imp_GetModuleFileNameA   000000018005b208     kernel32:KERNEL32.dll
 0002:00000210       __imp_GetModuleFileNameW   000000018005b210     kernel32:KERNEL32.dll
 0002:00000218       __imp_GetModuleHandleExW   000000018005b218     kernel32:KERNEL32.dll
 0002:00000220       __imp_WriteConsoleW        000000018005b220     kernel32:KERNEL32.dll
 0002:00000228       __imp_CreateThread         000000018005b228     kernel32:KERNEL32.dll
 0002:00000230       __imp_ExitThread           000000018005b230     kernel32:KERNEL32.dll
 0002:00000238       __imp_FreeLibraryAndExitThread 000000018005b238     kernel32:KERNEL32.dll
 0002:00000240       __imp_ExitProcess          000000018005b240     kernel32:KERNEL32.dll
 0002:00000248       __imp_HeapFree             000000018005b248     kernel32:KERNEL32.dll
 0002:00000250       __imp_HeapAlloc            000000018005b250     kernel32:KERNEL32.dll
 0002:00000258       __imp_GetACP               000000018005b258     kernel32:KERNEL32.dll
 0002:00000260       __imp_OutputDebugStringW   000000018005b260     kernel32:KERNEL32.dll
 0002:00000268       __imp_LCMapStringW         000000018005b268     kernel32:KERNEL32.dll
 0002:00000270       __imp_GetConsoleCP         000000018005b270     kernel32:KERNEL32.dll
 0002:00000278       __imp_GetConsoleMode       000000018005b278     kernel32:KERNEL32.dll
 0002:00000280       __imp_FindFirstFileExA     000000018005b280     kernel32:KERNEL32.dll
 0002:00000288       __imp_FindNextFileA        000000018005b288     kernel32:KERNEL32.dll
 0002:00000290       __imp_IsValidCodePage      000000018005b290     kernel32:KERNEL32.dll
 0002:00000298       __imp_GetOEMCP             000000018005b298     kernel32:KERNEL32.dll
 0002:000002a0       __imp_GetCPInfo            000000018005b2a0     kernel32:KERNEL32.dll
 0002:000002a8       __imp_GetCommandLineA      000000018005b2a8     kernel32:KERNEL32.dll
 0002:000002b0       __imp_GetCommandLineW      000000018005b2b0     kernel32:KERNEL32.dll
 0002:000002b8       __imp_GetEnvironmentStringsW 000000018005b2b8     kernel32:KERNEL32.dll
 0002:000002c0       __imp_FreeEnvironmentStringsW 000000018005b2c0     kernel32:KERNEL32.dll
 0002:000002c8       __imp_GetProcessHeap       000000018005b2c8     kernel32:KERNEL32.dll
 0002:000002d0       __imp_GetStringTypeW       000000018005b2d0     kernel32:KERNEL32.dll
 0002:000002d8       __imp_SetStdHandle         000000018005b2d8     kernel32:KERNEL32.dll
 0002:000002e0       __imp_HeapSize             000000018005b2e0     kernel32:KERNEL32.dll
 0002:000002e8       __imp_HeapReAlloc          000000018005b2e8     kernel32:KERNEL32.dll
 0002:000002f0       __imp_SetEndOfFile         000000018005b2f0     kernel32:KERNEL32.dll
 0002:000002f8       __imp_ReadConsoleW         000000018005b2f8     kernel32:KERNEL32.dll
 0002:00000300       __imp_GetSystemInfo        000000018005b300     kernel32:KERNEL32.dll
 0002:00000308       __imp_VirtualProtect       000000018005b308     kernel32:KERNEL32.dll
 0002:00000310       __imp_VirtualQuery         000000018005b310     kernel32:KERNEL32.dll
 0002:00000318       \177KERNEL32_NULL_THUNK_DATA 000000018005b318     kernel32:KERNEL32.dll
 0002:00000320       __guard_check_icall_fptr   000000018005b320     LIBCMT:guard_support.obj
 0002:00000328       __guard_dispatch_icall_fptr 000000018005b328     LIBCMT:guard_support.obj
 0002:00000330       __xc_a                     000000018005b330     LIBCMT:initializers.obj
 0002:00000338       _register_leveldown_       000000018005b338     leveldown.obj
 0002:00000360       __xc_z                     000000018005b360     LIBCMT:initializers.obj
 0002:00000368       __xi_a                     000000018005b368     LIBCMT:initializers.obj
 0002:00000378       __acrt_stdio_initializer   000000018005b378     libucrt:stdio_initializer.obj
 0002:00000380       __acrt_multibyte_initializer 000000018005b380     libucrt:multibyte_initializer.obj
 0002:00000388       __acrt_tran_fma3_initializer 000000018005b388     libucrt:fma3_initializer.obj
 0002:00000390       __xi_z                     000000018005b390     LIBCMT:initializers.obj
 0002:00000398       __xl_a                     000000018005b398     LIBCMT:tlssup.obj
 0002:000003a0       __xl_z                     000000018005b3a0     LIBCMT:tlssup.obj
 0002:000003a8       __xp_a                     000000018005b3a8     LIBCMT:initializers.obj
 0002:000003b0       __acrt_locale_terminator   000000018005b3b0     libucrt:locale_initializer.obj
 0002:000003b8       __dcrt_console_output_terminator 000000018005b3b8     libucrt:console_output_initializer.obj
 0002:000003c0       __acrt_stdio_terminator    000000018005b3c0     libucrt:stdio_initializer.obj
 0002:000003c8       __xp_z                     000000018005b3c8     LIBCMT:initializers.obj
 0002:000003d0       __xt_a                     000000018005b3d0     LIBCMT:initializers.obj
 0002:000003d8       __xt_z                     000000018005b3d8     LIBCMT:initializers.obj
 0002:000003e0       __sz_node_exe              000000018005b3e0     node:node.exe
 0002:000003f8       ??_7exception@std@@6B@     000000018005b3f8     libcpmt:xthrow.obj
 0002:00000408       ??_C@_0BC@EOODALEL@Unknown?5exception@ 000000018005b408     libcpmt:xthrow.obj
 0002:00000428       ??_7bad_alloc@std@@6B@     000000018005b428     libcpmt:xthrow.obj
 0002:00000438       ??_C@_0P@GHFPNOJB@bad?5allocation@ 000000018005b438     libcpmt:xthrow.obj
 0002:00000450       ??_7logic_error@std@@6B@   000000018005b450     libcpmt:xthrow.obj
 0002:00000468       ??_7length_error@std@@6B@  000000018005b468     libcpmt:xthrow.obj
 0002:00000478       _pDefaultRawDllMain        000000018005b478     LIBCMT:dll_dllmain.obj
 0002:00000478       _pRawDllMain               000000018005b478     LIBCMT:dll_dllmain.obj
 0002:000004b0       ??_C@_1EC@JIJBPKFM@?$AAa?$AAp?$AAi?$AA?9?$AAm?$AAs?$AA?9?$AAw?$AAi?$AAn?$AA?9?$AAc?$AAo?$AAr?$AAe@ 000000018005b4b0     LIBCMT:thread_safe_statics.obj
 0002:000004f8       ??_C@_1BK@MGMFAEKH@?$AAk?$AAe?$AAr?$AAn?$AAe?$AAl?$AA3?$AA2?$AA?4?$AAd?$AAl?$AAl@ 000000018005b4f8     LIBCMT:thread_safe_statics.obj
 0002:00000518       ??_C@_0BM@HLJJNPAH@InitializeConditionVariable@ 000000018005b518     LIBCMT:thread_safe_statics.obj
 0002:00000538       ??_C@_0BJ@JEBJOJFJ@SleepConditionVariableCS@ 000000018005b538     LIBCMT:thread_safe_statics.obj
 0002:00000558       ??_C@_0BJ@PGPPEPCC@WakeAllConditionVariable@ 000000018005b558     LIBCMT:thread_safe_statics.obj
 0002:00000580       ??_7type_info@@6B@         000000018005b580     LIBCMT:std_type_info_static.obj
 0002:000005a0       ??_7bad_array_new_length@std@@6B@ 000000018005b5a0     LIBCMT:throw_bad_alloc.obj
 0002:000005b0       ??_C@_0BF@KINCDENJ@bad?5array?5new?5length@ 000000018005b5b0     LIBCMT:throw_bad_alloc.obj
 0002:000006b0       _pDestructExceptionObject  000000018005b6b0     libvcruntime:ehhelpers.obj
 0002:000006c0       ??_7bad_exception@std@@6B@ 000000018005b6c0     libvcruntime:frame.obj
 0002:000006d0       ??_C@_0O@DPKOEFFH@bad?5exception@ 000000018005b6d0     libvcruntime:frame.obj
 0002:000006f8       ??_C@_1DM@KHCHBNEB@?$AAa?$AAp?$AAi?$AA?9?$AAm?$AAs?$AA?9?$AAw?$AAi?$AAn?$AA?9?$AAc?$AAo?$AAr?$AAe@ 000000018005b6f8     libvcruntime:winapi_downlevel.obj
 0002:00000738       ??_C@_1DK@LPPGFMPP@?$AAa?$AAp?$AAi?$AA?9?$AAm?$AAs?$AA?9?$AAw?$AAi?$AAn?$AA?9?$AAc?$AAo?$AAr?$AAe@ 000000018005b738     libvcruntime:winapi_downlevel.obj
 0002:00000778       ??_C@_1BC@GDMECMAK@?$AAk?$AAe?$AAr?$AAn?$AAe?$AAl?$AA3?$AA2@ 000000018005b778     libvcruntime:winapi_downlevel.obj
 0002:00000790       ??_C@_1BA@PFFKHIOG@?$AAa?$AAp?$AAi?$AA?9?$AAm?$AAs?$AA?9@ 000000018005b790     libvcruntime:winapi_downlevel.obj
 0002:000007a0       ??_C@_1BA@IAIFMGEF@?$AAe?$AAx?$AAt?$AA?9?$AAm?$AAs?$AA?9@ 000000018005b7a0     libvcruntime:winapi_downlevel.obj
 0002:000007b8       ??_C@_08KNHFBNJ@FlsAlloc@  000000018005b7b8     libvcruntime:winapi_downlevel.obj
 0002:000007d0       ??_C@_07PEJMOBNF@FlsFree@  000000018005b7d0     libvcruntime:winapi_downlevel.obj
 0002:000007e0       ??_C@_0M@GDNOONDI@FlsGetValue@ 000000018005b7e0     libvcruntime:winapi_downlevel.obj
 0002:000007f8       ??_C@_0M@JCPCPOEF@FlsSetValue@ 000000018005b7f8     libvcruntime:winapi_downlevel.obj
 0002:00000810       ??_C@_0BM@HCFOFFN@InitializeCriticalSectionEx@ 000000018005b810     libvcruntime:winapi_downlevel.obj
 0002:00000b68       ??_C@_08EHJDFFNH@__based?$CI@ 000000018005bb68     libvcruntime:undname.obj
 0002:00000b78       ??_C@_07KOLFKCDI@__cdecl@  000000018005bb78     libvcruntime:undname.obj
 0002:00000b80       ??_C@_08GHMPAG@__pascal@   000000018005bb80     libvcruntime:undname.obj
 0002:00000b90       ??_C@_09IFJBGAPI@__stdcall@ 000000018005bb90     libvcruntime:undname.obj
 0002:00000ba0       ??_C@_0L@NPHFGOKO@__thiscall@ 000000018005bba0     libvcruntime:undname.obj
 0002:00000bb0       ??_C@_0L@JMKHOMEK@__fastcall@ 000000018005bbb0     libvcruntime:undname.obj
 0002:00000bc0       ??_C@_0N@BCKKPABJ@__vectorcall@ 000000018005bbc0     libvcruntime:undname.obj
 0002:00000bd0       ??_C@_09HIJEGCPM@__clrcall@ 000000018005bbd0     libvcruntime:undname.obj
 0002:00000bdc       ??_C@_06GHPCKEAG@__eabi@   000000018005bbdc     libvcruntime:undname.obj
 0002:00000be8       ??_C@_09IOPIDJLG@__swift_1@ 000000018005bbe8     libvcruntime:undname.obj
 0002:00000bf8       ??_C@_09KFNFGKHF@__swift_2@ 000000018005bbf8     libvcruntime:undname.obj
 0002:00000c08       ??_C@_07JOMMBBKO@__ptr64@  000000018005bc08     libvcruntime:undname.obj
 0002:00000c10       ??_C@_0L@PILCLIHE@__restrict@ 000000018005bc10     libvcruntime:undname.obj
 0002:00000c20       ??_C@_0M@GFIIJFMG@__unaligned@ 000000018005bc20     libvcruntime:undname.obj
 0002:00000c30       ??_C@_09DHDLOLLB@restrict?$CI@ 000000018005bc30     libvcruntime:undname.obj
 0002:00000c3c       ??_C@_04NIHEBCM@?5new@     000000018005bc3c     libvcruntime:undname.obj
 0002:00000c48       ??_C@_07FPCDHGMM@?5delete@ 000000018005bc48     libvcruntime:undname.obj
 0002:00000c50       ??_C@_01NEMOKFLO@?$DN@     000000018005bc50     libvcruntime:undname.obj
 0002:00000c54       ??_C@_02GPIOPFAK@?$DO?$DO@ 000000018005bc54     libvcruntime:undname.obj
 0002:00000c58       ??_C@_02FODMEDOG@?$DM?$DM@ 000000018005bc58     libvcruntime:undname.obj
 0002:00000c5c       ??_C@_01DCLJPIOD@?$CB@     000000018005bc5c     libvcruntime:undname.obj
 0002:00000c60       ??_C@_02EGOFBIJA@?$DN?$DN@ 000000018005bc60     libvcruntime:undname.obj
 0002:00000c64       ??_C@_02FDNJECIE@?$CB?$DN@ 000000018005bc64     libvcruntime:undname.obj
 0002:00000c68       ??_C@_02GPECMEKF@?$FL?$FN@ 000000018005bc68     libvcruntime:undname.obj
 0002:00000c70       ??_C@_08LHJFAFGD@operator@ 000000018005bc70     libvcruntime:undname.obj
 0002:00000c7c       ??_C@_02HBOOOICD@?9?$DO@   000000018005bc7c     libvcruntime:undname.obj
 0002:00000c80       ??_C@_01NBENCBCI@?$CK@     000000018005bc80     libvcruntime:undname.obj
 0002:00000c84       ??_C@_02ECNGHCIF@?$CL?$CL@ 000000018005bc84     libvcruntime:undname.obj
 0002:00000c88       ??_C@_02BAABKJLB@?9?9@     000000018005bc88     libvcruntime:undname.obj
 0002:00000c8c       ??_C@_01JOAMLHOP@?9@       000000018005bc8c     libvcruntime:undname.obj
 0002:00000c90       ??_C@_01MIFGBAGJ@?$CL@     000000018005bc90     libvcruntime:undname.obj
 0002:00000c94       ??_C@_01HNPIGOCE@?$CG@     000000018005bc94     libvcruntime:undname.obj
 0002:00000c98       ??_C@_03MNHNFDLC@?9?$DO?$CK@ 000000018005bc98     libvcruntime:undname.obj
 0002:00000c9c       ??_C@_01FGNFDNOH@?$CF@     000000018005bc9c     libvcruntime:undname.obj
 0002:00000ca0       ??_C@_01MNNFJEPP@?$DM@     000000018005bca0     libvcruntime:undname.obj
 0002:00000ca4       ??_C@_02EHCHHCKH@?$DM?$DN@ 000000018005bca4     libvcruntime:undname.obj
 0002:00000ca8       ??_C@_01PPODPGHN@?$DO@     000000018005bca8     libvcruntime:undname.obj
 0002:00000cac       ??_C@_02EEKDKGMJ@?$DO?$DN@ 000000018005bcac     libvcruntime:undname.obj
 0002:00000cb0       ??_C@_01IHBHIGKO@?0@       000000018005bcb0     libvcruntime:undname.obj
 0002:00000cb4       ??_C@_02HCKGKOFO@?$CI?$CJ@ 000000018005bcb4     libvcruntime:undname.obj
 0002:00000cb8       ??_C@_01PJKLJHI@?$HO@      000000018005bcb8     libvcruntime:undname.obj
 0002:00000cbc       ??_C@_01JKBOJNNK@?$FO@     000000018005bcbc     libvcruntime:undname.obj
 0002:00000cc0       ??_C@_01DNKMNLPK@?$HM@     000000018005bcc0     libvcruntime:undname.obj
 0002:00000cc4       ??_C@_02PPKAJPJL@?$CG?$CG@ 000000018005bcc4     libvcruntime:undname.obj
 0002:00000cc8       ??_C@_02NONPIBCD@?$HM?$HM@ 000000018005bcc8     libvcruntime:undname.obj
 0002:00000ccc       ??_C@_02FPIMKNGF@?$CK?$DN@ 000000018005bccc     libvcruntime:undname.obj
 0002:00000cd0       ??_C@_02FOEOMHFC@?$CL?$DN@ 000000018005bcd0     libvcruntime:undname.obj
 0002:00000cd4       ??_C@_02FKMDLLOA@?9?$DN@   000000018005bcd4     libvcruntime:undname.obj
 0002:00000cd8       ??_C@_02FJEHGPIO@?1?$DN@   000000018005bcd8     libvcruntime:undname.obj
 0002:00000cdc       ??_C@_02FENAOKFI@?$CF?$DN@ 000000018005bcdc     libvcruntime:undname.obj
 0002:00000ce0       ??_C@_03IKFCCPFF@?$DO?$DO?$DN@ 000000018005bce0     libvcruntime:undname.obj
 0002:00000ce4       ??_C@_03CDNPDDLA@?$DM?$DM?$DN@ 000000018005bce4     libvcruntime:undname.obj
 0002:00000ce8       ??_C@_02FGJGFEAB@?$CG?$DN@ 000000018005bce8     libvcruntime:undname.obj
 0002:00000cec       ??_C@_02DHLNPPGH@?$HM?$DN@ 000000018005bcec     libvcruntime:undname.obj
 0002:00000cf0       ??_C@_02MHEGNOJ@?$FO?$DN@  000000018005bcf0     libvcruntime:undname.obj
 0002:00000cf8       ??_C@_09IFPLHPGF@?$GAvftable?8@ 000000018005bcf8     libvcruntime:undname.obj
 0002:00000d08       ??_C@_09BLBHBJP@?$GAvbtable?8@ 000000018005bd08     libvcruntime:undname.obj
 0002:00000d18       ??_C@_07FEEIOKP@?$GAvcall?8@ 000000018005bd18     libvcruntime:undname.obj
 0002:00000d20       ??_C@_08LLFFHHDJ@?$GAtypeof?8@ 000000018005bd20     libvcruntime:undname.obj
 0002:00000d30       ??_C@_0BF@KDPPACIK@?$GAlocal?5static?5guard?8@ 000000018005bd30     libvcruntime:undname.obj
 0002:00000d48       ??_C@_08OBABFOLI@?$GAstring?8@ 000000018005bd48     libvcruntime:undname.obj
 0002:00000d58       ??_C@_0BD@JDLKDPAB@?$GAvbase?5destructor?8@ 000000018005bd58     libvcruntime:undname.obj
 0002:00000d70       ??_C@_0BN@DEGPLNFK@?$GAvector?5deleting?5destructor?8@ 000000018005bd70     libvcruntime:undname.obj
 0002:00000d90       ??_C@_0BO@OBMKPJIG@?$GAdefault?5constructor?5closure?8@ 000000018005bd90     libvcruntime:undname.obj
 0002:00000db0       ??_C@_0BN@IMDCHIKM@?$GAscalar?5deleting?5destructor?8@ 000000018005bdb0     libvcruntime:undname.obj
 0002:00000dd0       ??_C@_0BO@PFGOCPJJ@?$GAvector?5constructor?5iterator?8@ 000000018005bdd0     libvcruntime:undname.obj
 0002:00000df0       ??_C@_0BN@LFPFMEDL@?$GAvector?5destructor?5iterator?8@ 000000018005bdf0     libvcruntime:undname.obj
 0002:00000e10       ??_C@_0CE@IKBNEHA@?$GAvector?5vbase?5constructor?5itera@ 000000018005be10     libvcruntime:undname.obj
 0002:00000e38       ??_C@_0BL@NILFHHPC@?$GAvirtual?5displacement?5map?8@ 000000018005be38     libvcruntime:undname.obj
 0002:00000e58       ??_C@_0CB@JONCMFFK@?$GAeh?5vector?5constructor?5iterator@ 000000018005be58     libvcruntime:undname.obj
 0002:00000e80       ??_C@_0CA@GCEOPDGL@?$GAeh?5vector?5destructor?5iterator?8@ 000000018005be80     libvcruntime:undname.obj
 0002:00000ea0       ??_C@_0CH@OOJPLCPH@?$GAeh?5vector?5vbase?5constructor?5it@ 000000018005bea0     libvcruntime:undname.obj
 0002:00000ec8       ??_C@_0BL@LLKPOHJI@?$GAcopy?5constructor?5closure?8@ 000000018005bec8     libvcruntime:undname.obj
 0002:00000ee8       ??_C@_0BA@KBCDOMBN@?$GAudt?5returning?8@ 000000018005bee8     libvcruntime:undname.obj
 0002:00000ef8       ??_C@_03KLGMFNMG@?$GAEH@   000000018005bef8     libvcruntime:undname.obj
 0002:00000efc       ??_C@_05KHLCHHI@?$GARTTI@  000000018005befc     libvcruntime:undname.obj
 0002:00000f08       ??_C@_0BA@KKLDJDLB@?$GAlocal?5vftable?8@ 000000018005bf08     libvcruntime:undname.obj
 0002:00000f18       ??_C@_0CE@IIHCMGGL@?$GAlocal?5vftable?5constructor?5clos@ 000000018005bf18     libvcruntime:undname.obj
 0002:00000f3c       ??_C@_06FHBGPFGH@?5new?$FL?$FN@ 000000018005bf3c     libvcruntime:undname.obj
 0002:00000f48       ??_C@_09LBNFPBCA@?5delete?$FL?$FN@ 000000018005bf48     libvcruntime:undname.obj
 0002:00000f58       ??_C@_0P@HJKNJFNN@?$GAomni?5callsig?8@ 000000018005bf58     libvcruntime:undname.obj
 0002:00000f68       ??_C@_0BL@CNOONJFP@?$GAplacement?5delete?5closure?8@ 000000018005bf68     libvcruntime:undname.obj
 0002:00000f88       ??_C@_0BN@CKNJLHMB@?$GAplacement?5delete?$FL?$FN?5closure?8@ 000000018005bf88     libvcruntime:undname.obj
 0002:00000fa8       ??_C@_0CG@CFDHKGGD@?$GAmanaged?5vector?5constructor?5ite@ 000000018005bfa8     libvcruntime:undname.obj
 0002:00000fd0       ??_C@_0CF@IMGKMJNO@?$GAmanaged?5vector?5destructor?5iter@ 000000018005bfd0     libvcruntime:undname.obj
 0002:00000ff8       ??_C@_0CG@HLDDJMAG@?$GAeh?5vector?5copy?5constructor?5ite@ 000000018005bff8     libvcruntime:undname.obj
 0002:00001020       ??_C@_0CM@FCBBDIGB@?$GAeh?5vector?5vbase?5copy?5construct@ 000000018005c020     libvcruntime:undname.obj
 0002:00001050       ??_C@_0BL@CLIPGLGB@?$GAdynamic?5initializer?5for?5?8@ 000000018005c050     libvcruntime:undname.obj
 0002:00001070       ??_C@_0CB@PDBIFEP@?$GAdynamic?5atexit?5destructor?5for?5@ 000000018005c070     libvcruntime:undname.obj
 0002:00001098       ??_C@_0CD@CGAJBKEJ@?$GAvector?5copy?5constructor?5iterat@ 000000018005c098     libvcruntime:undname.obj
 0002:000010c0       ??_C@_0CJ@GJELGAMM@?$GAvector?5vbase?5copy?5constructor?5@ 000000018005c0c0     libvcruntime:undname.obj
 0002:000010f0       ??_C@_0CL@FGIJHLCE@?$GAmanaged?5vector?5copy?5constructo@ 000000018005c0f0     libvcruntime:undname.obj
 0002:00001120       ??_C@_0BM@PMGGMLDN@?$GAlocal?5static?5thread?5guard?8@ 000000018005c120     libvcruntime:undname.obj
 0002:00001140       ??_C@_0N@BDNMDMOL@operator?5?$CC?$CC?5@ 000000018005c140     libvcruntime:undname.obj
 0002:00001150       ??_C@_0BC@GGEBGALA@operator?5co_await@ 000000018005c150     libvcruntime:undname.obj
 0002:00001168       ??_C@_0BC@DAFEJGAK@?5Type?5Descriptor?8@ 000000018005c168     libvcruntime:undname.obj
 0002:00001180       ??_C@_0BM@LDKODKLH@?5Base?5Class?5Descriptor?5at?5?$CI@ 000000018005c180     libvcruntime:undname.obj
 0002:000011a0       ??_C@_0BD@LGICGFMM@?5Base?5Class?5Array?8@ 000000018005c1a0     libvcruntime:undname.obj
 0002:000011b8       ??_C@_0BN@MECKDCOJ@?5Class?5Hierarchy?5Descriptor?8@ 000000018005c1b8     libvcruntime:undname.obj
 0002:000011d8       ??_C@_0BK@CFCOFLF@?5Complete?5Object?5Locator?8@ 000000018005c1d8     libvcruntime:undname.obj
 0002:00001200       ??_C@_1FE@LHBLIKM@?$AAA?$AAs?$AAs?$AAe?$AAr?$AAt?$AAi?$AAo?$AAn?$AA?5?$AAf?$AAa?$AAi?$AAl?$AAe?$AAd?$AA?3?$AA?5?$AA?$CF?$AAT?$AAs?$AA?0?$AA?5?$AAf?$AAi?$AAl?$AAe?$AA?5?$AA?$CF?$AAT?$AAs?$AA?0@ 000000018005c200     libucrt:assert.obj
 0002:00001260       ??_C@_1EK@MBDPDCGA@?$AAM?$AAi?$AAc?$AAr?$AAo?$AAs?$AAo?$AAf?$AAt?$AA?5?$AAV?$AAi?$AAs?$AAu?$AAa?$AAl?$AA?5?$AAC?$AA?$CL?$AA?$CL?$AA?5?$AAR?$AAu?$AAn?$AAt?$AAi?$AAm?$AAe?$AA?5?$AAL?$AAi?$AAb@ 000000018005c260     libucrt:assert.obj
 0002:000012b0       ??_C@_1CE@OJBNHDMO@?$AAA?$AAs?$AAs?$AAe?$AAr?$AAt?$AAi?$AAo?$AAn?$AA?5?$AAf?$AAa?$AAi?$AAl?$AAe?$AAd?$AA?$CB?$AA?$AA@ 000000018005c2b0     libucrt:assert.obj
 0002:000012d8       ??_C@_1BE@PHKBBGE@?$AAP?$AAr?$AAo?$AAg?$AAr?$AAa?$AAm?$AA?3?$AA?5?$AA?$AA@ 000000018005c2d8     libucrt:assert.obj
 0002:000012f0       ??_C@_1O@HEMHKNDC@?$AAF?$AAi?$AAl?$AAe?$AA?3?$AA?5?$AA?$AA@ 000000018005c2f0     libucrt:assert.obj
 0002:00001300       ??_C@_1O@KCAFKHJE@?$AAL?$AAi?$AAn?$AAe?$AA?3?$AA?5?$AA?$AA@ 000000018005c300     libucrt:assert.obj
 0002:00001310       ??_C@_1BK@PEDCIPMA@?$AAE?$AAx?$AAp?$AAr?$AAe?$AAs?$AAs?$AAi?$AAo?$AAn?$AA?3?$AA?5?$AA?$AA@ 000000018005c310     libucrt:assert.obj
 0002:00001330       ??_C@_1OA@EGMLFBHJ@?$AAF?$AAo?$AAr?$AA?5?$AAi?$AAn?$AAf?$AAo?$AAr?$AAm?$AAa?$AAt?$AAi?$AAo?$AAn?$AA?5?$AAo?$AAn?$AA?5?$AAh?$AAo?$AAw?$AA?5?$AAy?$AAo?$AAu?$AAr?$AA?5?$AAp?$AAr?$AAo?$AAg@ 000000018005c330     libucrt:assert.obj
 0002:00001410       ??_C@_1HK@POCJMFGK@?$AA?$CI?$AAP?$AAr?$AAe?$AAs?$AAs?$AA?5?$AAR?$AAe?$AAt?$AAr?$AAy?$AA?5?$AAt?$AAo?$AA?5?$AAd?$AAe?$AAb?$AAu?$AAg?$AA?5?$AAt?$AAh?$AAe?$AA?5?$AAa?$AAp?$AAp?$AAl?$AAi?$AAc@ 000000018005c410     libucrt:assert.obj
 0002:00001490       ??_C@_17LGKOMLJ@?$AA?4?$AA?4?$AA?4?$AA?$AA@ 000000018005c490     libucrt:assert.obj
 0002:00001498       ??_C@_13LBAGMAIH@?$AA?6?$AA?$AA@ 000000018005c498     libucrt:assert.obj
 0002:0000149c       ??_C@_15IABLJNFO@?$AA?6?$AA?6?$AA?$AA@ 000000018005c49c     libucrt:assert.obj
 0002:000014a8       ??_C@_1CO@EAEJAADC@?$AA?$DM?$AAp?$AAr?$AAo?$AAg?$AAr?$AAa?$AAm?$AA?5?$AAn?$AAa?$AAm?$AAe?$AA?5?$AAu?$AAn?$AAk?$AAn?$AAo?$AAw?$AAn?$AA?$DO?$AA?$AA@ 000000018005c4a8     libucrt:assert.obj
 0002:000014e0       standard_lookup_table      000000018005c4e0     libucrt:output.obj
 0002:00001540       format_validation_lookup_table 000000018005c540     libucrt:output.obj
 0002:000015a0       ??_C@_1O@CEDCILHN@?$AA?$CI?$AAn?$AAu?$AAl?$AAl?$AA?$CJ?$AA?$AA@ 000000018005c5a0     libucrt:output.obj
 0002:000015b0       ??_C@_06OJHGLDPL@?$CInull?$CJ?$AA@ 000000018005c5b0     libucrt:output.obj
 0002:00001720       ??_C@_0EA@FCLIIPNN@Visual?5C?$CL?$CL?5CRT?3?5Not?5enough?5memor@ 000000018005c720     libucrt:strerror.obj
 0002:00001760       __acrt_exception_action_table 000000018005c760     libucrt:exception_filter.obj
 0002:00001820       __acrt_signal_action_table_count 000000018005c820     libucrt:exception_filter.obj
 0002:00001828       __acrt_signal_action_first_fpe_index 000000018005c828     libucrt:exception_filter.obj
 0002:00001830       __acrt_signal_action_fpe_count 000000018005c830     libucrt:exception_filter.obj
 0002:00001838       ??_C@_1BI@BGOHAHKC@?$AAm?$AAs?$AAc?$AAo?$AAr?$AAe?$AAe?$AA?4?$AAd?$AAl?$AAl?$AA?$AA@ 000000018005c838     libucrt:exit.obj
 0002:00001850       ??_C@_0P@MIGLKIOC@CorExitProcess?$AA@ 000000018005c850     libucrt:exit.obj
 0002:00001960       __lc_time_c                000000018005c960     libucrt:nlsdata.obj
 0002:00001c20       ??_C@_03KOEHGMDN@Sun?$AA@  000000018005cc20     libucrt:nlsdata.obj
 0002:00001c24       ??_C@_03PDAGKDH@Mon?$AA@   000000018005cc24     libucrt:nlsdata.obj
 0002:00001c28       ??_C@_03NAGEINEP@Tue?$AA@  000000018005cc28     libucrt:nlsdata.obj
 0002:00001c2c       ??_C@_03MHOMLAJA@Wed?$AA@  000000018005cc2c     libucrt:nlsdata.obj
 0002:00001c30       ??_C@_03IOFIKPDN@Thu?$AA@  000000018005cc30     libucrt:nlsdata.obj
 0002:00001c34       ??_C@_03IDIOELNC@Fri?$AA@  000000018005cc34     libucrt:nlsdata.obj
 0002:00001c38       ??_C@_03FEFJNEK@Sat?$AA@   000000018005cc38     libucrt:nlsdata.obj
 0002:00001c3c       ??_C@_06OOPIFAJ@Sunday?$AA@ 000000018005cc3c     libucrt:nlsdata.obj
 0002:00001c44       ??_C@_06JLEDEDGH@Monday?$AA@ 000000018005cc44     libucrt:nlsdata.obj
 0002:00001c50       ??_C@_07BAAGCFCM@Tuesday?$AA@ 000000018005cc50     libucrt:nlsdata.obj
 0002:00001c58       ??_C@_09DLIGFAKA@Wednesday?$AA@ 000000018005cc58     libucrt:nlsdata.obj
 0002:00001c68       ??_C@_08HACCIKIA@Thursday?$AA@ 000000018005cc68     libucrt:nlsdata.obj
 0002:00001c74       ??_C@_06JECMNKMI@Friday?$AA@ 000000018005cc74     libucrt:nlsdata.obj
 0002:00001c80       ??_C@_08INBOOONO@Saturday?$AA@ 000000018005cc80     libucrt:nlsdata.obj
 0002:00001c8c       ??_C@_03JIHJHPIE@Jan?$AA@  000000018005cc8c     libucrt:nlsdata.obj
 0002:00001c90       ??_C@_03HJBDCHOM@Feb?$AA@  000000018005cc90     libucrt:nlsdata.obj
 0002:00001c94       ??_C@_03ODNJBKGA@Mar?$AA@  000000018005cc94     libucrt:nlsdata.obj
 0002:00001c98       ??_C@_03LEOLGMJP@Apr?$AA@  000000018005cc98     libucrt:nlsdata.obj
 0002:00001c9c       ??_C@_03CNMDKL@May?$AA@    000000018005cc9c     libucrt:nlsdata.obj
 0002:00001ca0       ??_C@_03IDFGHECI@Jun?$AA@  000000018005cca0     libucrt:nlsdata.obj
 0002:00001ca4       ??_C@_03LBGABGKK@Jul?$AA@  000000018005cca4     libucrt:nlsdata.obj
 0002:00001ca8       ??_C@_03IFJFEIGA@Aug?$AA@  000000018005cca8     libucrt:nlsdata.obj
 0002:00001cac       ??_C@_03GGCAPAJC@Sep?$AA@  000000018005ccac     libucrt:nlsdata.obj
 0002:00001cb0       ??_C@_03BMAOKBAD@Oct?$AA@  000000018005ccb0     libucrt:nlsdata.obj
 0002:00001cb4       ??_C@_03JPJOFNIA@Nov?$AA@  000000018005ccb4     libucrt:nlsdata.obj
 0002:00001cb8       ??_C@_03MKABNOCG@Dec?$AA@  000000018005ccb8     libucrt:nlsdata.obj
 0002:00001cc0       ??_C@_07CGJPFGJA@January?$AA@ 000000018005ccc0     libucrt:nlsdata.obj
 0002:00001cc8       ??_C@_08GNJGEPFN@February?$AA@ 000000018005ccc8     libucrt:nlsdata.obj
 0002:00001cd4       ??_C@_05HPCKOFNC@March?$AA@ 000000018005ccd4     libucrt:nlsdata.obj
 0002:00001cdc       ??_C@_05DMJDNLEJ@April?$AA@ 000000018005ccdc     libucrt:nlsdata.obj
 0002:00001ce4       ??_C@_04CNLMGBGM@June?$AA@ 000000018005cce4     libucrt:nlsdata.obj
 0002:00001cec       ??_C@_04MIEPOIFP@July?$AA@ 000000018005ccec     libucrt:nlsdata.obj
 0002:00001cf4       ??_C@_06LBBHFDDG@August?$AA@ 000000018005ccf4     libucrt:nlsdata.obj
 0002:00001d00       ??_C@_09BHHEALKD@September?$AA@ 000000018005cd00     libucrt:nlsdata.obj
 0002:00001d10       ??_C@_07JJNFCEND@October?$AA@ 000000018005cd10     libucrt:nlsdata.obj
 0002:00001d18       ??_C@_08HCHEGEOA@November?$AA@ 000000018005cd18     libucrt:nlsdata.obj
 0002:00001d28       ??_C@_08EDHMEBNP@December?$AA@ 000000018005cd28     libucrt:nlsdata.obj
 0002:00001d34       ??_C@_02DEDBPAFC@AM?$AA@   000000018005cd34     libucrt:nlsdata.obj
 0002:00001d38       ??_C@_02CJNFDJBF@PM?$AA@   000000018005cd38     libucrt:nlsdata.obj
 0002:00001d40       ??_C@_08BPBNCDIB@MM?1dd?1yy?$AA@ 000000018005cd40     libucrt:nlsdata.obj
 0002:00001d50       ??_C@_0BE@CKGJFCPC@dddd?0?5MMMM?5dd?0?5yyyy?$AA@ 000000018005cd50     libucrt:nlsdata.obj
 0002:00001d68       ??_C@_08JCCMCCIL@HH?3mm?3ss?$AA@ 000000018005cd68     libucrt:nlsdata.obj
 0002:00001d78       ??_C@_17MBGCMIPB@?$AAS?$AAu?$AAn?$AA?$AA@ 000000018005cd78     libucrt:nlsdata.obj
 0002:00001d80       ??_C@_17KBOMKBF@?$AAM?$AAo?$AAn?$AA?$AA@ 000000018005cd80     libucrt:nlsdata.obj
 0002:00001d88       ??_C@_17BMKGEGOJ@?$AAT?$AAu?$AAe?$AA?$AA@ 000000018005cd88     libucrt:nlsdata.obj
 0002:00001d90       ??_C@_17CJEDCEPE@?$AAW?$AAe?$AAd?$AA?$AA@ 000000018005cd90     libucrt:nlsdata.obj
 0002:00001d98       ??_C@_17PDPHAADD@?$AAT?$AAh?$AAu?$AA?$AA@ 000000018005cd98     libucrt:nlsdata.obj
 0002:00001da0       ??_C@_17HFOLPPLP@?$AAF?$AAr?$AAi?$AA?$AA@ 000000018005cda0     libucrt:nlsdata.obj
 0002:00001da8       ??_C@_17GGIBDPIH@?$AAS?$AAa?$AAt?$AA?$AA@ 000000018005cda8     libucrt:nlsdata.obj
 0002:00001db0       ??_C@_1O@IHNHDHPB@?$AAS?$AAu?$AAn?$AAd?$AAa?$AAy?$AA?$AA@ 000000018005cdb0     libucrt:nlsdata.obj
 0002:00001dc0       ??_C@_1O@MMNBFLIA@?$AAM?$AAo?$AAn?$AAd?$AAa?$AAy?$AA?$AA@ 000000018005cdc0     libucrt:nlsdata.obj
 0002:00001dd0       ??_C@_1BA@ENFBFFEK@?$AAT?$AAu?$AAe?$AAs?$AAd?$AAa?$AAy?$AA?$AA@ 000000018005cdd0     libucrt:nlsdata.obj
 0002:00001de0       ??_C@_1BE@EBOGMDOH@?$AAW?$AAe?$AAd?$AAn?$AAe?$AAs?$AAd?$AAa?$AAy?$AA?$AA@ 000000018005cde0     libucrt:nlsdata.obj
 0002:00001df8       ??_C@_1BC@HHMNLIHE@?$AAT?$AAh?$AAu?$AAr?$AAs?$AAd?$AAa?$AAy?$AA?$AA@ 000000018005cdf8     libucrt:nlsdata.obj
 0002:00001e10       ??_C@_1O@PDICJHAG@?$AAF?$AAr?$AAi?$AAd?$AAa?$AAy?$AA?$AA@ 000000018005ce10     libucrt:nlsdata.obj
 0002:00001e20       ??_C@_1BC@ENMNNPAJ@?$AAS?$AAa?$AAt?$AAu?$AAr?$AAd?$AAa?$AAy?$AA?$AA@ 000000018005ce20     libucrt:nlsdata.obj
 0002:00001e38       ??_C@_17DKNBKCHM@?$AAJ?$AAa?$AAn?$AA?$AA@ 000000018005ce38     libucrt:nlsdata.obj
 0002:00001e40       ??_C@_17LMDJEKJN@?$AAF?$AAe?$AAb?$AA?$AA@ 000000018005ce40     libucrt:nlsdata.obj
 0002:00001e48       ??_C@_17CKNLEDEC@?$AAM?$AAa?$AAr?$AA?$AA@ 000000018005ce48     libucrt:nlsdata.obj
 0002:00001e50       ??_C@_17LFPOIHDD@?$AAA?$AAp?$AAr?$AA?$AA@ 000000018005ce50     libucrt:nlsdata.obj
 0002:00001e58       ??_C@_17PNNKMEED@?$AAM?$AAa?$AAy?$AA?$AA@ 000000018005ce58     libucrt:nlsdata.obj
 0002:00001e60       ??_C@_17KCJGOCPB@?$AAJ?$AAu?$AAn?$AA?$AA@ 000000018005ce60     libucrt:nlsdata.obj
 0002:00001e68       ??_C@_17IJPCKHK@?$AAJ?$AAu?$AAl?$AA?$AA@ 000000018005ce68     libucrt:nlsdata.obj
 0002:00001e70       ??_C@_17ICPELBCN@?$AAA?$AAu?$AAg?$AA?$AA@ 000000018005ce70     libucrt:nlsdata.obj
 0002:00001e78       ??_C@_17HCHCOKMG@?$AAS?$AAe?$AAp?$AA?$AA@ 000000018005ce78     libucrt:nlsdata.obj
 0002:00001e80       ??_C@_17FNLKOI@?$AAO?$AAc?$AAt?$AA?$AA@ 000000018005ce80     libucrt:nlsdata.obj
 0002:00001e88       ??_C@_17BBDMLCIG@?$AAN?$AAo?$AAv?$AA?$AA@ 000000018005ce88     libucrt:nlsdata.obj
 0002:00001e90       ??_C@_17EGKACKIF@?$AAD?$AAe?$AAc?$AA?$AA@ 000000018005ce90     libucrt:nlsdata.obj
 0002:00001e98       ??_C@_1BA@EFMEIEBA@?$AAJ?$AAa?$AAn?$AAu?$AAa?$AAr?$AAy?$AA?$AA@ 000000018005ce98     libucrt:nlsdata.obj
 0002:00001ea8       ??_C@_1BC@JGDDFFAM@?$AAF?$AAe?$AAb?$AAr?$AAu?$AAa?$AAr?$AAy?$AA?$AA@ 000000018005cea8     libucrt:nlsdata.obj
 0002:00001ec0       ??_C@_1M@IKEENEDF@?$AAM?$AAa?$AAr?$AAc?$AAh?$AA?$AA@ 000000018005cec0     libucrt:nlsdata.obj
 0002:00001ed0       ??_C@_1M@GJNLMHFD@?$AAA?$AAp?$AAr?$AAi?$AAl?$AA?$AA@ 000000018005ced0     libucrt:nlsdata.obj
 0002:00001ee0       ??_C@_19EPFLPGAP@?$AAJ?$AAu?$AAn?$AAe?$AA?$AA@ 000000018005cee0     libucrt:nlsdata.obj
 0002:00001ef0       ??_C@_19BIFMLPCD@?$AAJ?$AAu?$AAl?$AAy?$AA?$AA@ 000000018005cef0     libucrt:nlsdata.obj
 0002:00001f00       ??_C@_1O@PAHLKOAC@?$AAA?$AAu?$AAg?$AAu?$AAs?$AAt?$AA?$AA@ 000000018005cf00     libucrt:nlsdata.obj
 0002:00001f10       ??_C@_1BE@DKAAMBJL@?$AAS?$AAe?$AAp?$AAt?$AAe?$AAm?$AAb?$AAe?$AAr?$AA?$AA@ 000000018005cf10     libucrt:nlsdata.obj
 0002:00001f28       ??_C@_1BA@EPANDLNG@?$AAO?$AAc?$AAt?$AAo?$AAb?$AAe?$AAr?$AA?$AA@ 000000018005cf28     libucrt:nlsdata.obj
 0002:00001f38       ??_C@_1BC@BGLIFPF@?$AAN?$AAo?$AAv?$AAe?$AAm?$AAb?$AAe?$AAr?$AA?$AA@ 000000018005cf38     libucrt:nlsdata.obj
 0002:00001f50       ??_C@_1BC@FEMKIFH@?$AAD?$AAe?$AAc?$AAe?$AAm?$AAb?$AAe?$AAr?$AA?$AA@ 000000018005cf50     libucrt:nlsdata.obj
 0002:00001f64       ??_C@_15ODEHAHHF@?$AAA?$AAM?$AA?$AA@ 000000018005cf64     libucrt:nlsdata.obj
 0002:00001f6c       ??_C@_15CLMNNGEL@?$AAP?$AAM?$AA?$AA@ 000000018005cf6c     libucrt:nlsdata.obj
 0002:00001f78       ??_C@_1BC@IEBCMHCM@?$AAM?$AAM?$AA?1?$AAd?$AAd?$AA?1?$AAy?$AAy?$AA?$AA@ 000000018005cf78     libucrt:nlsdata.obj
 0002:00001f90       ??_C@_1CI@KNAKOEBC@?$AAd?$AAd?$AAd?$AAd?$AA?0?$AA?5?$AAM?$AAM?$AAM?$AAM?$AA?5?$AAd?$AAd?$AA?0?$AA?5?$AAy?$AAy?$AAy?$AAy?$AA?$AA@ 000000018005cf90     libucrt:nlsdata.obj
 0002:00001fb8       ??_C@_1BC@GDGBMEMK@?$AAH?$AAH?$AA?3?$AAm?$AAm?$AA?3?$AAs?$AAs?$AA?$AA@ 000000018005cfb8     libucrt:nlsdata.obj
 0002:00001fd0       ??_C@_1M@BMHNFIME@?$AAe?$AAn?$AA?9?$AAU?$AAS?$AA?$AA@ 000000018005cfd0     libucrt:nlsdata.obj
 0002:00001fdc       ??_C@_03OEIAHPBN@INF?$AA@  000000018005cfdc     libucrt:cvt.obj
 0002:00001fe0       ??_C@_03OJHLLCGB@inf?$AA@  000000018005cfe0     libucrt:cvt.obj
 0002:00001fe4       ??_C@_03LKNCIKJB@NAN?$AA@  000000018005cfe4     libucrt:cvt.obj
 0002:00001fe8       ??_C@_03LHCJEHON@nan?$AA@  000000018005cfe8     libucrt:cvt.obj
 0002:00001ff0       ??_C@_09OFJJIMPC@NAN?$CISNAN?$CJ?$AA@ 000000018005cff0     libucrt:cvt.obj
 0002:00002000       ??_C@_09IPFBKMDL@nan?$CIsnan?$CJ?$AA@ 000000018005d000     libucrt:cvt.obj
 0002:00002010       ??_C@_08IKHNHAJ@NAN?$CIIND?$CJ?$AA@ 000000018005d010     libucrt:cvt.obj
 0002:00002020       ??_C@_08OFCDMILK@nan?$CIind?$CJ?$AA@ 000000018005d020     libucrt:cvt.obj
 0002:0000202c       ??_C@_05KLBDPFGC@e?$CL000?$AA@ 000000018005d02c     libucrt:cvt.obj
 0002:000020e0       ??_C@_1EA@JGEFHKEI@?$AAa?$AAp?$AAi?$AA?9?$AAm?$AAs?$AA?9?$AAw?$AAi?$AAn?$AA?9?$AAc?$AAo?$AAr?$AAe?$AA?9?$AAd?$AAa?$AAt?$AAe?$AAt?$AAi?$AAm?$AAe?$AA?9?$AAl?$AA1?$AA?9?$AA1?$AA?9?$AA1?$AA?$AA@ 000000018005d0e0     libucrt:winapi_thunks.obj
 0002:00002120       ??_C@_1DM@KHCHBNEB@?$AAa?$AAp?$AAi?$AA?9?$AAm?$AAs?$AA?9?$AAw?$AAi?$AAn?$AA?9?$AAc?$AAo?$AAr?$AAe?$AA?9?$AAf?$AAi?$AAb?$AAe?$AAr?$AAs?$AA?9?$AAl?$AA1?$AA?9?$AA1?$AA?9?$AA1?$AA?$AA@ 000000018005d120     libucrt:winapi_thunks.obj
 0002:00002160       ??_C@_1DI@IJCEHOCB@?$AAa?$AAp?$AAi?$AA?9?$AAm?$AAs?$AA?9?$AAw?$AAi?$AAn?$AA?9?$AAc?$AAo?$AAr?$AAe?$AA?9?$AAf?$AAi?$AAl?$AAe?$AA?9?$AAl?$AA1?$AA?9?$AA2?$AA?9?$AA2?$AA?$AA@ 000000018005d160     libucrt:winapi_thunks.obj
 0002:000021a0       ??_C@_1EI@MPIAOHOC@?$AAa?$AAp?$AAi?$AA?9?$AAm?$AAs?$AA?9?$AAw?$AAi?$AAn?$AA?9?$AAc?$AAo?$AAr?$AAe?$AA?9?$AAl?$AAo?$AAc?$AAa?$AAl?$AAi?$AAz?$AAa?$AAt?$AAi?$AAo?$AAn?$AA?9?$AAl?$AA1?$AA?9@ 000000018005d1a0     libucrt:winapi_thunks.obj
 0002:000021f0       ??_C@_1FK@FPHCKFIE@?$AAa?$AAp?$AAi?$AA?9?$AAm?$AAs?$AA?9?$AAw?$AAi?$AAn?$AA?9?$AAc?$AAo?$AAr?$AAe?$AA?9?$AAl?$AAo?$AAc?$AAa?$AAl?$AAi?$AAz?$AAa?$AAt?$AAi?$AAo?$AAn?$AA?9?$AAo?$AAb?$AAs@ 000000018005d1f0     libucrt:winapi_thunks.obj
 0002:00002250       ??_C@_1EM@DILCGIIO@?$AAa?$AAp?$AAi?$AA?9?$AAm?$AAs?$AA?9?$AAw?$AAi?$AAn?$AA?9?$AAc?$AAo?$AAr?$AAe?$AA?9?$AAp?$AAr?$AAo?$AAc?$AAe?$AAs?$AAs?$AAt?$AAh?$AAr?$AAe?$AAa?$AAd?$AAs?$AA?9?$AAl@ 000000018005d250     libucrt:winapi_thunks.obj
 0002:000022a0       ??_C@_1DM@LNCGDDPN@?$AAa?$AAp?$AAi?$AA?9?$AAm?$AAs?$AA?9?$AAw?$AAi?$AAn?$AA?9?$AAc?$AAo?$AAr?$AAe?$AA?9?$AAs?$AAt?$AAr?$AAi?$AAn?$AAg?$AA?9?$AAl?$AA1?$AA?9?$AA1?$AA?9?$AA0?$AA?$AA@ 000000018005d2a0     libucrt:winapi_thunks.obj
 0002:000022e0       ??_C@_1DK@LPPGFMPP@?$AAa?$AAp?$AAi?$AA?9?$AAm?$AAs?$AA?9?$AAw?$AAi?$AAn?$AA?9?$AAc?$AAo?$AAr?$AAe?$AA?9?$AAs?$AAy?$AAn?$AAc?$AAh?$AA?9?$AAl?$AA1?$AA?9?$AA2?$AA?9?$AA0?$AA?$AA@ 000000018005d2e0     libucrt:winapi_thunks.obj
 0002:00002320       ??_C@_1DO@FPAPJEMD@?$AAa?$AAp?$AAi?$AA?9?$AAm?$AAs?$AA?9?$AAw?$AAi?$AAn?$AA?9?$AAc?$AAo?$AAr?$AAe?$AA?9?$AAs?$AAy?$AAs?$AAi?$AAn?$AAf?$AAo?$AA?9?$AAl?$AA1?$AA?9?$AA2?$AA?9?$AA1?$AA?$AA@ 000000018005d320     libucrt:winapi_thunks.obj
 0002:00002360       ??_C@_1DK@NDHNAHIO@?$AAa?$AAp?$AAi?$AA?9?$AAm?$AAs?$AA?9?$AAw?$AAi?$AAn?$AA?9?$AAc?$AAo?$AAr?$AAe?$AA?9?$AAw?$AAi?$AAn?$AAr?$AAt?$AA?9?$AAl?$AA1?$AA?9?$AA1?$AA?9?$AA0?$AA?$AA@ 000000018005d360     libucrt:winapi_thunks.obj
 0002:000023a0       ??_C@_1DM@KGHDGBCM@?$AAa?$AAp?$AAi?$AA?9?$AAm?$AAs?$AA?9?$AAw?$AAi?$AAn?$AA?9?$AAc?$AAo?$AAr?$AAe?$AA?9?$AAx?$AAs?$AAt?$AAa?$AAt?$AAe?$AA?9?$AAl?$AA2?$AA?9?$AA1?$AA?9?$AA0?$AA?$AA@ 000000018005d3a0     libucrt:winapi_thunks.obj
 0002:000023e0       ??_C@_1EO@IJIOEFOH@?$AAa?$AAp?$AAi?$AA?9?$AAm?$AAs?$AA?9?$AAw?$AAi?$AAn?$AA?9?$AAr?$AAt?$AAc?$AAo?$AAr?$AAe?$AA?9?$AAn?$AAt?$AAu?$AAs?$AAe?$AAr?$AA?9?$AAw?$AAi?$AAn?$AAd?$AAo?$AAw?$AA?9@ 000000018005d3e0     libucrt:winapi_thunks.obj
 0002:00002430       ??_C@_1FG@HHGEKANL@?$AAa?$AAp?$AAi?$AA?9?$AAm?$AAs?$AA?9?$AAw?$AAi?$AAn?$AA?9?$AAs?$AAe?$AAc?$AAu?$AAr?$AAi?$AAt?$AAy?$AA?9?$AAs?$AAy?$AAs?$AAt?$AAe?$AAm?$AAf?$AAu?$AAn?$AAc?$AAt?$AAi@ 000000018005d430     libucrt:winapi_thunks.obj
 0002:00002490       ??_C@_1EG@DBIOJECG@?$AAe?$AAx?$AAt?$AA?9?$AAm?$AAs?$AA?9?$AAw?$AAi?$AAn?$AA?9?$AAn?$AAt?$AAu?$AAs?$AAe?$AAr?$AA?9?$AAd?$AAi?$AAa?$AAl?$AAo?$AAg?$AAb?$AAo?$AAx?$AA?9?$AAl?$AA1?$AA?9?$AA1@ 000000018005d490     libucrt:winapi_thunks.obj
 0002:000024e0       ??_C@_1EO@FIHMJCLF@?$AAe?$AAx?$AAt?$AA?9?$AAm?$AAs?$AA?9?$AAw?$AAi?$AAn?$AA?9?$AAn?$AAt?$AAu?$AAs?$AAe?$AAr?$AA?9?$AAw?$AAi?$AAn?$AAd?$AAo?$AAw?$AAs?$AAt?$AAa?$AAt?$AAi?$AAo?$AAn?$AA?9@ 000000018005d4e0     libucrt:winapi_thunks.obj
 0002:00002530       ??_C@_1BC@DNHGCMLG@?$AAa?$AAd?$AAv?$AAa?$AAp?$AAi?$AA3?$AA2?$AA?$AA@ 000000018005d530     libucrt:winapi_thunks.obj
 0002:00002548       ??_C@_1BC@GDMECMAK@?$AAk?$AAe?$AAr?$AAn?$AAe?$AAl?$AA3?$AA2?$AA?$AA@ 000000018005d548     libucrt:winapi_thunks.obj
 0002:00002560       ??_C@_1M@OAIMIKLP@?$AAn?$AAt?$AAd?$AAl?$AAl?$AA?$AA@ 000000018005d560     libucrt:winapi_thunks.obj
 0002:00002570       ??_C@_1EG@DPGNFKGC@?$AAa?$AAp?$AAi?$AA?9?$AAm?$AAs?$AA?9?$AAw?$AAi?$AAn?$AA?9?$AAa?$AAp?$AAp?$AAm?$AAo?$AAd?$AAe?$AAl?$AA?9?$AAr?$AAu?$AAn?$AAt?$AAi?$AAm?$AAe?$AA?9?$AAl?$AA1?$AA?9?$AA1@ 000000018005d570     libucrt:winapi_thunks.obj
 0002:000025b8       ??_C@_1O@BCCLBEOE@?$AAu?$AAs?$AAe?$AAr?$AA3?$AA2?$AA?$AA@ 000000018005d5b8     libucrt:winapi_thunks.obj
 0002:000025c8       ??_C@_1BA@PFFKHIOG@?$AAa?$AAp?$AAi?$AA?9?$AAm?$AAs?$AA?9?$AA?$AA@ 000000018005d5c8     libucrt:winapi_thunks.obj
 0002:000025d8       ??_C@_1BA@IAIFMGEF@?$AAe?$AAx?$AAt?$AA?9?$AAm?$AAs?$AA?9?$AA?$AA@ 000000018005d5d8     libucrt:winapi_thunks.obj
 0002:000025f0       ??_C@_0BA@FHFNEAED@AreFileApisANSI?$AA@ 000000018005d5f0     libucrt:winapi_thunks.obj
 0002:00002608       ??_C@_08KNHFBNJ@FlsAlloc?$AA@ 000000018005d608     libucrt:winapi_thunks.obj
 0002:00002620       ??_C@_07PEJMOBNF@FlsFree?$AA@ 000000018005d620     libucrt:winapi_thunks.obj
 0002:00002630       ??_C@_0M@GDNOONDI@FlsGetValue?$AA@ 000000018005d630     libucrt:winapi_thunks.obj
 0002:00002648       ??_C@_0M@JCPCPOEF@FlsSetValue?$AA@ 000000018005d648     libucrt:winapi_thunks.obj
 0002:00002660       ??_C@_0BA@HNOPNCHB@GetActiveWindow?$AA@ 000000018005d660     libucrt:winapi_thunks.obj
 0002:00002678       ??_C@_0BD@HHGDFDBJ@GetLastActivePopup?$AA@ 000000018005d678     libucrt:winapi_thunks.obj
 0002:00002698       ??_C@_0BI@DFKBFLJE@GetProcessWindowStation?$AA@ 000000018005d698     libucrt:winapi_thunks.obj
 0002:000026b8       ??_C@_0BK@DEKFELLI@GetUserObjectInformationW?$AA@ 000000018005d6b8     libucrt:winapi_thunks.obj
 0002:000026e0       ??_C@_0BM@HCFOFFN@InitializeCriticalSectionEx?$AA@ 000000018005d6e0     libucrt:winapi_thunks.obj
 0002:00002708       ??_C@_0O@KKBNKAPF@LCMapStringEx?$AA@ 000000018005d708     libucrt:winapi_thunks.obj
 0002:00002720       ??_C@_0BB@HBDEELFH@LocaleNameToLCID?$AA@ 000000018005d720     libucrt:winapi_thunks.obj
 0002:00002740       ??_C@_0M@CHKKJDAI@MessageBoxA?$AA@ 000000018005d740     libucrt:winapi_thunks.obj
 0002:00002758       ??_C@_0M@DLDCCGNP@MessageBoxW?$AA@ 000000018005d758     libucrt:winapi_thunks.obj
 0002:00002768       ??_C@_0N@PPOMPGGK@RoInitialize?$AA@ 000000018005d768     libucrt:winapi_thunks.obj
 0002:00002780       ??_C@_0P@LLFHBIJD@RoUninitialize?$AA@ 000000018005d780     libucrt:winapi_thunks.obj
 0002:00002798       ??_C@_0CF@OJOFEIGO@AppPolicyGetProcessTerminationMe@ 000000018005d798     libucrt:winapi_thunks.obj
 0002:000027c8       ??_C@_0CF@NNDFDCOC@AppPolicyGetThreadInitialization@ 000000018005d7c8     libucrt:winapi_thunks.obj
 0002:000027f8       ??_C@_0CE@OICFMIKE@AppPolicyGetShowDeveloperDiagnos@ 000000018005d7f8     libucrt:winapi_thunks.obj
 0002:00002820       ??_C@_0BL@ODDJNEDA@AppPolicyGetWindowingModel?$AA@ 000000018005d820     libucrt:winapi_thunks.obj
 0002:0000283c       ?ccs@?1???$__acrt_stdio_parse_mode@D@@YA?AU__acrt_stdio_stream_mode@@QEBD@Z@4QBDB 000000018005d83c     libucrt:openfile.obj
 0002:00002840       ?utf8_encoding@?1???$__acrt_stdio_parse_mode@D@@YA?AU__acrt_stdio_stream_mode@@QEBD@Z@4QBDB 000000018005d840     libucrt:openfile.obj
 0002:00002848       ?utf16_encoding@?1???$__acrt_stdio_parse_mode@D@@YA?AU__acrt_stdio_stream_mode@@QEBD@Z@4QBDB 000000018005d848     libucrt:openfile.obj
 0002:00002850       ?unicode_encoding@?1???$__acrt_stdio_parse_mode@D@@YA?AU__acrt_stdio_stream_mode@@QEBD@Z@4QBDB 000000018005d850     libucrt:openfile.obj
 0002:00002860       _sys_errlist               000000018005d860     libucrt:syserr.obj
 0002:000029c0       ??_C@_08INEPGKHH@No?5error?$AA@ 000000018005d9c0     libucrt:syserr.obj
 0002:000029d0       ??_C@_0BI@BJFCGOHL@Operation?5not?5permitted?$AA@ 000000018005d9d0     libucrt:syserr.obj
 0002:000029e8       ??_C@_0BK@FMDHKPNF@No?5such?5file?5or?5directory?$AA@ 000000018005d9e8     libucrt:syserr.obj
 0002:00002a08       ??_C@_0BA@FKIAIBGA@No?5such?5process?$AA@ 000000018005da08     libucrt:syserr.obj
 0002:00002a18       ??_C@_0BK@FJBOAFDK@Interrupted?5function?5call?$AA@ 000000018005da18     libucrt:syserr.obj
 0002:00002a38       ??_C@_0BD@KKNFOBBD@Input?1output?5error?$AA@ 000000018005da38     libucrt:syserr.obj
 0002:00002a50       ??_C@_0BK@DPKMCKJ@No?5such?5device?5or?5address?$AA@ 000000018005da50     libucrt:syserr.obj
 0002:00002a70       ??_C@_0BC@MFFGCDFL@Arg?5list?5too?5long?$AA@ 000000018005da70     libucrt:syserr.obj
 0002:00002a88       ??_C@_0BC@HKPNECK@Exec?5format?5error?$AA@ 000000018005da88     libucrt:syserr.obj
 0002:00002aa0       ??_C@_0BE@NFGDDCEF@Bad?5file?5descriptor?$AA@ 000000018005daa0     libucrt:syserr.obj
 0002:00002ab8       ??_C@_0BD@LOHELEP@No?5child?5processes?$AA@ 000000018005dab8     libucrt:syserr.obj
 0002:00002ad0       ??_C@_0CB@EPFKGNAK@Resource?5temporarily?5unavailable@ 000000018005dad0     libucrt:syserr.obj
 0002:00002af8       ??_C@_0BB@IMDKMPFB@Not?5enough?5space?$AA@ 000000018005daf8     libucrt:syserr.obj
 0002:00002b10       ??_C@_0BC@HFNFNKAI@Permission?5denied?$AA@ 000000018005db10     libucrt:syserr.obj
 0002:00002b28       ??_C@_0M@LOEHLCJD@Bad?5address?$AA@ 000000018005db28     libucrt:syserr.obj
 0002:00002b38       ??_C@_0O@NIPGCINC@Unknown?5error?$AA@ 000000018005db38     libucrt:syserr.obj
 0002:00002b48       ??_C@_0BA@BIBLIOEK@Resource?5device?$AA@ 000000018005db48     libucrt:syserr.obj
 0002:00002b58       ??_C@_0M@NAAJNNGH@File?5exists?$AA@ 000000018005db58     libucrt:syserr.obj
 0002:00002b68       ??_C@_0O@OAMDNOCP@Improper?5link?$AA@ 000000018005db68     libucrt:syserr.obj
 0002:00002b78       ??_C@_0P@NLEIANHE@No?5such?5device?$AA@ 000000018005db78     libucrt:syserr.obj
 0002:00002b88       ??_C@_0BA@CJBACOOL@Not?5a?5directory?$AA@ 000000018005db88     libucrt:syserr.obj
 0002:00002b98       ??_C@_0P@NDHGCGKE@Is?5a?5directory?$AA@ 000000018005db98     libucrt:syserr.obj
 0002:00002ba8       ??_C@_0BB@HMGGCEBG@Invalid?5argument?$AA@ 000000018005dba8     libucrt:syserr.obj
 0002:00002bc0       ??_C@_0BO@IIFBODJE@Too?5many?5open?5files?5in?5system?$AA@ 000000018005dbc0     libucrt:syserr.obj
 0002:00002be0       ??_C@_0BE@INBJMKGG@Too?5many?5open?5files?$AA@ 000000018005dbe0     libucrt:syserr.obj
 0002:00002bf8       ??_C@_0CE@ONOKNLPF@Inappropriate?5I?1O?5control?5operat@ 000000018005dbf8     libucrt:syserr.obj
 0002:00002c20       ??_C@_0P@LFMMIPAE@File?5too?5large?$AA@ 000000018005dc20     libucrt:syserr.obj
 0002:00002c30       ??_C@_0BI@FEALHKLD@No?5space?5left?5on?5device?$AA@ 000000018005dc30     libucrt:syserr.obj
 0002:00002c48       ??_C@_0N@FEHLOILP@Invalid?5seek?$AA@ 000000018005dc48     libucrt:syserr.obj
 0002:00002c58       ??_C@_0BG@DDBFNKBH@Read?9only?5file?5system?$AA@ 000000018005dc58     libucrt:syserr.obj
 0002:00002c70       ??_C@_0P@PKCJJLLM@Too?5many?5links?$AA@ 000000018005dc70     libucrt:syserr.obj
 0002:00002c80       ??_C@_0M@LHEPIIOM@Broken?5pipe?$AA@ 000000018005dc80     libucrt:syserr.obj
 0002:00002c90       ??_C@_0N@MMJPGLJK@Domain?5error?$AA@ 000000018005dc90     libucrt:syserr.obj
 0002:00002ca0       ??_C@_0BB@FCBJFCAJ@Result?5too?5large?$AA@ 000000018005dca0     libucrt:syserr.obj
 0002:00002cb8       ??_C@_0BK@JAEBMJJM@Resource?5deadlock?5avoided?$AA@ 000000018005dcb8     libucrt:syserr.obj
 0002:00002cd8       ??_C@_0BC@BEDIHIDK@Filename?5too?5long?$AA@ 000000018005dcd8     libucrt:syserr.obj
 0002:00002cf0       ??_C@_0BD@CLHBCGPB@No?5locks?5available?$AA@ 000000018005dcf0     libucrt:syserr.obj
 0002:00002d08       ??_C@_0BJ@IHEHINLI@Function?5not?5implemented?$AA@ 000000018005dd08     libucrt:syserr.obj
 0002:00002d28       ??_C@_0BE@ICMCHPHH@Directory?5not?5empty?$AA@ 000000018005dd28     libucrt:syserr.obj
 0002:00002d40       ??_C@_0BG@KLEAJEFJ@Illegal?5byte?5sequence?$AA@ 000000018005dd40     libucrt:syserr.obj
 0002:00002d58       _sys_nerr                  000000018005dd58     libucrt:syserr.obj
 0002:00002d80       ??_C@_1M@HPNHIDJI@?$AAj?$AAa?$AA?9?$AAJ?$AAP?$AA?$AA@ 000000018005dd80     libucrt:mbctype.obj
 0002:00002d90       ??_C@_1M@BIBDDEMK@?$AAz?$AAh?$AA?9?$AAC?$AAN?$AA?$AA@ 000000018005dd90     libucrt:mbctype.obj
 0002:00002da0       ??_C@_1M@JLOOOEGK@?$AAk?$AAo?$AA?9?$AAK?$AAR?$AA?$AA@ 000000018005dda0     libucrt:mbctype.obj
 0002:00002db0       ??_C@_1M@CLNBBOPM@?$AAz?$AAh?$AA?9?$AAT?$AAW?$AA?$AA@ 000000018005ddb0     libucrt:mbctype.obj
 0002:00002dc0       __newctype                 000000018005ddc0     libucrt:ctype.obj
 0002:000030c0       __newclmap                 000000018005e0c0     libucrt:ctype.obj
 0002:00003240       __newcumap                 000000018005e240     libucrt:ctype.obj
 0002:000033c0       _wctype                    000000018005e3c0     libucrt:ctype.obj
 0002:000035c4       ??_C@_15PJPFLCCM@?$AAu?$AAk?$AA?$AA@ 000000018005e5c4     libucrt:get_qualified_locale.obj
 0002:000035d0       ?large_power_data@?1??multiply_by_power_of_ten@__crt_strtox@@YA_NAEAUbig_integer@2@I@Z@4QBIB 000000018005e5d0     libucrt:cfout.obj
 0002:00003ee0       ?large_power_indices@?1??multiply_by_power_of_ten@__crt_strtox@@YA_NAEAUbig_integer@2@I@Z@4QBUunpack_index@?1??12@YA_N0I@Z@B 000000018005eee0     libucrt:cfout.obj
 0002:00003f78       ?small_powers_of_ten@?1??multiply_by_power_of_ten@__crt_strtox@@YA_NAEAUbig_integer@2@I@Z@4QBIB 000000018005ef78     libucrt:cfout.obj
 0002:00003f9c       ??_C@_01GBGANLPD@0?$AA@    000000018005ef9c     libucrt:cfout.obj
 0002:00003fa0       ??_C@_05DNEBIAHO@1?$CDINF?$AA@ 000000018005efa0     libucrt:cfout.obj
 0002:00003fa8       ??_C@_06IMKFLFPG@1?$CDQNAN?$AA@ 000000018005efa8     libucrt:cfout.obj
 0002:00003fb0       ??_C@_06PGGFOGJG@1?$CDSNAN?$AA@ 000000018005efb0     libucrt:cfout.obj
 0002:00003fb8       ??_C@_05PHHOCPM@1?$CDIND?$AA@ 000000018005efb8     libucrt:cfout.obj
 0002:00003fc0       ??_C@_1M@BJNKEDC@?$AAc?$AAa?$AA?9?$AAE?$AAS?$AA?$AA@ 000000018005efc0     libucrt:lcidtoname_downlevel.obj
 0002:00003fd0       ??_C@_1M@IJJHFJHA@?$AAc?$AAs?$AA?9?$AAC?$AAZ?$AA?$AA@ 000000018005efd0     libucrt:lcidtoname_downlevel.obj
 0002:00003fe0       ??_C@_1M@CLPEOBGI@?$AAd?$AAa?$AA?9?$AAD?$AAK?$AA?$AA@ 000000018005efe0     libucrt:lcidtoname_downlevel.obj
 0002:00003ff0       ??_C@_1M@MCMADGCB@?$AAd?$AAe?$AA?9?$AAD?$AAE?$AA?$AA@ 000000018005eff0     libucrt:lcidtoname_downlevel.obj
 0002:00004000       ??_C@_1M@OOCKEMAM@?$AAe?$AAl?$AA?9?$AAG?$AAR?$AA?$AA@ 000000018005f000     libucrt:lcidtoname_downlevel.obj
 0002:00004010       ??_C@_1M@DDNJFGID@?$AAf?$AAi?$AA?9?$AAF?$AAI?$AA?$AA@ 000000018005f010     libucrt:lcidtoname_downlevel.obj
 0002:00004020       ??_C@_1M@GLIPPMAC@?$AAf?$AAr?$AA?9?$AAF?$AAR?$AA?$AA@ 000000018005f020     libucrt:lcidtoname_downlevel.obj
 0002:00004030       ??_C@_1M@GFMCHPE@?$AAh?$AAe?$AA?9?$AAI?$AAL?$AA?$AA@ 000000018005f030     libucrt:lcidtoname_downlevel.obj
 0002:00004040       ??_C@_1M@MHLPGNKM@?$AAh?$AAu?$AA?9?$AAH?$AAU?$AA?$AA@ 000000018005f040     libucrt:lcidtoname_downlevel.obj
 0002:00004050       ??_C@_1M@LPDDNNPN@?$AAi?$AAs?$AA?9?$AAI?$AAS?$AA?$AA@ 000000018005f050     libucrt:lcidtoname_downlevel.obj
 0002:00004060       ??_C@_1M@MADIPODN@?$AAi?$AAt?$AA?9?$AAI?$AAT?$AA?$AA@ 000000018005f060     libucrt:lcidtoname_downlevel.obj
 0002:00004070       ??_C@_1M@IHBJJGG@?$AAn?$AAl?$AA?9?$AAN?$AAL?$AA?$AA@ 000000018005f070     libucrt:lcidtoname_downlevel.obj
 0002:00004080       ??_C@_1M@EANAGDL@?$AAn?$AAb?$AA?9?$AAN?$AAO?$AA?$AA@ 000000018005f080     libucrt:lcidtoname_downlevel.obj
 0002:00004090       ??_C@_1M@NEIEMEGP@?$AAp?$AAl?$AA?9?$AAP?$AAL?$AA?$AA@ 000000018005f090     libucrt:lcidtoname_downlevel.obj
 0002:000040a0       ??_C@_1M@BOCFIGEP@?$AAp?$AAt?$AA?9?$AAB?$AAR?$AA?$AA@ 000000018005f0a0     libucrt:lcidtoname_downlevel.obj
 0002:000040b0       ??_C@_1M@IMPFOPBG@?$AAr?$AAo?$AA?9?$AAR?$AAO?$AA?$AA@ 000000018005f0b0     libucrt:lcidtoname_downlevel.obj
 0002:000040c0       ??_C@_1M@IDNNEJMM@?$AAr?$AAu?$AA?9?$AAR?$AAU?$AA?$AA@ 000000018005f0c0     libucrt:lcidtoname_downlevel.obj
 0002:000040d0       ??_C@_1M@LILEEOGM@?$AAh?$AAr?$AA?9?$AAH?$AAR?$AA?$AA@ 000000018005f0d0     libucrt:lcidtoname_downlevel.obj
 0002:000040e0       ??_C@_1M@FKIFEHPB@?$AAs?$AAk?$AA?9?$AAS?$AAK?$AA?$AA@ 000000018005f0e0     libucrt:lcidtoname_downlevel.obj
 0002:000040f0       ??_C@_1M@LJMAMNPJ@?$AAs?$AAq?$AA?9?$AAA?$AAL?$AA?$AA@ 000000018005f0f0     libucrt:lcidtoname_downlevel.obj
 0002:00004100       ??_C@_1M@GIAKDKJK@?$AAs?$AAv?$AA?9?$AAS?$AAE?$AA?$AA@ 000000018005f100     libucrt:lcidtoname_downlevel.obj
 0002:00004110       ??_C@_1M@MKJKIKCL@?$AAt?$AAh?$AA?9?$AAT?$AAH?$AA?$AA@ 000000018005f110     libucrt:lcidtoname_downlevel.obj
 0002:00004120       ??_C@_1M@MFLCCMPB@?$AAt?$AAr?$AA?9?$AAT?$AAR?$AA?$AA@ 000000018005f120     libucrt:lcidtoname_downlevel.obj
 0002:00004130       ??_C@_1M@OIJHDKJN@?$AAu?$AAr?$AA?9?$AAP?$AAK?$AA?$AA@ 000000018005f130     libucrt:lcidtoname_downlevel.obj
 0002:00004140       ??_C@_1M@LHIPCIEK@?$AAi?$AAd?$AA?9?$AAI?$AAD?$AA?$AA@ 000000018005f140     libucrt:lcidtoname_downlevel.obj
 0002:00004150       ??_C@_1M@MFMOBGI@?$AAu?$AAk?$AA?9?$AAU?$AAA?$AA?$AA@ 000000018005f150     libucrt:lcidtoname_downlevel.obj
 0002:00004160       ??_C@_1M@OBGLJIPL@?$AAb?$AAe?$AA?9?$AAB?$AAY?$AA?$AA@ 000000018005f160     libucrt:lcidtoname_downlevel.obj
 0002:00004170       ??_C@_1M@BCFAJEAD@?$AAs?$AAl?$AA?9?$AAS?$AAI?$AA?$AA@ 000000018005f170     libucrt:lcidtoname_downlevel.obj
 0002:00004180       ??_C@_1M@FKFFEDDN@?$AAe?$AAt?$AA?9?$AAE?$AAE?$AA?$AA@ 000000018005f180     libucrt:lcidtoname_downlevel.obj
 0002:00004190       ??_C@_1M@KGKKAACI@?$AAl?$AAv?$AA?9?$AAL?$AAV?$AA?$AA@ 000000018005f190     libucrt:lcidtoname_downlevel.obj
 0002:000041a0       ??_C@_1M@IFGBIJO@?$AAl?$AAt?$AA?9?$AAL?$AAT?$AA?$AA@ 000000018005f1a0     libucrt:lcidtoname_downlevel.obj
 0002:000041b0       ??_C@_1M@FGEAHEDM@?$AAf?$AAa?$AA?9?$AAI?$AAR?$AA?$AA@ 000000018005f1b0     libucrt:lcidtoname_downlevel.obj
 0002:000041c0       ??_C@_1M@KBMAIBFN@?$AAv?$AAi?$AA?9?$AAV?$AAN?$AA?$AA@ 000000018005f1c0     libucrt:lcidtoname_downlevel.obj
 0002:000041d0       ??_C@_1M@GPCBKDJK@?$AAh?$AAy?$AA?9?$AAA?$AAM?$AA?$AA@ 000000018005f1d0     libucrt:lcidtoname_downlevel.obj
 0002:000041e0       ??_C@_1BG@BECMDDJB@?$AAa?$AAz?$AA?9?$AAA?$AAZ?$AA?9?$AAL?$AAa?$AAt?$AAn?$AA?$AA@ 000000018005f1e0     libucrt:lcidtoname_downlevel.obj
 0002:000041f8       ??_C@_1M@MAOFCAEA@?$AAe?$AAu?$AA?9?$AAE?$AAS?$AA?$AA@ 000000018005f1f8     libucrt:lcidtoname_downlevel.obj
 0002:00004208       ??_C@_1M@IGHABKPI@?$AAm?$AAk?$AA?9?$AAM?$AAK?$AA?$AA@ 000000018005f208     libucrt:lcidtoname_downlevel.obj
 0002:00004218       ??_C@_1M@IAIGNEJG@?$AAt?$AAn?$AA?9?$AAZ?$AAA?$AA?$AA@ 000000018005f218     libucrt:lcidtoname_downlevel.obj
 0002:00004228       ??_C@_1M@IIJCOJFA@?$AAx?$AAh?$AA?9?$AAZ?$AAA?$AA?$AA@ 000000018005f228     libucrt:lcidtoname_downlevel.obj
 0002:00004238       ??_C@_1M@LGPJHNJH@?$AAz?$AAu?$AA?9?$AAZ?$AAA?$AA?$AA@ 000000018005f238     libucrt:lcidtoname_downlevel.obj
 0002:00004248       ??_C@_1M@HOKAOIO@?$AAa?$AAf?$AA?9?$AAZ?$AAA?$AA?$AA@ 000000018005f248     libucrt:lcidtoname_downlevel.obj
 0002:00004258       ??_C@_1M@DPCLHLIE@?$AAk?$AAa?$AA?9?$AAG?$AAE?$AA?$AA@ 000000018005f258     libucrt:lcidtoname_downlevel.obj
 0002:00004268       ??_C@_1M@BLKMHJBI@?$AAf?$AAo?$AA?9?$AAF?$AAO?$AA?$AA@ 000000018005f268     libucrt:lcidtoname_downlevel.obj
 0002:00004278       ??_C@_1M@LGGJAPPB@?$AAh?$AAi?$AA?9?$AAI?$AAN?$AA?$AA@ 000000018005f278     libucrt:lcidtoname_downlevel.obj
 0002:00004288       ??_C@_1M@FIKPIHFE@?$AAm?$AAt?$AA?9?$AAM?$AAT?$AA?$AA@ 000000018005f288     libucrt:lcidtoname_downlevel.obj
 0002:00004298       ??_C@_1M@HEGGPBFA@?$AAs?$AAe?$AA?9?$AAN?$AAO?$AA?$AA@ 000000018005f298     libucrt:lcidtoname_downlevel.obj
 0002:000042a8       ??_C@_1M@EIBJEEPA@?$AAm?$AAs?$AA?9?$AAM?$AAY?$AA?$AA@ 000000018005f2a8     libucrt:lcidtoname_downlevel.obj
 0002:000042b8       ??_C@_1M@FHLBGMPP@?$AAk?$AAk?$AA?9?$AAK?$AAZ?$AA?$AA@ 000000018005f2b8     libucrt:lcidtoname_downlevel.obj
 0002:000042c8       ??_C@_1M@NGJJLCGI@?$AAk?$AAy?$AA?9?$AAK?$AAG?$AA?$AA@ 000000018005f2c8     libucrt:lcidtoname_downlevel.obj
 0002:000042d8       ??_C@_1M@GIENNBFC@?$AAs?$AAw?$AA?9?$AAK?$AAE?$AA?$AA@ 000000018005f2d8     libucrt:lcidtoname_downlevel.obj
 0002:000042e8       ??_C@_1BG@NDGMJIMJ@?$AAu?$AAz?$AA?9?$AAU?$AAZ?$AA?9?$AAL?$AAa?$AAt?$AAn?$AA?$AA@ 000000018005f2e8     libucrt:lcidtoname_downlevel.obj
 0002:00004300       ??_C@_1M@IDCCIHBC@?$AAt?$AAt?$AA?9?$AAR?$AAU?$AA?$AA@ 000000018005f300     libucrt:lcidtoname_downlevel.obj
 0002:00004310       ??_C@_1M@LOICPMOJ@?$AAb?$AAn?$AA?9?$AAI?$AAN?$AA?$AA@ 000000018005f310     libucrt:lcidtoname_downlevel.obj
 0002:00004320       ??_C@_1M@KPKKNEAH@?$AAp?$AAa?$AA?9?$AAI?$AAN?$AA?$AA@ 000000018005f320     libucrt:lcidtoname_downlevel.obj
 0002:00004330       ??_C@_1M@PJGPPBOG@?$AAg?$AAu?$AA?9?$AAI?$AAN?$AA?$AA@ 000000018005f330     libucrt:lcidtoname_downlevel.obj
 0002:00004340       ??_C@_1M@KMKMOPHI@?$AAt?$AAa?$AA?9?$AAI?$AAN?$AA?$AA@ 000000018005f340     libucrt:lcidtoname_downlevel.obj
 0002:00004350       ??_C@_1M@KFEHEPAC@?$AAt?$AAe?$AA?9?$AAI?$AAN?$AA?$AA@ 000000018005f350     libucrt:lcidtoname_downlevel.obj
 0002:00004360       ??_C@_1M@CDCLMGHI@?$AAk?$AAn?$AA?9?$AAI?$AAN?$AA?$AA@ 000000018005f360     libucrt:lcidtoname_downlevel.obj
 0002:00004370       ??_C@_1M@MIODLDKF@?$AAm?$AAl?$AA?9?$AAI?$AAN?$AA?$AA@ 000000018005f370     libucrt:lcidtoname_downlevel.obj
 0002:00004380       ??_C@_1M@PBIEACPO@?$AAm?$AAr?$AA?9?$AAI?$AAN?$AA?$AA@ 000000018005f380     libucrt:lcidtoname_downlevel.obj
 0002:00004390       ??_C@_1M@NIDEAGPH@?$AAs?$AAa?$AA?9?$AAI?$AAN?$AA?$AA@ 000000018005f390     libucrt:lcidtoname_downlevel.obj
 0002:000043a0       ??_C@_1M@FHIHCBIO@?$AAm?$AAn?$AA?9?$AAM?$AAN?$AA?$AA@ 000000018005f3a0     libucrt:lcidtoname_downlevel.obj
 0002:000043b0       ??_C@_1M@JAIJPENP@?$AAc?$AAy?$AA?9?$AAG?$AAB?$AA?$AA@ 000000018005f3b0     libucrt:lcidtoname_downlevel.obj
 0002:000043c0       ??_C@_1M@PHGFBEPN@?$AAg?$AAl?$AA?9?$AAE?$AAS?$AA?$AA@ 000000018005f3c0     libucrt:lcidtoname_downlevel.obj
 0002:000043d0       ??_C@_1O@KPIPDNCP@?$AAk?$AAo?$AAk?$AA?9?$AAI?$AAN?$AA?$AA@ 000000018005f3d0     libucrt:lcidtoname_downlevel.obj
 0002:000043e0       ??_C@_1O@KNHJLDJA@?$AAs?$AAy?$AAr?$AA?9?$AAS?$AAY?$AA?$AA@ 000000018005f3e0     libucrt:lcidtoname_downlevel.obj
 0002:000043f0       ??_C@_1O@MKEKBLAH@?$AAd?$AAi?$AAv?$AA?9?$AAM?$AAV?$AA?$AA@ 000000018005f3f0     libucrt:lcidtoname_downlevel.obj
 0002:00004400       ??_C@_1O@OHDCKDDF@?$AAq?$AAu?$AAz?$AA?9?$AAB?$AAO?$AA?$AA@ 000000018005f400     libucrt:lcidtoname_downlevel.obj
 0002:00004410       ??_C@_1M@LEPJNLFD@?$AAn?$AAs?$AA?9?$AAZ?$AAA?$AA?$AA@ 000000018005f410     libucrt:lcidtoname_downlevel.obj
 0002:00004420       ??_C@_1M@OMLEIIJB@?$AAm?$AAi?$AA?9?$AAN?$AAZ?$AA?$AA@ 000000018005f420     libucrt:lcidtoname_downlevel.obj
 0002:00004430       ??_C@_1M@PMPEAILG@?$AAa?$AAr?$AA?9?$AAI?$AAQ?$AA?$AA@ 000000018005f430     libucrt:lcidtoname_downlevel.obj
 0002:00004440       ??_C@_1M@CNKPNOEE@?$AAd?$AAe?$AA?9?$AAC?$AAH?$AA?$AA@ 000000018005f440     libucrt:lcidtoname_downlevel.obj
 0002:00004450       ??_C@_1M@LKMGMLKO@?$AAe?$AAn?$AA?9?$AAG?$AAB?$AA?$AA@ 000000018005f450     libucrt:lcidtoname_downlevel.obj
 0002:00004460       ??_C@_1M@PGKJFFGL@?$AAe?$AAs?$AA?9?$AAM?$AAX?$AA?$AA@ 000000018005f460     libucrt:lcidtoname_downlevel.obj
 0002:00004470       ??_C@_1M@DNNANBDC@?$AAf?$AAr?$AA?9?$AAB?$AAE?$AA?$AA@ 000000018005f470     libucrt:lcidtoname_downlevel.obj
 0002:00004480       ??_C@_1M@HLGMDFHM@?$AAi?$AAt?$AA?9?$AAC?$AAH?$AA?$AA@ 000000018005f480     libucrt:lcidtoname_downlevel.obj
 0002:00004490       ??_C@_1M@CLLBGJH@?$AAn?$AAl?$AA?9?$AAB?$AAE?$AA?$AA@ 000000018005f490     libucrt:lcidtoname_downlevel.obj
 0002:000044a0       ??_C@_1M@BODBOGLF@?$AAn?$AAn?$AA?9?$AAN?$AAO?$AA?$AA@ 000000018005f4a0     libucrt:lcidtoname_downlevel.obj
 0002:000044b0       ??_C@_1M@HFFAHKAD@?$AAp?$AAt?$AA?9?$AAP?$AAT?$AA?$AA@ 000000018005f4b0     libucrt:lcidtoname_downlevel.obj
 0002:000044c0       ??_C@_1BG@LNOAKHIE@?$AAs?$AAr?$AA?9?$AAS?$AAP?$AA?9?$AAL?$AAa?$AAt?$AAn?$AA?$AA@ 000000018005f4c0     libucrt:lcidtoname_downlevel.obj
 0002:000044d8       ??_C@_1M@HBMHBGAK@?$AAs?$AAv?$AA?9?$AAF?$AAI?$AA?$AA@ 000000018005f4d8     libucrt:lcidtoname_downlevel.obj
 0002:000044e8       ??_C@_1BG@DGCJGJBE@?$AAa?$AAz?$AA?9?$AAA?$AAZ?$AA?9?$AAC?$AAy?$AAr?$AAl?$AA?$AA@ 000000018005f4e8     libucrt:lcidtoname_downlevel.obj
 0002:00004500       ??_C@_1M@KEJDAAHB@?$AAs?$AAe?$AA?9?$AAS?$AAE?$AA?$AA@ 000000018005f500     libucrt:lcidtoname_downlevel.obj
 0002:00004510       ??_C@_1M@HEIBJJAD@?$AAm?$AAs?$AA?9?$AAB?$AAN?$AA?$AA@ 000000018005f510     libucrt:lcidtoname_downlevel.obj
 0002:00004520       ??_C@_1BG@PBGJMCEM@?$AAu?$AAz?$AA?9?$AAU?$AAZ?$AA?9?$AAC?$AAy?$AAr?$AAl?$AA?$AA@ 000000018005f520     libucrt:lcidtoname_downlevel.obj
 0002:00004538       ??_C@_1O@LAOBCMDF@?$AAq?$AAu?$AAz?$AA?9?$AAE?$AAC?$AA?$AA@ 000000018005f538     libucrt:lcidtoname_downlevel.obj
 0002:00004548       ??_C@_1M@POEEMAIO@?$AAa?$AAr?$AA?9?$AAE?$AAG?$AA?$AA@ 000000018005f548     libucrt:lcidtoname_downlevel.obj
 0002:00004558       ??_C@_1M@EFAKDEDL@?$AAz?$AAh?$AA?9?$AAH?$AAK?$AA?$AA@ 000000018005f558     libucrt:lcidtoname_downlevel.obj
 0002:00004568       ??_C@_1M@HKKIJHGI@?$AAd?$AAe?$AA?9?$AAA?$AAT?$AA?$AA@ 000000018005f568     libucrt:lcidtoname_downlevel.obj
 0002:00004578       ??_C@_1M@KBFBEHJF@?$AAe?$AAn?$AA?9?$AAA?$AAU?$AA?$AA@ 000000018005f578     libucrt:lcidtoname_downlevel.obj
 0002:00004588       ??_C@_1M@MNPLFAAH@?$AAe?$AAs?$AA?9?$AAE?$AAS?$AA?$AA@ 000000018005f588     libucrt:lcidtoname_downlevel.obj
 0002:00004598       ??_C@_1M@HJOOJFMA@?$AAf?$AAr?$AA?9?$AAC?$AAA?$AA?$AA@ 000000018005f598     libucrt:lcidtoname_downlevel.obj
 0002:000045a8       ??_C@_1BG@JPOFPNAB@?$AAs?$AAr?$AA?9?$AAS?$AAP?$AA?9?$AAC?$AAy?$AAr?$AAl?$AA?$AA@ 000000018005f5a8     libucrt:lcidtoname_downlevel.obj
 0002:000045c0       ??_C@_1M@LNFOCMOB@?$AAs?$AAe?$AA?9?$AAF?$AAI?$AA?$AA@ 000000018005f5c0     libucrt:lcidtoname_downlevel.obj
 0002:000045d0       ??_C@_1O@MGJBOAMB@?$AAq?$AAu?$AAz?$AA?9?$AAP?$AAE?$AA?$AA@ 000000018005f5d0     libucrt:lcidtoname_downlevel.obj
 0002:000045e0       ??_C@_1M@GJINLBOK@?$AAa?$AAr?$AA?9?$AAL?$AAY?$AA?$AA@ 000000018005f5e0     libucrt:lcidtoname_downlevel.obj
 0002:000045f0       ??_C@_1M@GGMNHJNL@?$AAz?$AAh?$AA?9?$AAS?$AAG?$AA?$AA@ 000000018005f5f0     libucrt:lcidtoname_downlevel.obj
 0002:00004600       ??_C@_1M@HOIKODND@?$AAd?$AAe?$AA?9?$AAL?$AAU?$AA?$AA@ 000000018005f600     libucrt:lcidtoname_downlevel.obj
 0002:00004610       ??_C@_1M@DDOCCGFG@?$AAe?$AAn?$AA?9?$AAC?$AAA?$AA?$AA@ 000000018005f610     libucrt:lcidtoname_downlevel.obj
 0002:00004620       ??_C@_1M@BNOEMJLF@?$AAe?$AAs?$AA?9?$AAG?$AAT?$AA?$AA@ 000000018005f620     libucrt:lcidtoname_downlevel.obj
 0002:00004630       ??_C@_1M@EOGNKEK@?$AAf?$AAr?$AA?9?$AAC?$AAH?$AA?$AA@ 000000018005f630     libucrt:lcidtoname_downlevel.obj
 0002:00004640       ??_C@_1M@FLIDJFHL@?$AAh?$AAr?$AA?9?$AAB?$AAA?$AA?$AA@ 000000018005f640     libucrt:lcidtoname_downlevel.obj
 0002:00004650       ??_C@_1O@FMCELNAJ@?$AAs?$AAm?$AAj?$AA?9?$AAN?$AAO?$AA?$AA@ 000000018005f650     libucrt:lcidtoname_downlevel.obj
 0002:00004660       ??_C@_1M@JHGLJMGJ@?$AAa?$AAr?$AA?9?$AAD?$AAZ?$AA?$AA@ 000000018005f660     libucrt:lcidtoname_downlevel.obj
 0002:00004670       ??_C@_1M@JKKFDCNP@?$AAz?$AAh?$AA?9?$AAM?$AAO?$AA?$AA@ 000000018005f670     libucrt:lcidtoname_downlevel.obj
 0002:00004680       ??_C@_1M@GEEFALPE@?$AAd?$AAe?$AA?9?$AAL?$AAI?$AA?$AA@ 000000018005f680     libucrt:lcidtoname_downlevel.obj
 0002:00004690       ??_C@_1M@IGEOFBG@?$AAe?$AAn?$AA?9?$AAN?$AAZ?$AA?$AA@ 000000018005f690     libucrt:lcidtoname_downlevel.obj
 0002:000046a0       ??_C@_1M@KDBONEHP@?$AAe?$AAs?$AA?9?$AAC?$AAR?$AA?$AA@ 000000018005f6a0     libucrt:lcidtoname_downlevel.obj
 0002:000046b0       ??_C@_1M@FHMDOHNN@?$AAf?$AAr?$AA?9?$AAL?$AAU?$AA?$AA@ 000000018005f6b0     libucrt:lcidtoname_downlevel.obj
 0002:000046c0       ??_C@_1BG@NFKKMAFG@?$AAb?$AAs?$AA?9?$AAB?$AAA?$AA?9?$AAL?$AAa?$AAt?$AAn?$AA?$AA@ 000000018005f6c0     libucrt:lcidtoname_downlevel.obj
 0002:000046d8       ??_C@_1O@IMNBEMCI@?$AAs?$AAm?$AAj?$AA?9?$AAS?$AAE?$AA?$AA@ 000000018005f6d8     libucrt:lcidtoname_downlevel.obj
 0002:000046e8       ??_C@_1M@DHHMBNDP@?$AAa?$AAr?$AA?9?$AAM?$AAA?$AA?$AA@ 000000018005f6e8     libucrt:lcidtoname_downlevel.obj
 0002:000046f8       ??_C@_1M@BNBLJCGH@?$AAe?$AAn?$AA?9?$AAI?$AAE?$AA?$AA@ 000000018005f6f8     libucrt:lcidtoname_downlevel.obj
 0002:00004708       ??_C@_1M@GEPAFMDL@?$AAe?$AAs?$AA?9?$AAP?$AAA?$AA?$AA@ 000000018005f708     libucrt:lcidtoname_downlevel.obj
 0002:00004718       ??_C@_1M@OJONDMDL@?$AAf?$AAr?$AA?9?$AAM?$AAC?$AA?$AA@ 000000018005f718     libucrt:lcidtoname_downlevel.obj
 0002:00004728       ??_C@_1BG@OBCNFJB@?$AAs?$AAr?$AA?9?$AAB?$AAA?$AA?9?$AAL?$AAa?$AAt?$AAn?$AA?$AA@ 000000018005f728     libucrt:lcidtoname_downlevel.obj
 0002:00004740       ??_C@_1O@KEMEEGPO@?$AAs?$AAm?$AAa?$AA?9?$AAN?$AAO?$AA?$AA@ 000000018005f740     libucrt:lcidtoname_downlevel.obj
 0002:00004750       ??_C@_1M@ELMGFODK@?$AAa?$AAr?$AA?9?$AAT?$AAN?$AA?$AA@ 000000018005f750     libucrt:lcidtoname_downlevel.obj
 0002:00004760       ??_C@_1M@BHDLHFAF@?$AAe?$AAn?$AA?9?$AAZ?$AAA?$AA?$AA@ 000000018005f760     libucrt:lcidtoname_downlevel.obj
 0002:00004770       ??_C@_1M@BMGIGLIF@?$AAe?$AAs?$AA?9?$AAD?$AAO?$AA?$AA@ 000000018005f770     libucrt:lcidtoname_downlevel.obj
 0002:00004780       ??_C@_1BG@CMBHIPBE@?$AAs?$AAr?$AA?9?$AAB?$AAA?$AA?9?$AAC?$AAy?$AAr?$AAl?$AA?$AA@ 000000018005f780     libucrt:lcidtoname_downlevel.obj
 0002:00004798       ??_C@_1O@HEDBLHNP@?$AAs?$AAm?$AAa?$AA?9?$AAS?$AAE?$AA?$AA@ 000000018005f798     libucrt:lcidtoname_downlevel.obj
 0002:000047a8       ??_C@_1M@DAGCADIM@?$AAa?$AAr?$AA?9?$AAO?$AAM?$AA?$AA@ 000000018005f7a8     libucrt:lcidtoname_downlevel.obj
 0002:000047b8       ??_C@_1M@FODLMICG@?$AAe?$AAn?$AA?9?$AAJ?$AAM?$AA?$AA@ 000000018005f7b8     libucrt:lcidtoname_downlevel.obj
 0002:000047c8       ??_C@_1M@DNMLCIHB@?$AAe?$AAs?$AA?9?$AAV?$AAE?$AA?$AA@ 000000018005f7c8     libucrt:lcidtoname_downlevel.obj
 0002:000047d8       ??_C@_1O@EOKHMKJK@?$AAs?$AAm?$AAs?$AA?9?$AAF?$AAI?$AA?$AA@ 000000018005f7d8     libucrt:lcidtoname_downlevel.obj
 0002:000047e8       ??_C@_1M@CAFJMKOF@?$AAa?$AAr?$AA?9?$AAY?$AAE?$AA?$AA@ 000000018005f7e8     libucrt:lcidtoname_downlevel.obj
 0002:000047f8       ??_C@_1M@CBFHIJLI@?$AAe?$AAn?$AA?9?$AAC?$AAB?$AA?$AA@ 000000018005f7f8     libucrt:lcidtoname_downlevel.obj
 0002:00004808       ??_C@_1M@BGNFLDN@?$AAe?$AAs?$AA?9?$AAC?$AAO?$AA?$AA@ 000000018005f808     libucrt:lcidtoname_downlevel.obj
 0002:00004818       ??_C@_1O@JMPHMAMC@?$AAs?$AAm?$AAn?$AA?9?$AAF?$AAI?$AA?$AA@ 000000018005f818     libucrt:lcidtoname_downlevel.obj
 0002:00004828       ??_C@_1M@JLANABKE@?$AAa?$AAr?$AA?9?$AAS?$AAY?$AA?$AA@ 000000018005f828     libucrt:lcidtoname_downlevel.obj
 0002:00004838       ??_C@_1M@HPKGCFGN@?$AAe?$AAn?$AA?9?$AAB?$AAZ?$AA?$AA@ 000000018005f838     libucrt:lcidtoname_downlevel.obj
 0002:00004848       ??_C@_1M@OLJCMLGM@?$AAe?$AAs?$AA?9?$AAP?$AAE?$AA?$AA@ 000000018005f848     libucrt:lcidtoname_downlevel.obj
 0002:00004858       ??_C@_1M@MKKGFKLE@?$AAa?$AAr?$AA?9?$AAJ?$AAO?$AA?$AA@ 000000018005f858     libucrt:lcidtoname_downlevel.obj
 0002:00004868       ??_C@_1M@EKPGLDNI@?$AAe?$AAn?$AA?9?$AAT?$AAT?$AA?$AA@ 000000018005f868     libucrt:lcidtoname_downlevel.obj
 0002:00004878       ??_C@_1M@OONGHFHE@?$AAe?$AAs?$AA?9?$AAA?$AAR?$AA?$AA@ 000000018005f878     libucrt:lcidtoname_downlevel.obj
 0002:00004888       ??_C@_1M@OOJFGBHE@?$AAa?$AAr?$AA?9?$AAL?$AAB?$AA?$AA@ 000000018005f888     libucrt:lcidtoname_downlevel.obj
 0002:00004898       ??_C@_1M@GCEJHNEG@?$AAe?$AAn?$AA?9?$AAZ?$AAW?$AA?$AA@ 000000018005f898     libucrt:lcidtoname_downlevel.obj
 0002:000048a8       ??_C@_1M@JNOCAHJI@?$AAe?$AAs?$AA?9?$AAE?$AAC?$AA?$AA@ 000000018005f8a8     libucrt:lcidtoname_downlevel.obj
 0002:000048b8       ??_C@_1M@JEFHPGGB@?$AAa?$AAr?$AA?9?$AAK?$AAW?$AA?$AA@ 000000018005f8b8     libucrt:lcidtoname_downlevel.obj
 0002:000048c8       ??_C@_1M@MLKIBJOJ@?$AAe?$AAn?$AA?9?$AAP?$AAH?$AA?$AA@ 000000018005f8c8     libucrt:lcidtoname_downlevel.obj
 0002:000048d8       ??_C@_1M@BDNIPEND@?$AAe?$AAs?$AA?9?$AAC?$AAL?$AA?$AA@ 000000018005f8d8     libucrt:lcidtoname_downlevel.obj
 0002:000048e8       ??_C@_1M@MPNMEKBD@?$AAa?$AAr?$AA?9?$AAA?$AAE?$AA?$AA@ 000000018005f8e8     libucrt:lcidtoname_downlevel.obj
 0002:000048f8       ??_C@_1M@KBJALCPI@?$AAe?$AAs?$AA?9?$AAU?$AAY?$AA?$AA@ 000000018005f8f8     libucrt:lcidtoname_downlevel.obj
 0002:00004908       ??_C@_1M@LLCCOAGA@?$AAa?$AAr?$AA?9?$AAB?$AAH?$AA?$AA@ 000000018005f908     libucrt:lcidtoname_downlevel.obj
 0002:00004918       ??_C@_1M@PBFNCDEL@?$AAe?$AAs?$AA?9?$AAP?$AAY?$AA?$AA@ 000000018005f918     libucrt:lcidtoname_downlevel.obj
 0002:00004928       ??_C@_1M@EDGINPNP@?$AAa?$AAr?$AA?9?$AAQ?$AAA?$AA?$AA@ 000000018005f928     libucrt:lcidtoname_downlevel.obj
 0002:00004938       ??_C@_1M@MKDBIIJI@?$AAe?$AAs?$AA?9?$AAB?$AAO?$AA?$AA@ 000000018005f938     libucrt:lcidtoname_downlevel.obj
 0002:00004948       ??_C@_1M@CPKKEBLD@?$AAe?$AAs?$AA?9?$AAS?$AAV?$AA?$AA@ 000000018005f948     libucrt:lcidtoname_downlevel.obj
 0002:00004958       ??_C@_1M@NDBGMMJL@?$AAe?$AAs?$AA?9?$AAH?$AAN?$AA?$AA@ 000000018005f958     libucrt:lcidtoname_downlevel.obj
 0002:00004968       ??_C@_1M@JIJIBHDP@?$AAe?$AAs?$AA?9?$AAN?$AAI?$AA?$AA@ 000000018005f968     libucrt:lcidtoname_downlevel.obj
 0002:00004978       ??_C@_1M@CGFMKEEK@?$AAe?$AAs?$AA?9?$AAP?$AAR?$AA?$AA@ 000000018005f978     libucrt:lcidtoname_downlevel.obj
 0002:00004988       ??_C@_1O@ICJHKIIK@?$AAz?$AAh?$AA?9?$AAC?$AAH?$AAT?$AA?$AA@ 000000018005f988     libucrt:lcidtoname_downlevel.obj
 0002:00004998       ??_C@_15CLNEJCE@?$AAs?$AAr?$AA?$AA@ 000000018005f998     libucrt:lcidtoname_downlevel.obj
 0002:000057e0       ??_C@_1M@KAHEKEIG@?$AAa?$AAf?$AA?9?$AAz?$AAa?$AA?$AA@ 00000001800607e0     libucrt:lcidtoname_downlevel.obj
 0002:000057f0       ??_C@_1M@GIECOABL@?$AAa?$AAr?$AA?9?$AAa?$AAe?$AA?$AA@ 00000001800607f0     libucrt:lcidtoname_downlevel.obj
 0002:00005800       ??_C@_1M@BMLMEKGI@?$AAa?$AAr?$AA?9?$AAb?$AAh?$AA?$AA@ 0000000180060800     libucrt:lcidtoname_downlevel.obj
 0002:00005810       ??_C@_1M@DAPFDGGB@?$AAa?$AAr?$AA?9?$AAd?$AAz?$AA?$AA@ 0000000180060810     libucrt:lcidtoname_downlevel.obj
 0002:00005820       ??_C@_1M@FJNKGKIG@?$AAa?$AAr?$AA?9?$AAe?$AAg?$AA?$AA@ 0000000180060820     libucrt:lcidtoname_downlevel.obj
 0002:00005830       ??_C@_1M@FLGKKCLO@?$AAa?$AAr?$AA?9?$AAi?$AAq?$AA?$AA@ 0000000180060830     libucrt:lcidtoname_downlevel.obj
 0002:00005840       ??_C@_1M@GNDIPALM@?$AAa?$AAr?$AA?9?$AAj?$AAo?$AA?$AA@ 0000000180060840     libucrt:lcidtoname_downlevel.obj
 0002:00005850       ??_C@_1M@DDMJFMGJ@?$AAa?$AAr?$AA?9?$AAk?$AAw?$AA?$AA@ 0000000180060850     libucrt:lcidtoname_downlevel.obj
 0002:00005860       ??_C@_1M@EJALMLHM@?$AAa?$AAr?$AA?9?$AAl?$AAb?$AA?$AA@ 0000000180060860     libucrt:lcidtoname_downlevel.obj
 0002:00005870       ??_C@_1M@MOBDBLOC@?$AAa?$AAr?$AA?9?$AAl?$AAy?$AA?$AA@ 0000000180060870     libucrt:lcidtoname_downlevel.obj
 0002:00005880       ??_C@_1M@JAOCLHDH@?$AAa?$AAr?$AA?9?$AAm?$AAa?$AA?$AA@ 0000000180060880     libucrt:lcidtoname_downlevel.obj
 0002:00005890       ??_C@_1M@JHPMKJIE@?$AAa?$AAr?$AA?9?$AAo?$AAm?$AA?$AA@ 0000000180060890     libucrt:lcidtoname_downlevel.obj
 0002:000058a0       ??_C@_1M@OEPGHFNH@?$AAa?$AAr?$AA?9?$AAq?$AAa?$AA?$AA@ 00000001800608a0     libucrt:lcidtoname_downlevel.obj
 0002:000058b0       ??_C@_1M@KJDONENM@?$AAa?$AAr?$AA?9?$AAs?$AAa?$AA?$AA@ 00000001800608b0     libucrt:lcidtoname_downlevel.obj
 0002:000058c0       ??_C@_1M@DMJDKLKM@?$AAa?$AAr?$AA?9?$AAs?$AAy?$AA?$AA@ 00000001800608c0     libucrt:lcidtoname_downlevel.obj
 0002:000058d0       ??_C@_1M@OMFIPEDC@?$AAa?$AAr?$AA?9?$AAt?$AAn?$AA?$AA@ 00000001800608d0     libucrt:lcidtoname_downlevel.obj
 0002:000058e0       ??_C@_1M@IHMHGAON@?$AAa?$AAr?$AA?9?$AAy?$AAe?$AA?$AA@ 00000001800608e0     libucrt:lcidtoname_downlevel.obj
 0002:000058f0       ??_C@_1BG@KDCPGJGB@?$AAa?$AAz?$AA?9?$AAa?$AAz?$AA?9?$AAc?$AAy?$AAr?$AAl?$AA?$AA@ 00000001800608f0     libucrt:lcidtoname_downlevel.obj
 0002:00005908       ??_C@_1BG@IBCKDDOE@?$AAa?$AAz?$AA?9?$AAa?$AAz?$AA?9?$AAl?$AAa?$AAt?$AAn?$AA?$AA@ 0000000180060908     libucrt:lcidtoname_downlevel.obj
 0002:00005920       ??_C@_1M@EGPFDCPD@?$AAb?$AAe?$AA?9?$AAb?$AAy?$AA?$AA@ 0000000180060920     libucrt:lcidtoname_downlevel.obj
 0002:00005930       ??_C@_1M@PCMGMCGC@?$AAb?$AAg?$AA?9?$AAb?$AAg?$AA?$AA@ 0000000180060930     libucrt:lcidtoname_downlevel.obj
 0002:00005940       ??_C@_1M@BJBMFGOB@?$AAb?$AAn?$AA?9?$AAi?$AAn?$AA?$AA@ 0000000180060940     libucrt:lcidtoname_downlevel.obj
 0002:00005950       ??_C@_1BG@EAKMMACD@?$AAb?$AAs?$AA?9?$AAb?$AAa?$AA?9?$AAl?$AAa?$AAt?$AAn?$AA?$AA@ 0000000180060950     libucrt:lcidtoname_downlevel.obj
 0002:00005968       ??_C@_1M@KGADAODK@?$AAc?$AAa?$AA?9?$AAe?$AAs?$AA?$AA@ 0000000180060968     libucrt:lcidtoname_downlevel.obj
 0002:00005978       ??_C@_1M@COAJPDHI@?$AAc?$AAs?$AA?9?$AAc?$AAz?$AA?$AA@ 0000000180060978     libucrt:lcidtoname_downlevel.obj
 0002:00005988       ??_C@_1M@DHBHFONH@?$AAc?$AAy?$AA?9?$AAg?$AAb?$AA?$AA@ 0000000180060988     libucrt:lcidtoname_downlevel.obj
 0002:00005998       ??_C@_1M@IMGKELGA@?$AAd?$AAa?$AA?9?$AAd?$AAk?$AA?$AA@ 0000000180060998     libucrt:lcidtoname_downlevel.obj
 0002:000059a8       ??_C@_1M@NNDGDNGA@?$AAd?$AAe?$AA?9?$AAa?$AAt?$AA?$AA@ 00000001800609a8     libucrt:lcidtoname_downlevel.obj
 0002:000059b8       ??_C@_1M@IKDBHEEM@?$AAd?$AAe?$AA?9?$AAc?$AAh?$AA?$AA@ 00000001800609b8     libucrt:lcidtoname_downlevel.obj
 0002:000059c8       ??_C@_1M@GFFOJMCJ@?$AAd?$AAe?$AA?9?$AAd?$AAe?$AA?$AA@ 00000001800609c8     libucrt:lcidtoname_downlevel.obj
 0002:000059d8       ??_C@_1M@MDNLKBPM@?$AAd?$AAe?$AA?9?$AAl?$AAi?$AA?$AA@ 00000001800609d8     libucrt:lcidtoname_downlevel.obj
 0002:000059e8       ??_C@_1M@NJBEEJNL@?$AAd?$AAe?$AA?9?$AAl?$AAu?$AA?$AA@ 00000001800609e8     libucrt:lcidtoname_downlevel.obj
 0002:000059f8       ??_C@_1O@GNNELBAP@?$AAd?$AAi?$AAv?$AA?9?$AAm?$AAv?$AA?$AA@ 00000001800609f8     libucrt:lcidtoname_downlevel.obj
 0002:00005a08       ??_C@_1M@EJLEOGAE@?$AAe?$AAl?$AA?9?$AAg?$AAr?$AA?$AA@ 0000000180060a08     libucrt:lcidtoname_downlevel.obj
 0002:00005a18       ??_C@_1M@GMPONJN@?$AAe?$AAn?$AA?9?$AAa?$AAu?$AA?$AA@ 0000000180060a18     libucrt:lcidtoname_downlevel.obj
 0002:00005a28       ??_C@_1M@NIDIIPGF@?$AAe?$AAn?$AA?9?$AAb?$AAz?$AA?$AA@ 0000000180060a28     libucrt:lcidtoname_downlevel.obj
 0002:00005a38       ??_C@_1M@JEHMIMFO@?$AAe?$AAn?$AA?9?$AAc?$AAa?$AA?$AA@ 0000000180060a38     libucrt:lcidtoname_downlevel.obj
 0002:00005a48       ??_C@_1M@IGMJCDLA@?$AAe?$AAn?$AA?9?$AAc?$AAb?$AA?$AA@ 0000000180060a48     libucrt:lcidtoname_downlevel.obj
 0002:00005a58       ??_C@_1M@BNFIGBKG@?$AAe?$AAn?$AA?9?$AAg?$AAb?$AA?$AA@ 0000000180060a58     libucrt:lcidtoname_downlevel.obj
 0002:00005a68       ??_C@_1M@LKIFDIGP@?$AAe?$AAn?$AA?9?$AAi?$AAe?$AA?$AA@ 0000000180060a68     libucrt:lcidtoname_downlevel.obj
 0002:00005a78       ??_C@_1M@PJKFGCCO@?$AAe?$AAn?$AA?9?$AAj?$AAm?$AA?$AA@ 0000000180060a78     libucrt:lcidtoname_downlevel.obj
 0002:00005a88       ??_C@_1M@KPPKEPBO@?$AAe?$AAn?$AA?9?$AAn?$AAz?$AA?$AA@ 0000000180060a88     libucrt:lcidtoname_downlevel.obj
 0002:00005a98       ??_C@_1M@GMDGLDOB@?$AAe?$AAn?$AA?9?$AAp?$AAh?$AA?$AA@ 0000000180060a98     libucrt:lcidtoname_downlevel.obj
 0002:00005aa8       ??_C@_1M@ONGIBJNA@?$AAe?$AAn?$AA?9?$AAt?$AAt?$AA?$AA@ 0000000180060aa8     libucrt:lcidtoname_downlevel.obj
 0002:00005ab8       ??_C@_1M@LLODPCMM@?$AAe?$AAn?$AA?9?$AAu?$AAs?$AA?$AA@ 0000000180060ab8     libucrt:lcidtoname_downlevel.obj
 0002:00005ac8       ??_C@_1M@LAKFNPAN@?$AAe?$AAn?$AA?9?$AAz?$AAa?$AA?$AA@ 0000000180060ac8     libucrt:lcidtoname_downlevel.obj
 0002:00005ad8       ??_C@_1M@MFNHNHEO@?$AAe?$AAn?$AA?9?$AAz?$AAw?$AA?$AA@ 0000000180060ad8     libucrt:lcidtoname_downlevel.obj
 0002:00005ae8       ??_C@_1M@EJEINPHM@?$AAe?$AAs?$AA?9?$AAa?$AAr?$AA?$AA@ 0000000180060ae8     libucrt:lcidtoname_downlevel.obj
 0002:00005af8       ??_C@_1M@GNKPCCJA@?$AAe?$AAs?$AA?9?$AAb?$AAo?$AA?$AA@ 0000000180060af8     libucrt:lcidtoname_downlevel.obj
 0002:00005b08       ??_C@_1M@LEEGFONL@?$AAe?$AAs?$AA?9?$AAc?$AAl?$AA?$AA@ 0000000180060b08     libucrt:lcidtoname_downlevel.obj
 0002:00005b18       ??_C@_1M@KGPDPBDF@?$AAe?$AAs?$AA?9?$AAc?$AAo?$AA?$AA@ 0000000180060b18     libucrt:lcidtoname_downlevel.obj
 0002:00005b28       ??_C@_1M@EIAHOHH@?$AAe?$AAs?$AA?9?$AAc?$AAr?$AA?$AA@ 0000000180060b28     libucrt:lcidtoname_downlevel.obj
 0002:00005b38       ??_C@_1M@LLPGMBIN@?$AAe?$AAs?$AA?9?$AAd?$AAo?$AA?$AA@ 0000000180060b38     libucrt:lcidtoname_downlevel.obj
 0002:00005b48       ??_C@_1M@DKHMKNJA@?$AAe?$AAs?$AA?9?$AAe?$AAc?$AA?$AA@ 0000000180060b48     libucrt:lcidtoname_downlevel.obj
 0002:00005b58       ??_C@_1M@GKGFPKAP@?$AAe?$AAs?$AA?9?$AAe?$AAs?$AA?$AA@ 0000000180060b58     libucrt:lcidtoname_downlevel.obj
 0002:00005b68       ??_C@_1M@LKHKGDLN@?$AAe?$AAs?$AA?9?$AAg?$AAt?$AA?$AA@ 0000000180060b68     libucrt:lcidtoname_downlevel.obj
 0002:00005b78       ??_C@_1M@HEIIGGJD@?$AAe?$AAs?$AA?9?$AAh?$AAn?$AA?$AA@ 0000000180060b78     libucrt:lcidtoname_downlevel.obj
 0002:00005b88       ??_C@_1M@FBDHPPGD@?$AAe?$AAs?$AA?9?$AAm?$AAx?$AA?$AA@ 0000000180060b88     libucrt:lcidtoname_downlevel.obj
 0002:00005b98       ??_C@_1M@DPAGLNDH@?$AAe?$AAs?$AA?9?$AAn?$AAi?$AA?$AA@ 0000000180060b98     libucrt:lcidtoname_downlevel.obj
 0002:00005ba8       ??_C@_1M@MDGOPGDD@?$AAe?$AAs?$AA?9?$AAp?$AAa?$AA?$AA@ 0000000180060ba8     libucrt:lcidtoname_downlevel.obj
 0002:00005bb8       ??_C@_1M@EMAMGBGE@?$AAe?$AAs?$AA?9?$AAp?$AAe?$AA?$AA@ 0000000180060bb8     libucrt:lcidtoname_downlevel.obj
 0002:00005bc8       ??_C@_1M@IBMCAOEC@?$AAe?$AAs?$AA?9?$AAp?$AAr?$AA?$AA@ 0000000180060bc8     libucrt:lcidtoname_downlevel.obj
 0002:00005bd8       ??_C@_1M@FGMDIJED@?$AAe?$AAs?$AA?9?$AAp?$AAy?$AA?$AA@ 0000000180060bd8     libucrt:lcidtoname_downlevel.obj
 0002:00005be8       ??_C@_1M@IIDEOLLL@?$AAe?$AAs?$AA?9?$AAs?$AAv?$AA?$AA@ 0000000180060be8     libucrt:lcidtoname_downlevel.obj
 0002:00005bf8       ??_C@_1M@GAOBIPA@?$AAe?$AAs?$AA?9?$AAu?$AAy?$AA?$AA@ 0000000180060bf8     libucrt:lcidtoname_downlevel.obj
 0002:00005c08       ??_C@_1M@JKFFICHJ@?$AAe?$AAs?$AA?9?$AAv?$AAe?$AA?$AA@ 0000000180060c08     libucrt:lcidtoname_downlevel.obj
 0002:00005c18       ??_C@_1M@PNMLOJDF@?$AAe?$AAt?$AA?9?$AAe?$AAe?$AA?$AA@ 0000000180060c18     libucrt:lcidtoname_downlevel.obj
 0002:00005c28       ??_C@_1M@GHHLIKEI@?$AAe?$AAu?$AA?9?$AAe?$AAs?$AA?$AA@ 0000000180060c28     libucrt:lcidtoname_downlevel.obj
 0002:00005c38       ??_C@_1M@PBNONODE@?$AAf?$AAa?$AA?9?$AAi?$AAr?$AA?$AA@ 0000000180060c38     libucrt:lcidtoname_downlevel.obj
 0002:00005c48       ??_C@_1M@JEEHPMIL@?$AAf?$AAi?$AA?9?$AAf?$AAi?$AA?$AA@ 0000000180060c48     libucrt:lcidtoname_downlevel.obj
 0002:00005c58       ??_C@_1M@LMDCNDBA@?$AAf?$AAo?$AA?9?$AAf?$AAo?$AA?$AA@ 0000000180060c58     libucrt:lcidtoname_downlevel.obj
 0002:00005c68       ??_C@_1M@JKEOHLDK@?$AAf?$AAr?$AA?9?$AAb?$AAe?$AA?$AA@ 0000000180060c68     libucrt:lcidtoname_downlevel.obj
 0002:00005c78       ??_C@_1M@NOHADPMI@?$AAf?$AAr?$AA?9?$AAc?$AAa?$AA?$AA@ 0000000180060c78     libucrt:lcidtoname_downlevel.obj
 0002:00005c88       ??_C@_1M@KDHIHAEC@?$AAf?$AAr?$AA?9?$AAc?$AAh?$AA?$AA@ 0000000180060c88     libucrt:lcidtoname_downlevel.obj
 0002:00005c98       ??_C@_1M@MMBBFGAK@?$AAf?$AAr?$AA?9?$AAf?$AAr?$AA?$AA@ 0000000180060c98     libucrt:lcidtoname_downlevel.obj
 0002:00005ca8       ??_C@_1M@PAFNENNF@?$AAf?$AAr?$AA?9?$AAl?$AAu?$AA?$AA@ 0000000180060ca8     libucrt:lcidtoname_downlevel.obj
 0002:00005cb8       ??_C@_1M@EOHDJGDD@?$AAf?$AAr?$AA?9?$AAm?$AAc?$AA?$AA@ 0000000180060cb8     libucrt:lcidtoname_downlevel.obj
 0002:00005cc8       ??_C@_1M@FAPLLOPF@?$AAg?$AAl?$AA?9?$AAe?$AAs?$AA?$AA@ 0000000180060cc8     libucrt:lcidtoname_downlevel.obj
 0002:00005cd8       ??_C@_1M@FOPBFLOO@?$AAg?$AAu?$AA?9?$AAi?$AAn?$AA?$AA@ 0000000180060cd8     libucrt:lcidtoname_downlevel.obj
 0002:00005ce8       ??_C@_1M@KBMCINPM@?$AAh?$AAe?$AA?9?$AAi?$AAl?$AA?$AA@ 0000000180060ce8     libucrt:lcidtoname_downlevel.obj
 0002:00005cf8       ??_C@_1M@BBPHKFPJ@?$AAh?$AAi?$AA?9?$AAi?$AAn?$AA?$AA@ 0000000180060cf8     libucrt:lcidtoname_downlevel.obj
 0002:00005d08       ??_C@_1M@PMBNDPHD@?$AAh?$AAr?$AA?9?$AAb?$AAa?$AA?$AA@ 0000000180060d08     libucrt:lcidtoname_downlevel.obj
 0002:00005d18       ??_C@_1M@BPCKOEGE@?$AAh?$AAr?$AA?9?$AAh?$AAr?$AA?$AA@ 0000000180060d18     libucrt:lcidtoname_downlevel.obj
 0002:00005d28       ??_C@_1M@GACBMHKE@?$AAh?$AAu?$AA?9?$AAh?$AAu?$AA?$AA@ 0000000180060d28     libucrt:lcidtoname_downlevel.obj
 0002:00005d38       ??_C@_1M@MILPAJJC@?$AAh?$AAy?$AA?9?$AAa?$AAm?$AA?$AA@ 0000000180060d38     libucrt:lcidtoname_downlevel.obj
 0002:00005d48       ??_C@_1M@BABBICEC@?$AAi?$AAd?$AA?9?$AAi?$AAd?$AA?$AA@ 0000000180060d48     libucrt:lcidtoname_downlevel.obj
 0002:00005d58       ??_C@_1M@BIKNHHPF@?$AAi?$AAs?$AA?9?$AAi?$AAs?$AA?$AA@ 0000000180060d58     libucrt:lcidtoname_downlevel.obj
 0002:00005d68       ??_C@_1M@NMPCJPHE@?$AAi?$AAt?$AA?9?$AAc?$AAh?$AA?$AA@ 0000000180060d68     libucrt:lcidtoname_downlevel.obj
 0002:00005d78       ??_C@_1M@GHKGFEDF@?$AAi?$AAt?$AA?9?$AAi?$AAt?$AA?$AA@ 0000000180060d78     libucrt:lcidtoname_downlevel.obj
 0002:00005d88       ??_C@_1M@NIEJCJJA@?$AAj?$AAa?$AA?9?$AAj?$AAp?$AA?$AA@ 0000000180060d88     libucrt:lcidtoname_downlevel.obj
 0002:00005d98       ??_C@_1M@JILFNBIM@?$AAk?$AAa?$AA?9?$AAg?$AAe?$AA?$AA@ 0000000180060d98     libucrt:lcidtoname_downlevel.obj
 0002:00005da8       ??_C@_1M@PACPMGPH@?$AAk?$AAk?$AA?9?$AAk?$AAz?$AA?$AA@ 0000000180060da8     libucrt:lcidtoname_downlevel.obj
 0002:00005db8       ??_C@_1M@IELFGMHA@?$AAk?$AAn?$AA?9?$AAi?$AAn?$AA?$AA@ 0000000180060db8     libucrt:lcidtoname_downlevel.obj
 0002:00005dc8       ??_C@_1O@IBBJHCH@?$AAk?$AAo?$AAk?$AA?9?$AAi?$AAn?$AA?$AA@ 0000000180060dc8     libucrt:lcidtoname_downlevel.obj
 0002:00005dd8       ??_C@_1M@DMHAEOGC@?$AAk?$AAo?$AA?9?$AAk?$AAr?$AA?$AA@ 0000000180060dd8     libucrt:lcidtoname_downlevel.obj
 0002:00005de8       ??_C@_1M@HBAHBIGA@?$AAk?$AAy?$AA?9?$AAk?$AAg?$AA?$AA@ 0000000180060de8     libucrt:lcidtoname_downlevel.obj
 0002:00005df8       ??_C@_1M@KPMILCJG@?$AAl?$AAt?$AA?9?$AAl?$AAt?$AA?$AA@ 0000000180060df8     libucrt:lcidtoname_downlevel.obj
 0002:00005e08       ??_C@_1M@BDEKKCA@?$AAl?$AAv?$AA?9?$AAl?$AAv?$AA?$AA@ 0000000180060e08     libucrt:lcidtoname_downlevel.obj
 0002:00005e18       ??_C@_1M@ELCKCCJJ@?$AAm?$AAi?$AA?9?$AAn?$AAz?$AA?$AA@ 0000000180060e18     libucrt:lcidtoname_downlevel.obj
 0002:00005e28       ??_C@_1M@CBOOLAPA@?$AAm?$AAk?$AA?9?$AAm?$AAk?$AA?$AA@ 0000000180060e28     libucrt:lcidtoname_downlevel.obj
 0002:00005e38       ??_C@_1M@GPHNBJKN@?$AAm?$AAl?$AA?9?$AAi?$AAn?$AA?$AA@ 0000000180060e38     libucrt:lcidtoname_downlevel.obj
 0002:00005e48       ??_C@_1M@PABJILIG@?$AAm?$AAn?$AA?9?$AAm?$AAn?$AA?$AA@ 0000000180060e48     libucrt:lcidtoname_downlevel.obj
 0002:00005e58       ??_C@_1M@FGBKKIPG@?$AAm?$AAr?$AA?9?$AAi?$AAn?$AA?$AA@ 0000000180060e58     libucrt:lcidtoname_downlevel.obj
 0002:00005e68       ??_C@_1M@NDBPDDAL@?$AAm?$AAs?$AA?9?$AAb?$AAn?$AA?$AA@ 0000000180060e68     libucrt:lcidtoname_downlevel.obj
 0002:00005e78       ??_C@_1M@OPIHOOPI@?$AAm?$AAs?$AA?9?$AAm?$AAy?$AA?$AA@ 0000000180060e78     libucrt:lcidtoname_downlevel.obj
 0002:00005e88       ??_C@_1M@PPDBCNFM@?$AAm?$AAt?$AA?9?$AAm?$AAt?$AA?$AA@ 0000000180060e88     libucrt:lcidtoname_downlevel.obj
 0002:00005e98       ??_C@_1M@KDJDKMDD@?$AAn?$AAb?$AA?9?$AAn?$AAo?$AA?$AA@ 0000000180060e98     libucrt:lcidtoname_downlevel.obj
 0002:00005ea8       ??_C@_1M@KFCFLMJP@?$AAn?$AAl?$AA?9?$AAb?$AAe?$AA?$AA@ 0000000180060ea8     libucrt:lcidtoname_downlevel.obj
 0002:00005eb8       ??_C@_1M@KPOPDDGO@?$AAn?$AAl?$AA?9?$AAn?$AAl?$AA?$AA@ 0000000180060eb8     libucrt:lcidtoname_downlevel.obj
 0002:00005ec8       ??_C@_1M@LJKPEMLN@?$AAn?$AAn?$AA?9?$AAn?$AAo?$AA?$AA@ 0000000180060ec8     libucrt:lcidtoname_downlevel.obj
 0002:00005ed8       ??_C@_1M@BDGHHBFL@?$AAn?$AAs?$AA?9?$AAz?$AAa?$AA?$AA@ 0000000180060ed8     libucrt:lcidtoname_downlevel.obj
 0002:00005ee8       ??_C@_1M@IDEHOAP@?$AAp?$AAa?$AA?9?$AAi?$AAn?$AA?$AA@ 0000000180060ee8     libucrt:lcidtoname_downlevel.obj
 0002:00005ef8       ??_C@_1M@HDBKGOGH@?$AAp?$AAl?$AA?9?$AAp?$AAl?$AA?$AA@ 0000000180060ef8     libucrt:lcidtoname_downlevel.obj
 0002:00005f08       ??_C@_1M@LJLLCMEH@?$AAp?$AAt?$AA?9?$AAb?$AAr?$AA?$AA@ 0000000180060f08     libucrt:lcidtoname_downlevel.obj
 0002:00005f18       ??_C@_1M@NCMONAAL@?$AAp?$AAt?$AA?9?$AAp?$AAt?$AA?$AA@ 0000000180060f18     libucrt:lcidtoname_downlevel.obj
 0002:00005f28       ??_C@_1O@EAKMAJDN@?$AAq?$AAu?$AAz?$AA?9?$AAb?$AAo?$AA?$AA@ 0000000180060f28     libucrt:lcidtoname_downlevel.obj
 0002:00005f38       ??_C@_1O@BHHPIGDN@?$AAq?$AAu?$AAz?$AA?9?$AAe?$AAc?$AA?$AA@ 0000000180060f38     libucrt:lcidtoname_downlevel.obj
 0002:00005f48       ??_C@_1O@GBAPEKMJ@?$AAq?$AAu?$AAz?$AA?9?$AAp?$AAe?$AA?$AA@ 0000000180060f48     libucrt:lcidtoname_downlevel.obj
 0002:00005f58       ??_C@_1M@CLGLEFBO@?$AAr?$AAo?$AA?9?$AAr?$AAo?$AA?$AA@ 0000000180060f58     libucrt:lcidtoname_downlevel.obj
 0002:00005f68       ??_C@_1M@CEEDODME@?$AAr?$AAu?$AA?9?$AAr?$AAu?$AA?$AA@ 0000000180060f68     libucrt:lcidtoname_downlevel.obj
 0002:00005f78       ??_C@_1M@HPKKKMPP@?$AAs?$AAa?$AA?9?$AAi?$AAn?$AA?$AA@ 0000000180060f78     libucrt:lcidtoname_downlevel.obj
 0002:00005f88       ??_C@_1M@BKMAIGOJ@?$AAs?$AAe?$AA?9?$AAf?$AAi?$AA?$AA@ 0000000180060f88     libucrt:lcidtoname_downlevel.obj
 0002:00005f98       ??_C@_1M@NDPIFLFI@?$AAs?$AAe?$AA?9?$AAn?$AAo?$AA?$AA@ 0000000180060f98     libucrt:lcidtoname_downlevel.obj
 0002:00005fa8       ??_C@_1M@DANKKHJ@?$AAs?$AAe?$AA?9?$AAs?$AAe?$AA?$AA@ 0000000180060fa8     libucrt:lcidtoname_downlevel.obj
 0002:00005fb8       ??_C@_1M@PNBLONPJ@?$AAs?$AAk?$AA?9?$AAs?$AAk?$AA?$AA@ 0000000180060fb8     libucrt:lcidtoname_downlevel.obj
 0002:00005fc8       ??_C@_1M@LFMODOAL@?$AAs?$AAl?$AA?9?$AAs?$AAi?$AA?$AA@ 0000000180060fc8     libucrt:lcidtoname_downlevel.obj
 0002:00005fd8       ??_C@_1O@DFKOMPG@?$AAs?$AAm?$AAa?$AA?9?$AAn?$AAo?$AA?$AA@ 0000000180060fd8     libucrt:lcidtoname_downlevel.obj
 0002:00005fe8       ??_C@_1O@NDKPBNNH@?$AAs?$AAm?$AAa?$AA?9?$AAs?$AAe?$AA?$AA@ 0000000180060fe8     libucrt:lcidtoname_downlevel.obj
 0002:00005ff8       ??_C@_1O@PLLKBHAB@?$AAs?$AAm?$AAj?$AA?9?$AAn?$AAo?$AA?$AA@ 0000000180060ff8     libucrt:lcidtoname_downlevel.obj
 0002:00006008       ??_C@_1O@CLEPOGCA@?$AAs?$AAm?$AAj?$AA?9?$AAs?$AAe?$AA?$AA@ 0000000180061008     libucrt:lcidtoname_downlevel.obj
 0002:00006018       ??_C@_1O@DLGJGKMK@?$AAs?$AAm?$AAn?$AA?9?$AAf?$AAi?$AA?$AA@ 0000000180061018     libucrt:lcidtoname_downlevel.obj
 0002:00006028       ??_C@_1O@OJDJGAJC@?$AAs?$AAm?$AAs?$AA?9?$AAf?$AAi?$AA?$AA@ 0000000180061028     libucrt:lcidtoname_downlevel.obj
 0002:00006038       ??_C@_1M@BOFOGHPB@?$AAs?$AAq?$AA?9?$AAa?$AAl?$AA?$AA@ 0000000180061038     libucrt:lcidtoname_downlevel.obj
 0002:00006048       ??_C@_1BG@LJBBIPGB@?$AAs?$AAr?$AA?9?$AAb?$AAa?$AA?9?$AAc?$AAy?$AAr?$AAl?$AA?$AA@ 0000000180061048     libucrt:lcidtoname_downlevel.obj
 0002:00006060       ??_C@_1BG@JLBENFOE@?$AAs?$AAr?$AA?9?$AAb?$AAa?$AA?9?$AAl?$AAa?$AAt?$AAn?$AA?$AA@ 0000000180061060     libucrt:lcidtoname_downlevel.obj
 0002:00006078       ??_C@_1BG@KODPNHE@?$AAs?$AAr?$AA?9?$AAs?$AAp?$AA?9?$AAc?$AAy?$AAr?$AAl?$AA?$AA@ 0000000180061078     libucrt:lcidtoname_downlevel.obj
 0002:00006090       ??_C@_1BG@CIOGKHPB@?$AAs?$AAr?$AA?9?$AAs?$AAp?$AA?9?$AAl?$AAa?$AAt?$AAn?$AA?$AA@ 0000000180061090     libucrt:lcidtoname_downlevel.obj
 0002:000060a8       ??_C@_1M@NGFJLMAC@?$AAs?$AAv?$AA?9?$AAf?$AAi?$AA?$AA@ 00000001800610a8     libucrt:lcidtoname_downlevel.obj
 0002:000060b8       ??_C@_1M@MPJEJAJC@?$AAs?$AAv?$AA?9?$AAs?$AAe?$AA?$AA@ 00000001800610b8     libucrt:lcidtoname_downlevel.obj
 0002:000060c8       ??_C@_1M@MPNDHLFK@?$AAs?$AAw?$AA?9?$AAk?$AAe?$AA?$AA@ 00000001800610c8     libucrt:lcidtoname_downlevel.obj
 0002:000060d8       ??_C@_1O@KOHBJJI@?$AAs?$AAy?$AAr?$AA?9?$AAs?$AAy?$AA?$AA@ 00000001800610d8     libucrt:lcidtoname_downlevel.obj
 0002:000060e8       ??_C@_1M@LDCEFHA@?$AAt?$AAa?$AA?9?$AAi?$AAn?$AA?$AA@ 00000001800610e8     libucrt:lcidtoname_downlevel.obj
 0002:000060f8       ??_C@_1M@CNJOFAK@?$AAt?$AAe?$AA?9?$AAi?$AAn?$AA?$AA@ 00000001800610f8     libucrt:lcidtoname_downlevel.obj
 0002:00006108       ??_C@_1M@GNAECACD@?$AAt?$AAh?$AA?9?$AAt?$AAh?$AA?$AA@ 0000000180061108     libucrt:lcidtoname_downlevel.obj
 0002:00006118       ??_C@_1M@CHBIHOJO@?$AAt?$AAn?$AA?9?$AAz?$AAa?$AA?$AA@ 0000000180061118     libucrt:lcidtoname_downlevel.obj
 0002:00006128       ??_C@_1M@GCCMIGPJ@?$AAt?$AAr?$AA?9?$AAt?$AAr?$AA?$AA@ 0000000180061128     libucrt:lcidtoname_downlevel.obj
 0002:00006138       ??_C@_1M@CELMCNBK@?$AAt?$AAt?$AA?9?$AAr?$AAu?$AA?$AA@ 0000000180061138     libucrt:lcidtoname_downlevel.obj
 0002:00006148       ??_C@_1M@KLMCELGA@?$AAu?$AAk?$AA?9?$AAu?$AAa?$AA?$AA@ 0000000180061148     libucrt:lcidtoname_downlevel.obj
 0002:00006158       ??_C@_1M@EPAJJAJF@?$AAu?$AAr?$AA?9?$AAp?$AAk?$AA?$AA@ 0000000180061158     libucrt:lcidtoname_downlevel.obj
 0002:00006168       ??_C@_1BG@GEGPMCDJ@?$AAu?$AAz?$AA?9?$AAu?$AAz?$AA?9?$AAc?$AAy?$AAr?$AAl?$AA?$AA@ 0000000180061168     libucrt:lcidtoname_downlevel.obj
 0002:00006180       ??_C@_1BG@EGGKJILM@?$AAu?$AAz?$AA?9?$AAu?$AAz?$AA?9?$AAl?$AAa?$AAt?$AAn?$AA?$AA@ 0000000180061180     libucrt:lcidtoname_downlevel.obj
 0002:00006198       ??_C@_1M@GFOCLFF@?$AAv?$AAi?$AA?9?$AAv?$AAn?$AA?$AA@ 0000000180061198     libucrt:lcidtoname_downlevel.obj
 0002:000061a8       ??_C@_1M@CPAMEDFI@?$AAx?$AAh?$AA?9?$AAz?$AAa?$AA?$AA@ 00000001800611a8     libucrt:lcidtoname_downlevel.obj
 0002:000061b8       ??_C@_1O@EBKIFIGN@?$AAz?$AAh?$AA?9?$AAc?$AAh?$AAs?$AA?$AA@ 00000001800611b8     libucrt:lcidtoname_downlevel.obj
 0002:000061c8       ??_C@_1O@NMHPGANE@?$AAz?$AAh?$AA?9?$AAc?$AAh?$AAt?$AA?$AA@ 00000001800611c8     libucrt:lcidtoname_downlevel.obj
 0002:000061d8       ??_C@_1M@LPINJOMC@?$AAz?$AAh?$AA?9?$AAc?$AAn?$AA?$AA@ 00000001800611d8     libucrt:lcidtoname_downlevel.obj
 0002:000061e8       ??_C@_1M@OCJEJODD@?$AAz?$AAh?$AA?9?$AAh?$AAk?$AA?$AA@ 00000001800611e8     libucrt:lcidtoname_downlevel.obj
 0002:000061f8       ??_C@_1M@DNDLJINH@?$AAz?$AAh?$AA?9?$AAm?$AAo?$AA?$AA@ 00000001800611f8     libucrt:lcidtoname_downlevel.obj
 0002:00006208       ??_C@_1M@MBFDNDND@?$AAz?$AAh?$AA?9?$AAs?$AAg?$AA?$AA@ 0000000180061208     libucrt:lcidtoname_downlevel.obj
 0002:00006218       ??_C@_1M@IMEPLEPE@?$AAz?$AAh?$AA?9?$AAt?$AAw?$AA?$AA@ 0000000180061218     libucrt:lcidtoname_downlevel.obj
 0002:00006228       ??_C@_1M@BBGHNHJP@?$AAz?$AAu?$AA?9?$AAz?$AAa?$AA?$AA@ 0000000180061228     libucrt:lcidtoname_downlevel.obj
 0002:00007080       ??_C@_15EMKDOKLE@?$AAa?$AAr?$AA?$AA@ 0000000180062080     libucrt:lcidtoname_downlevel.obj
 0002:00007088       ??_C@_15KNPADPLH@?$AAb?$AAg?$AA?$AA@ 0000000180062088     libucrt:lcidtoname_downlevel.obj
 0002:00007090       ??_C@_15EDMHLDMO@?$AAc?$AAa?$AA?$AA@ 0000000180062090     libucrt:lcidtoname_downlevel.obj
 0002:00007098       ??_C@_1O@BPEAJADD@?$AAz?$AAh?$AA?9?$AAC?$AAH?$AAS?$AA?$AA@ 0000000180062098     libucrt:lcidtoname_downlevel.obj
 0002:000070a8       ??_C@_15LJNHCMNK@?$AAc?$AAs?$AA?$AA@ 00000001800620a8     libucrt:lcidtoname_downlevel.obj
 0002:000070b0       ??_C@_15FOMCIDHG@?$AAd?$AAa?$AA?$AA@ 00000001800620b0     libucrt:lcidtoname_downlevel.obj
 0002:000070b8       ??_C@_15NBKABECB@?$AAd?$AAe?$AA?$AA@ 00000001800620b8     libucrt:lcidtoname_downlevel.obj
 0002:000070c0       ??_C@_15GHPEIIAO@?$AAe?$AAl?$AA?$AA@ 00000001800620c0     libucrt:lcidtoname_downlevel.obj
 0002:000070c8       ??_C@_15MNPNEAIF@?$AAe?$AAn?$AA?$AA@ 00000001800620c8     libucrt:lcidtoname_downlevel.obj
 0002:000070d0       ??_C@_15GPIOMPMH@?$AAe?$AAs?$AA?$AA@ 00000001800620d0     libucrt:lcidtoname_downlevel.obj
 0002:000070d8       ??_C@_15NGLOAKJC@?$AAf?$AAi?$AA?$AA@ 00000001800620d8     libucrt:lcidtoname_downlevel.obj
 0002:000070e0       ??_C@_15FBKGNKAM@?$AAf?$AAr?$AA?$AA@ 00000001800620e0     libucrt:lcidtoname_downlevel.obj
 0002:000070e8       ??_C@_15KGGCNEFK@?$AAh?$AAe?$AA?$AA@ 00000001800620e8     libucrt:lcidtoname_downlevel.obj
 0002:000070f0       ??_C@_15PGHLIDMF@?$AAh?$AAu?$AA?$AA@ 00000001800620f0     libucrt:lcidtoname_downlevel.obj
 0002:000070f8       ??_C@_15BIEMAPLM@?$AAi?$AAs?$AA?$AA@ 00000001800620f8     libucrt:lcidtoname_downlevel.obj
 0002:00007100       ??_C@_15IFJLDHAF@?$AAi?$AAt?$AA?$AA@ 0000000180062100     libucrt:lcidtoname_downlevel.obj
 0002:00007108       ??_C@_15GEMIOCAG@?$AAj?$AAa?$AA?$AA@ 0000000180062108     libucrt:lcidtoname_downlevel.obj
 0002:00007110       ??_C@_15EPELEGJA@?$AAk?$AAo?$AA?$AA@ 0000000180062110     libucrt:lcidtoname_downlevel.obj
 0002:00007118       ??_C@_15NDDHIMN@?$AAn?$AAl?$AA?$AA@ 0000000180062118     libucrt:lcidtoname_downlevel.obj
 0002:00007120       ??_C@_15BPIGNHCD@?$AAn?$AAo?$AA?$AA@ 0000000180062120     libucrt:lcidtoname_downlevel.obj
 0002:00007128       ??_C@_15DEOPBLCG@?$AAp?$AAl?$AA?$AA@ 0000000180062128     libucrt:lcidtoname_downlevel.obj
 0002:00007130       ??_C@_15KBECGEFG@?$AAp?$AAt?$AA?$AA@ 0000000180062130     libucrt:lcidtoname_downlevel.obj
 0002:00007138       ??_C@_15GLJCBFMD@?$AAr?$AAo?$AA?$AA@ 0000000180062138     libucrt:lcidtoname_downlevel.obj
 0002:00007140       ??_C@_15FEDGKCDI@?$AAr?$AAu?$AA?$AA@ 0000000180062140     libucrt:lcidtoname_downlevel.obj
 0002:00007148       ??_C@_15GLKMLLHM@?$AAh?$AAr?$AA?$AA@ 0000000180062148     libucrt:lcidtoname_downlevel.obj
 0002:00007150       ??_C@_15CPKMFBDB@?$AAs?$AAk?$AA?$AA@ 0000000180062150     libucrt:lcidtoname_downlevel.obj
 0002:00007158       ??_C@_15BAAIOGMK@?$AAs?$AAq?$AA?$AA@ 0000000180062158     libucrt:lcidtoname_downlevel.obj
 0002:00007160       ??_C@_15INNPNOHD@?$AAs?$AAv?$AA?$AA@ 0000000180062160     libucrt:lcidtoname_downlevel.obj
 0002:00007168       ??_C@_15CABMMOGH@?$AAt?$AAh?$AA?$AA@ 0000000180062168     libucrt:lcidtoname_downlevel.obj
 0002:00007170       ??_C@_15BPLIHJJM@?$AAt?$AAr?$AA?$AA@ 0000000180062170     libucrt:lcidtoname_downlevel.obj
 0002:00007178       ??_C@_15NEOEKKDJ@?$AAu?$AAr?$AA?$AA@ 0000000180062178     libucrt:lcidtoname_downlevel.obj
 0002:00007180       ??_C@_15NFICGAJK@?$AAi?$AAd?$AA?$AA@ 0000000180062180     libucrt:lcidtoname_downlevel.obj
 0002:00007188       ??_C@_15HPJPHDM@?$AAb?$AAe?$AA?$AA@ 0000000180062188     libucrt:lcidtoname_downlevel.obj
 0002:00007190       ??_C@_15LCHLGJII@?$AAs?$AAl?$AA?$AA@ 0000000180062190     libucrt:lcidtoname_downlevel.obj
 0002:00007198       ??_C@_15PCFJPHHO@?$AAe?$AAt?$AA?$AA@ 0000000180062198     libucrt:lcidtoname_downlevel.obj
 0002:000071a0       ??_C@_15HPFPGODN@?$AAl?$AAv?$AA?$AA@ 00000001800621a0     libucrt:lcidtoname_downlevel.obj
 0002:000071a8       ??_C@_15NFFGKGLG@?$AAl?$AAt?$AA?$AA@ 00000001800621a8     libucrt:lcidtoname_downlevel.obj
 0002:000071b0       ??_C@_15BDAKCCHN@?$AAf?$AAa?$AA?$AA@ 00000001800621b0     libucrt:lcidtoname_downlevel.obj
 0002:000071b8       ??_C@_15NFGIAIAJ@?$AAv?$AAi?$AA?$AA@ 00000001800621b8     libucrt:lcidtoname_downlevel.obj
 0002:000071c0       ??_C@_15LMKNDMHN@?$AAh?$AAy?$AA?$AA@ 00000001800621c0     libucrt:lcidtoname_downlevel.obj
 0002:000071c8       ??_C@_15IJBHMCFL@?$AAa?$AAz?$AA?$AA@ 00000001800621c8     libucrt:lcidtoname_downlevel.obj
 0002:000071d0       ??_C@_15EKOFJABL@?$AAe?$AAu?$AA?$AA@ 00000001800621d0     libucrt:lcidtoname_downlevel.obj
 0002:000071d8       ??_C@_15BGHADCNK@?$AAm?$AAk?$AA?$AA@ 00000001800621d8     libucrt:lcidtoname_downlevel.obj
 0002:000071e0       ??_C@_15JDNICKHM@?$AAa?$AAf?$AA?$AA@ 00000001800621e0     libucrt:lcidtoname_downlevel.obj
 0002:000071e8       ??_C@_15KPJEDBKD@?$AAk?$AAa?$AA?$AA@ 00000001800621e8     libucrt:lcidtoname_downlevel.obj
 0002:000071f0       ??_C@_15PDNFFFEO@?$AAf?$AAo?$AA?$AA@ 00000001800621f0     libucrt:lcidtoname_downlevel.obj
 0002:000071f8       ??_C@_15OMLEGLOC@?$AAh?$AAi?$AA?$AA@ 00000001800621f8     libucrt:lcidtoname_downlevel.obj
 0002:00007200       ??_C@_15IDNNENKK@?$AAm?$AAs?$AA?$AA@ 0000000180062200     libucrt:lcidtoname_downlevel.obj
 0002:00007208       ??_C@_15MACJNBMH@?$AAk?$AAk?$AA?$AA@ 0000000180062208     libucrt:lcidtoname_downlevel.obj
 0002:00007210       ??_C@_15DKDJEOND@?$AAk?$AAy?$AA?$AA@ 0000000180062210     libucrt:lcidtoname_downlevel.obj
 0002:00007218       ??_C@_15DFGDLJBG@?$AAs?$AAw?$AA?$AA@ 0000000180062218     libucrt:lcidtoname_downlevel.obj
 0002:00007220       ??_C@_15BBFAICNG@?$AAu?$AAz?$AA?$AA@ 0000000180062220     libucrt:lcidtoname_downlevel.obj
 0002:00007228       ??_C@_15DKNDCGEA@?$AAt?$AAt?$AA?$AA@ 0000000180062228     libucrt:lcidtoname_downlevel.obj
 0002:00007230       ??_C@_15MGIFMDPL@?$AAp?$AAa?$AA?$AA@ 0000000180062230     libucrt:lcidtoname_downlevel.obj
 0002:00007238       ??_C@_15HCNDBBA@?$AAg?$AAu?$AA?$AA@ 0000000180062238     libucrt:lcidtoname_downlevel.obj
 0002:00007240       ??_C@_15FNBEIBON@?$AAt?$AAa?$AA?$AA@ 0000000180062240     libucrt:lcidtoname_downlevel.obj
 0002:00007248       ??_C@_15NCHGBGLK@?$AAt?$AAe?$AA?$AA@ 0000000180062248     libucrt:lcidtoname_downlevel.obj
 0002:00007250       ??_C@_15PHPHCBPF@?$AAk?$AAn?$AA?$AA@ 0000000180062250     libucrt:lcidtoname_downlevel.obj
 0002:00007258       ??_C@_15DLGBCKMP@?$AAm?$AAr?$AA?$AA@ 0000000180062258     libucrt:lcidtoname_downlevel.obj
 0002:00007260       ??_C@_15EABBLBFF@?$AAs?$AAa?$AA?$AA@ 0000000180062260     libucrt:lcidtoname_downlevel.obj
 0002:00007268       ??_C@_15CBKOMCOI@?$AAm?$AAn?$AA?$AA@ 0000000180062268     libucrt:lcidtoname_downlevel.obj
 0002:00007270       ??_C@_15CKDMCJAF@?$AAg?$AAl?$AA?$AA@ 0000000180062270     libucrt:lcidtoname_downlevel.obj
 0002:00007278       ??_C@_17CNJFBPG@?$AAk?$AAo?$AAk?$AA?$AA@ 0000000180062278     libucrt:lcidtoname_downlevel.obj
 0002:00007280       ??_C@_17FFBJICPL@?$AAs?$AAy?$AAr?$AA?$AA@ 0000000180062280     libucrt:lcidtoname_downlevel.obj
 0002:00007288       ??_C@_17KPNDCPAF@?$AAd?$AAi?$AAv?$AA?$AA@ 0000000180062288     libucrt:lcidtoname_downlevel.obj
 0002:00007290       ??_C@_11LOCGONAA@?$AA?$AA@ 0000000180062290     libucrt:lcidtoname_downlevel.obj
 0002:00007298       ??_C@_1M@OKAHONE@?$AAa?$AAr?$AA?9?$AAS?$AAA?$AA?$AA@ 0000000180062298     libucrt:lcidtoname_downlevel.obj
 0002:000072a8       ??_C@_1M@FFFIGIGK@?$AAb?$AAg?$AA?9?$AAB?$AAG?$AA?$AA@ 00000001800622a8     libucrt:lcidtoname_downlevel.obj
 0002:00007510       ??_C@_1BA@BALFACEM@?$AAC?$AAO?$AAN?$AAO?$AAU?$AAT?$AA$?$AA?$AA@ 0000000180062510     libucrt:initcon.obj
 0002:00007520       __log10_256_lead           0000000180062520     libucrt:log10_256_lead_tail_table.obj
 0002:00007d30       __log10_256_tail           0000000180062d30     libucrt:log10_256_lead_tail_table.obj
 0002:00008540       __log_F_inv_qword          0000000180063540     libucrt:log_f_inv_qword_table.obj
 0002:00008d50       ??_C@_05HGHHAHAP@log10?$AA@ 0000000180063d50     libucrt:log_special.obj
 0002:00008d70       ??_C@_1BK@DBDEIDLH@?$AAK?$AAE?$AAR?$AAN?$AAE?$AAL?$AA3?$AA2?$AA?4?$AAD?$AAL?$AAL@ 0000000180063d70     DelayImp:delayhlp.obj
 0002:00008d90       ??_C@_0BI@OMNLIJDB@AcquireSRWLockExclusive@ 0000000180063d90     DelayImp:delayhlp.obj
 0002:00008da8       ??_C@_0BI@HMIEPCNJ@ReleaseSRWLockExclusive@ 0000000180063da8     DelayImp:delayhlp.obj
 0002:00008dc0       __pfnDliFailureHook2       0000000180063dc0     DelayImp:delayhk1.obj
 0002:00008dd0       _load_config_used          0000000180063dd0     LIBCMT:loadcfg.obj
 0002:00008ed0       ??_C@_1DG@OKCGPKIB@?$AAp?$AAe?$AAr?$AAs?$AAi?$AAs?$AAt?$AAe?$AAn?$AAt?$AA?$CI?$AA?$CJ?$AA?4?$AAI?$AAs@ 0000000180063ed0     batch.obj
 0002:00008f08       ??_C@_1CO@EGNPJLKI@?$AAp?$AAe?$AAr?$AAs?$AAi?$AAs?$AAt?$AAe?$AAn?$AAt?$AA?$CI?$AA?$CJ?$AA?4?$AAI?$AAs@ 0000000180063f08     batch.obj
 0002:00008f38       ??_C@_1DA@FBGAEOIO@?$AA?$CB?$AAp?$AAe?$AAr?$AAs?$AAi?$AAs?$AAt?$AAe?$AAn?$AAt?$AA?$CI?$AA?$CJ?$AA?4?$AAI@ 0000000180063f38     batch.obj
 0002:00008f68       ??_C@_1CO@JCKLEFMA@?$AA?$CB?$AAp?$AAe?$AAr?$AAs?$AAi?$AAs?$AAt?$AAe?$AAn?$AAt?$AA?$CI?$AA?$CJ?$AA?4?$AAI@ 0000000180063f68     batch.obj
 0002:00008f98       ??_C@_1BE@GMLLOIPJ@?$AAr?$AAe?$AAf?$AAs?$AA_?$AA?5?$AA?$DO?$AA?5?$AA0@ 0000000180063f98     batch.obj
 0002:00008fb0       ??_C@_1CC@GBFLAAPF@?$AAw?$AAr?$AAa?$AAp?$AA?9?$AA?$DO?$AAr?$AAe?$AAf?$AAs?$AA_?$AA?5?$AA?$DN?$AA?$DN?$AA?5@ 0000000180063fb0     batch.obj
 0002:00008fe0       ??_C@_1HA@BLAPFJJL@?$AAd?$AA?3?$AA?2?$AAy?$AAu?$AAg?$AAs?$AAs?$AA?2?$AAp?$AAb?$AAk?$AAk?$AA?2?$AAt@ 0000000180063fe0     batch.obj
 0002:00009050       ??_C@_1EC@MGGLMBLC@?$AAo?$AAb?$AAj?$AAe?$AAc?$AAt?$AA?9?$AA?$DO?$AAI?$AAn?$AAt?$AAe?$AAr?$AAn?$AAa@ 0000000180064050     batch.obj
 0002:00009098       ??_C@_1DI@ELDBKNAK@?$AAw?$AAr?$AAa?$AAp?$AA?9?$AA?$DO?$AAh?$AAa?$AAn?$AAd?$AAl?$AAe?$AA_?$AA?4?$AAI@ 0000000180064098     batch.obj
 0002:000090d0       ??_C@_05KLBHAINL@Batch@    00000001800640d0     batch.obj
 0002:000090d8       ??_C@_03KMONJGDG@put@      00000001800640d8     batch.obj
 0002:000090dc       ??_C@_03ONKLGNNH@del@      00000001800640dc     batch.obj
 0002:000090e0       ??_C@_05MEHLAELG@clear@    00000001800640e0     batch.obj
 0002:000090e8       ??_C@_05NGFEDHGN@write@    00000001800640e8     batch.obj
 0002:000090f0       ??_C@_04JNABKDKF@sync@     00000001800640f0     batch.obj
 0002:000090f8       ??_C@_0CE@NLKGCCKK@Could?5not?5create?5new?5Batch?5inst@ 00000001800640f8     batch.obj
 0002:0000911c       ??_C@_05KMLLANON@batch@    000000018006411c     batch.obj
 0002:00009128       ??_C@_1CE@LNAGEONJ@?$AA?$CB?$AAo?$AAb?$AAj?$AAe?$AAc?$AAt?$AA?4?$AAI?$AAs?$AAE?$AAm?$AAp?$AAt?$AAy@ 0000000180064128     batch.obj
 0002:00009150       ??_7Batch@leveldown@@6B@   0000000180064150     batch.obj
 0002:00009168       ??_7ObjectWrap@Nan@@6B@    0000000180064168     batch.obj
 0002:00009180       ??_7AsyncWorker@Nan@@6B@   0000000180064180     batch_async.obj
 0002:000091b0       ??_7BatchWriteWorker@leveldown@@6B@ 00000001800641b0     batch_async.obj
 0002:000091e0       ??_7AsyncWorker@leveldown@@6B@ 00000001800641e0     batch_async.obj
 0002:00009210       ??_C@_0BA@JFNIOLAK@string?5too?5long@ 0000000180064210     database.obj
 0002:00009220       ??_C@_1FI@IPBOOMBJ@?$AAd?$AA?3?$AA?2?$AAy?$AAu?$AAg?$AAs?$AAs?$AA?2?$AAp?$AAb?$AAk?$AAk?$AA?2?$AAt@ 0000000180064220     database.obj
 0002:00009278       ??_C@_1BO@OPFMAOCA@?$AAl?$AAe?$AAn?$AA?5?$AA?$DM?$AA?$DN?$AA?5?$AAI?$AAN?$AAT?$AA_?$AAM?$AAA?$AAX@ 0000000180064278     database.obj
 0002:00009298       ??_C@_1BE@CKDJNAPC@?$AAs?$AAt?$AAr?$AA_?$AA?5?$AA?$CB?$AA?$DN?$AA?5?$AA0@ 0000000180064298     database.obj
 0002:000092b0       ??_C@_08HDBDMMBI@Database@ 00000001800642b0     database.obj
 0002:000092bc       ??_C@_04PMOCAHAA@open@     00000001800642bc     database.obj
 0002:000092c4       ??_C@_05LBOHBHFK@close@    00000001800642c4     database.obj
 0002:000092cc       ??_C@_03HNAFFKGA@get@      00000001800642cc     database.obj
 0002:000092d0       ??_C@_0BA@ICBLEBO@approximateSize@ 00000001800642d0     database.obj
 0002:000092e0       ??_C@_0N@BCNJFBMC@compactRange@ 00000001800642e0     database.obj
 0002:000092f0       ??_C@_0M@NBNLNHMA@getProperty@ 00000001800642f0     database.obj
 0002:00009300       ??_C@_08EAMFHCBD@iterator@ 0000000180064300     database.obj
 0002:00009310       ??_C@_0CH@CPAEAMGP@Could?5not?5create?5new?5Database?5i@ 0000000180064310     database.obj
 0002:00009338       ??_C@_0CE@HHBAOMKC@open?$CI?$CJ?5requires?5a?5callback?5argu@ 0000000180064338     database.obj
 0002:00009360       ??_C@_0BA@IMLMMIHB@createIfMissing@ 0000000180064360     database.obj
 0002:00009370       ??_C@_0O@CKMGLPGG@errorIfExists@ 0000000180064370     database.obj
 0002:00009380       ??_C@_0M@DGJEMLOB@compression@ 0000000180064380     database.obj
 0002:00009390       ??_C@_09KLMIPJNI@cacheSize@ 0000000180064390     database.obj
 0002:000093a0       ??_C@_0BA@DHJKOGAG@writeBufferSize@ 00000001800643a0     database.obj
 0002:000093b0       ??_C@_09NKOHFFHE@blockSize@ 00000001800643b0     database.obj
 0002:000093c0       ??_C@_0N@OEAPABBL@maxOpenFiles@ 00000001800643c0     database.obj
 0002:000093d0       ??_C@_0BF@KEFIBIAB@blockRestartInterval@ 00000001800643d0     database.obj
 0002:000093e8       ??_C@_0M@EIGBNOHB@maxFileSize@ 00000001800643e8     database.obj
 0002:000093f8       ??_C@_08PBOCEOLL@database@ 00000001800643f8     database.obj
 0002:00009408       ??_C@_0CF@NPLBOPGM@close?$CI?$CJ?5requires?5a?5callback?5arg@ 0000000180064408     database.obj
 0002:00009430       ??_C@_03JBJLGPFL@end@      0000000180064430     database.obj
 0002:00009438       ??_C@_0CD@OPCHGGCC@put?$CI?$CJ?5requires?5a?5callback?5argum@ 0000000180064438     database.obj
 0002:00009460       ??_C@_0CD@IGCCFGHB@get?$CI?$CJ?5requires?5a?5callback?5argum@ 0000000180064460     database.obj
 0002:00009488       ??_C@_08KDGACIGK@asBuffer@ 0000000180064488     database.obj
 0002:00009498       ??_C@_09KBFNDMIM@fillCache@ 0000000180064498     database.obj
 0002:000094a8       ??_C@_0CD@LINPOKAD@del?$CI?$CJ?5requires?5a?5callback?5argum@ 00000001800644a8     database.obj
 0002:000094d0       ??_C@_0CF@CIMGFFEN@batch?$CI?$CJ?5requires?5a?5callback?5arg@ 00000001800644d0     database.obj
 0002:000094f8       ??_C@_03ICHNJLJF@key@      00000001800644f8     database.obj
 0002:000094fc       ??_C@_04GPMDFGEJ@type@     00000001800644fc     database.obj
 0002:00009504       ??_C@_05MFEJDJP@value@     0000000180064504     database.obj
 0002:00009510       ??_C@_0CP@IOHKLPIB@approximateSize?$CI?$CJ?5requires?5a?5ca@ 0000000180064510     database.obj
 0002:00009540       ??_C@_0CM@EIEJEHHL@compactRange?$CI?$CJ?5requires?5a?5callb@ 0000000180064540     database.obj
 0002:00009570       ??_C@_0CD@DMCOACFB@Fatal?5Error?5in?5Database?3?3Iterat@ 0000000180064570     database.obj
 0002:00009598       ??_C@_0BE@JONHPENG@map?1set?$DMT?$DO?5too?5long@ 0000000180064598     database.obj
 0002:000095b8       __pfnDliNotifyHook2        00000001800645b8     win_delay_load_hook.obj
 0002:0000a7e0       ??_7Database@leveldown@@6B@ 00000001800657e0     database.obj
 0002:0000a7f8       ??_C@_00CNPNBAHC@@         00000001800657f8     database_async.obj
 0002:0000a800       ??_C@_1FM@LOELJOFK@?$AAs?$AAi?$AAz?$AAe?$AA?5?$AA?$DM?$AA?$DN?$AA?5?$AAi?$AAm?$AAp?$AA?3?$AA?3?$AAk?$AAM@ 0000000180065800     database_async.obj
 0002:0000a85c       ??_C@_05FAGFPHJG@start@    000000018006585c     database_async.obj
 0002:0000a868       ??_C@_0N@GANCMIEI@compactStart@ 0000000180065868     database_async.obj
 0002:0000a878       ??_C@_0L@DMDPIKJI@compactEnd@ 0000000180065878     database_async.obj
 0002:0000a888       ??_7BatchWorker@leveldown@@6B@ 0000000180065888     database_async.obj
 0002:0000a8b8       ??_7CloseWorker@leveldown@@6B@ 00000001800658b8     database_async.obj
 0002:0000a8e8       ??_7DeleteWorker@leveldown@@6B@ 00000001800658e8     database_async.obj
 0002:0000a918       ??_7WriteWorker@leveldown@@6B@ 0000000180065918     database_async.obj
 0002:0000a948       ??_7OpenWorker@leveldown@@6B@ 0000000180065948     database_async.obj
 0002:0000a978       ??_7ReadWorker@leveldown@@6B@ 0000000180065978     database_async.obj
 0002:0000a9a8       ??_7IOWorker@leveldown@@6B@ 00000001800659a8     database_async.obj
 0002:0000a9d8       ??_7CompactRangeWorker@leveldown@@6B@ 00000001800659d8     database_async.obj
 0002:0000aa08       ??_7ApproximateSizeWorker@leveldown@@6B@ 0000000180065a08     database_async.obj
 0002:0000aa38       ??_C@_0CE@FOALBICH@next?$CI?$CJ?5requires?5a?5callback?5argu@ 0000000180065a38     iterator.obj
 0002:0000aa60       ??_C@_0BD@DKFIMDA@iterator?5has?5ended@ 0000000180065a60     iterator.obj
 0002:0000aa78       ??_C@_0CD@IJEBAALJ@end?$CI?$CJ?5requires?5a?5callback?5argum@ 0000000180065a78     iterator.obj
 0002:0000aaa0       ??_C@_08MCDEPALA@Iterator@ 0000000180065aa0     iterator.obj
 0002:0000aaac       ??_C@_04EDECCOGL@seek@     0000000180065aac     iterator.obj
 0002:0000aab4       ??_C@_04CJGEDOF@next@      0000000180065ab4     iterator.obj
 0002:0000aac0       ??_C@_0CH@HJJGKNGL@Could?5not?5create?5new?5Iterator?5i@ 0000000180065ac0     iterator.obj
 0002:0000aae8       ??_C@_07KOIEOCCE@reverse@  0000000180065ae8     iterator.obj
 0002:0000aaf0       ??_C@_05GADAOHMC@limit@    0000000180065af0     iterator.obj
 0002:0000aaf8       ??_C@_0O@PLFAGPJD@highWaterMark@ 0000000180065af8     iterator.obj
 0002:0000ab08       ??_C@_02KCAKIFL@lt@        0000000180065b08     iterator.obj
 0002:0000ab0c       ??_C@_03OEDJDHDG@lte@      0000000180065b0c     iterator.obj
 0002:0000ab10       ??_C@_02GHFEHLK@gt@        0000000180065b10     iterator.obj
 0002:0000ab14       ??_C@_03DDDILADH@gte@      0000000180065b14     iterator.obj
 0002:0000ab18       ??_C@_04IEPFDAGF@keys@     0000000180065b18     iterator.obj
 0002:0000ab20       ??_C@_06GEKOPAHD@values@   0000000180065b20     iterator.obj
 0002:0000ab28       ??_C@_0M@MOFCCECG@keyAsBuffer@ 0000000180065b28     iterator.obj
 0002:0000ab38       ??_C@_0O@ECAICMIE@valueAsBuffer@ 0000000180065b38     iterator.obj
 0002:0000ab48       ??_C@_0BD@OLBABOEK@vector?$DMT?$DO?5too?5long@ 0000000180065b48     iterator.obj
 0002:0000ab60       ??_7Iterator@leveldown@@6B@ 0000000180065b60     iterator.obj
 0002:0000ab78       ??_7NextWorker@leveldown@@6B@ 0000000180065b78     iterator_async.obj
 0002:0000aba8       ??_7EndWorker@leveldown@@6B@ 0000000180065ba8     iterator_async.obj
 0002:0000abd8       ??_C@_07OKFGPCEA@destroy@  0000000180065bd8     leveldown.obj
 0002:0000abe0       ??_C@_06GBBKOEBI@repair@   0000000180065be0     leveldown.obj
 0002:0000abe8       ??_C@_09KIOKINMM@leveldown@ 0000000180065be8     leveldown.obj
 0002:0000abf8       ??_C@_0DN@IIFENFKP@d?3?2yugss?2pbkk?2tugas3?2node_modul@ 0000000180065bf8     leveldown.obj
 0002:0000ac38       ??_7RepairWorker@leveldown@@6B@ 0000000180065c38     leveldown_async.obj
 0002:0000ac68       ??_7DestroyWorker@leveldown@@6B@ 0000000180065c68     leveldown_async.obj
 0002:0000ac98       ??_C@_08HCOMDCCD@iojs?4exe@ 0000000180065c98     win_delay_load_hook.obj
 0002:0000aca8       ??_C@_08JDDNMFDB@node?4exe@ 0000000180065ca8     win_delay_load_hook.obj
 0002:0000acc0       ??_C@_1LM@IAJGLILC@?$AAd?$AA?3?$AA?2?$AAy?$AAu?$AAg?$AAs?$AAs?$AA?2?$AAp?$AAb?$AAk?$AAk?$AA?2?$AAt@ 0000000180065cc0     leveldb:write_batch.obj
 0002:0000ad80       ??_C@_1BG@NADKCJKJ@?$AAn?$AA?5?$AA?$DM?$AA?5?$AAs?$AAi?$AAz?$AAe?$AA?$CI?$AA?$CJ@ 0000000180065d80     leveldb:write_batch.obj
 0002:0000ad98       ??_C@_1BI@LMLGEHCA@?$AAn?$AA?5?$AA?$DM?$AA?$DN?$AA?5?$AAs?$AAi?$AAz?$AAe?$AA?$CI?$AA?$CJ@ 0000000180065d98     leveldb:write_batch.obj
 0002:0000adb0       ??_C@_0CB@MFAPGBPB@malformed?5WriteBatch?5?$CItoo?5small@ 0000000180065db0     leveldb:write_batch.obj
 0002:0000add8       ??_C@_0BD@KFCDGH@bad?5WriteBatch?5Put@ 0000000180065dd8     leveldb:write_batch.obj
 0002:0000adf0       ??_C@_0BG@NCNAMDPJ@bad?5WriteBatch?5Delete@ 0000000180065df0     leveldb:write_batch.obj
 0002:0000ae08       ??_C@_0BH@MHGNFOAB@unknown?5WriteBatch?5tag@ 0000000180065e08     leveldb:write_batch.obj
 0002:0000ae20       ??_C@_0BL@GDAJGIHJ@WriteBatch?5has?5wrong?5count@ 0000000180065e20     leveldb:write_batch.obj
 0002:0000ae40       ??_C@_1LA@PHHCFEDB@?$AAd?$AA?3?$AA?2?$AAy?$AAu?$AAg?$AAs?$AAs?$AA?2?$AAp?$AAb?$AAk?$AAk?$AA?2?$AAt@ 0000000180065e40     leveldb:write_batch.obj
 0002:0000aef0       ??_C@_1DI@BGNOMHCM@?$AAs?$AAr?$AAc?$AA?9?$AA?$DO?$AAr?$AAe?$AAp?$AA_?$AA?4?$AAs?$AAi?$AAz?$AAe?$AA?$CI@ 0000000180065ef0     leveldb:write_batch.obj
 0002:0000af28       ??_7SequentialFile@leveldb@@6B@ 0000000180065f28     leveldb:env.obj
 0002:0000af28       ??_7Handler@WriteBatch@leveldb@@6B@ 0000000180065f28     leveldb:write_batch.obj
 0002:0000af60       ??_C@_1KK@IDLJDBLE@?$AAd?$AA?3?$AA?2?$AAy?$AAu?$AAg?$AAs?$AAs?$AA?2?$AAp?$AAb?$AAk?$AAk?$AA?2?$AAt@ 0000000180065f60     leveldb:status.obj
 0002:0000b010       ??_C@_1BI@DNJOCBDA@?$AAc?$AAo?$AAd?$AAe?$AA?5?$AA?$CB?$AA?$DN?$AA?5?$AAk?$AAO?$AAk@ 0000000180066010     leveldb:status.obj
 0002:0000b028       ??_C@_02GIPFHKNO@OK@       0000000180066028     leveldb:status.obj
 0002:0000b030       ??_C@_0L@HKDIDHFG@NotFound?3?5@ 0000000180066030     leveldb:status.obj
 0002:0000b040       ??_C@_0N@KDKDJABO@Corruption?3?5@ 0000000180066040     leveldb:status.obj
 0002:0000b050       ??_C@_0BC@IFMBLDI@Not?5implemented?3?5@ 0000000180066050     leveldb:status.obj
 0002:0000b068       ??_C@_0BD@JMODGJIE@Invalid?5argument?3?5@ 0000000180066068     leveldb:status.obj
 0002:0000b080       ??_C@_0L@BHAHLIIP@IO?5error?3?5@ 0000000180066080     leveldb:status.obj
 0002:0000b090       ??_C@_0BD@MHNAFLBE@Unknown?5code?$CI?$CFd?$CJ?3?5@ 0000000180066090     leveldb:status.obj
 0002:0000b0a8       ??_C@_0BM@ELMIHIHJ@leveldb?4BuiltinBloomFilter2@ 00000001800660a8     leveldb:bloom.obj
 0002:0000b0c8       ??_7FilterPolicy@leveldb@@6B@ 00000001800660c8     leveldb:bloom.obj
 0002:0000b0c8       ??_7Source@snappy@@6B@     00000001800660c8     snappy:snappy.obj
 0002:0000b108       ??_7RandomAccessFile@leveldb@@6B@ 0000000180066108     leveldb:env.obj
 0002:0000b108       ??_7Logger@leveldb@@6B@    0000000180066108     leveldb:env.obj
 0002:0000b108       ??_7Reporter@Reader@log@leveldb@@6B@ 0000000180066108     leveldb:db_impl.obj
 0002:0000b128       ??_7DBImpl@leveldb@@6B@    0000000180066128     leveldb:db_impl.obj
 0002:0000b180       ??_7WritableFile@leveldb@@6B@ 0000000180066180     leveldb:env.obj
 0002:0000b180       ??_7Comparator@leveldb@@6B@ 0000000180066180     leveldb:db_impl.obj
 0002:0000b1a8       ??_7InternalKeyComparator@leveldb@@6B@ 00000001800661a8     leveldb:db_impl.obj
 0002:0000b1d0       ??_7DB@leveldb@@6B@        00000001800661d0     leveldb:db_impl.obj
 0002:0000b228       ??_7FileLock@leveldb@@6B@  0000000180066228     leveldb:env.obj
 0002:0000b228       ??_7Snapshot@leveldb@@6B@  0000000180066228     leveldb:db_impl.obj
 0002:0000b230       ??_7InternalFilterPolicy@leveldb@@6B@ 0000000180066230     leveldb:db_impl.obj
 0002:0000b250       ??_7SnapshotImpl@leveldb@@6B@ 0000000180066250     leveldb:db_impl.obj
 0002:0000b260       ??_C@_1KI@PILMNCIL@?$AAd?$AA?3?$AA?2?$AAy?$AAu?$AAg?$AAs?$AAs?$AA?2?$AAp?$AAb?$AAk?$AAk?$AA?2?$AAt@ 0000000180066260     leveldb:db_impl.obj
 0002:0000b308       ??_C@_1DC@KFNEGKGI@?$AAi?$AAn?$AAt?$AAe?$AAr?$AAn?$AAa?$AAl?$AA_?$AAk?$AAe?$AAy?$AA?4?$AAs?$AAi@ 0000000180066308     leveldb:db_impl.obj
 0002:0000b340       ??_C@_1KI@HFCCGOHE@?$AAd?$AA?3?$AA?2?$AAy?$AAu?$AAg?$AAs?$AAs?$AA?2?$AAp?$AAb?$AAk?$AAk?$AA?2?$AAt@ 0000000180066340     leveldb:db_impl.obj
 0002:0000b3e8       ??_C@_1CC@BBPCDAAO@?$AAs?$AA?9?$AA?$DO?$AAl?$AAi?$AAs?$AAt?$AA_?$AA?5?$AA?$DN?$AA?$DN?$AA?5?$AAt?$AAh?$AAi@ 00000001800663e8     leveldb:db_impl.obj
 0002:0000b410       ??_C@_1KI@NLBAGMFG@?$AAd?$AA?3?$AA?2?$AAy?$AAu?$AAg?$AAs?$AAs?$AA?2?$AAp?$AAb?$AAk?$AAk?$AA?2?$AAt@ 0000000180066410     leveldb:db_impl.obj
 0002:0000b4b8       ??_C@_1BG@HPOMICMF@?$AAr?$AAe?$AAf?$AAs?$AA_?$AA?5?$AA?$DO?$AA?$DN?$AA?5?$AA0@ 00000001800664b8     leveldb:db_impl.obj
 0002:0000b4d0       ??_C@_1KO@JGGMNOME@?$AAd?$AA?3?$AA?2?$AAy?$AAu?$AAg?$AAs?$AAs?$AA?2?$AAp?$AAb?$AAk?$AAk?$AA?2?$AAt@ 00000001800664d0     leveldb:db_impl.obj
 0002:0000b580       ??_C@_1CI@ONGMKBKI@?$AAs?$AA?5?$AA?$DO?$AA?$DN?$AA?5?$AAl?$AAa?$AAs?$AAt?$AA_?$AAs?$AAe?$AAq?$AAu?$AAe@ 0000000180066580     leveldb:db_impl.obj
 0002:0000b5a8       ??_C@_0BC@JALOIKCP@Ignoring?5error?5?$CFs@ 00000001800665a8     leveldb:db_impl.obj
 0002:0000b5c0       ??_C@_0BG@JFOLEODH@Delete?5type?$DN?$CFd?5?$CD?$CFlld?6@ 00000001800665c0     leveldb:db_impl.obj
 0002:0000b5d8       ??_C@_01KMDKNFGN@?1@       00000001800665d8     leveldb:db_impl.obj
 0002:0000b5e0       ??_C@_1KI@NHIFNJCP@?$AAd?$AA?3?$AA?2?$AAy?$AAu?$AAg?$AAs?$AAs?$AA?2?$AAp?$AAb?$AAk?$AAk?$AA?2?$AAt@ 00000001800665e0     leveldb:db_impl.obj
 0002:0000b688       ??_C@_1CC@ILLOLGKN@?$AAd?$AAb?$AA_?$AAl?$AAo?$AAc?$AAk?$AA_?$AA?5?$AA?$DN?$AA?$DN?$AA?5?$AAN?$AAU?$AAL@ 0000000180066688     leveldb:db_impl.obj
 0002:0000b6b0       ??_C@_0CM@NJBPDBKJ@does?5not?5exist?5?$CIcreate_if_missi@ 00000001800666b0     leveldb:db_impl.obj
 0002:0000b6e0       ??_C@_0CB@JKAIOEMM@exists?5?$CIerror_if_exists?5is?5true@ 00000001800666e0     leveldb:db_impl.obj
 0002:0000b708       ??_C@_0BH@FNAANBPD@?$CFd?5missing?5files?$DL?5e?4g?4@ 0000000180066708     leveldb:db_impl.obj
 0002:0000b720       ??_C@_0BC@HAHNELHF@?$CIignoring?5error?$CJ?5@ 0000000180066720     leveldb:db_impl.obj
 0002:0000b738       ??_C@_0BM@IEECBMAN@?$CFs?$CFs?3?5dropping?5?$CFd?5bytes?$DL?5?$CFs@ 0000000180066738     leveldb:db_impl.obj
 0002:0000b758       ??_C@_0BF@KNKOMAKO@Recovering?5log?5?$CD?$CFllu@ 0000000180066758     leveldb:db_impl.obj
 0002:0000b770       ??_C@_0BF@JFEJNHOC@log?5record?5too?5small@ 0000000180066770     leveldb:db_impl.obj
 0002:0000b788       ??_C@_1CC@KHGGPAKF@?$AAl?$AAo?$AAg?$AAf?$AAi?$AAl?$AAe?$AA_?$AA?5?$AA?$DN?$AA?$DN?$AA?5?$AAN?$AAU?$AAL@ 0000000180066788     leveldb:db_impl.obj
 0002:0000b7b0       ??_C@_1BK@EEPDGBND@?$AAl?$AAo?$AAg?$AA_?$AA?5?$AA?$DN?$AA?$DN?$AA?5?$AAN?$AAU?$AAL?$AAL@ 00000001800667b0     leveldb:db_impl.obj
 0002:0000b7d0       ??_C@_1BK@DPMLNIHF@?$AAm?$AAe?$AAm?$AA_?$AA?5?$AA?$DN?$AA?$DN?$AA?5?$AAN?$AAU?$AAL?$AAL@ 00000001800667d0     leveldb:db_impl.obj
 0002:0000b7f0       ??_C@_0BF@HIHGMFHA@Reusing?5old?5log?5?$CFs?5?6@ 00000001800667f0     leveldb:db_impl.obj
 0002:0000b808       ??_C@_0BN@COCEKI@Level?90?5table?5?$CD?$CFllu?3?5started@ 0000000180066808     leveldb:db_impl.obj
 0002:0000b828       ??_C@_0CD@DPCIKGHP@Level?90?5table?5?$CD?$CFllu?3?5?$CFlld?5bytes@ 0000000180066828     leveldb:db_impl.obj
 0002:0000b850       ??_C@_1BK@IGFHJPED@?$AAi?$AAm?$AAm?$AA_?$AA?5?$AA?$CB?$AA?$DN?$AA?5?$AAN?$AAU?$AAL?$AAL@ 0000000180066850     leveldb:db_impl.obj
 0002:0000b870       ??_C@_0CH@IOLOKLFC@Deleting?5DB?5during?5memtable?5com@ 0000000180066870     leveldb:db_impl.obj
 0002:0000b898       ??_C@_1BG@FBALNOAJ@?$AAl?$AAe?$AAv?$AAe?$AAl?$AA?5?$AA?$DO?$AA?$DN?$AA?5?$AA0@ 0000000180066898     leveldb:db_impl.obj
 0002:0000b8b0       ??_C@_1DO@HOBCOBHH@?$AAl?$AAe?$AAv?$AAe?$AAl?$AA?5?$AA?$CL?$AA?5?$AA1?$AA?5?$AA?$DM?$AA?5?$AAc?$AAo?$AAn@ 00000001800668b0     leveldb:db_impl.obj
 0002:0000b8f0       ??_C@_1DC@OJMHCMCP@?$AAb?$AAg?$AA_?$AAc?$AAo?$AAm?$AAp?$AAa?$AAc?$AAt?$AAi?$AAo?$AAn?$AA_?$AAs@ 00000001800668f0     leveldb:db_impl.obj
 0002:0000b924       ??_C@_05CEHBFNBN@?$CIend?$CJ@ 0000000180066924     leveldb:db_impl.obj
 0002:0000b930       ??_C@_07JPGNPAEF@?$CIbegin?$CJ@ 0000000180066930     leveldb:db_impl.obj
 0002:0000b938       ??_C@_0DO@LGGFBPLI@Manual?5compaction?5at?5level?9?$CFd?5f@ 0000000180066938     leveldb:db_impl.obj
 0002:0000b978       ??_C@_1DG@BKJODJLI@?$AAc?$AA?9?$AA?$DO?$AAn?$AAu?$AAm?$AA_?$AAi?$AAn?$AAp?$AAu?$AAt?$AA_?$AAf?$AAi@ 0000000180066978     leveldb:db_impl.obj
 0002:0000b9b0       ??_C@_0CL@LBPMNBCM@Moved?5?$CD?$CFlld?5to?5level?9?$CFd?5?$CFlld?5by@ 00000001800669b0     leveldb:db_impl.obj
 0002:0000b9e0       ??_C@_0BF@JOIADNEO@Compaction?5error?3?5?$CFs@ 00000001800669e0     leveldb:db_impl.obj
 0002:0000b9f8       ??_C@_1DC@KCAEGKPC@?$AAc?$AAo?$AAm?$AAp?$AAa?$AAc?$AAt?$AA?9?$AA?$DO?$AAo?$AAu?$AAt?$AAf?$AAi?$AAl@ 00000001800669f8     leveldb:db_impl.obj
 0002:0000ba30       ??_C@_1CA@NDGIODEB@?$AAc?$AAo?$AAm?$AAp?$AAa?$AAc?$AAt?$AA?5?$AA?$CB?$AA?$DN?$AA?5?$AAN?$AAU?$AAL?$AAL@ 0000000180066a30     leveldb:db_impl.obj
 0002:0000ba50       ??_C@_1DC@FHGJPBE@?$AAc?$AAo?$AAm?$AAp?$AAa?$AAc?$AAt?$AA?9?$AA?$DO?$AAb?$AAu?$AAi?$AAl?$AAd?$AAe@ 0000000180066a50     leveldb:db_impl.obj
 0002:0000ba88       ??_C@_1DC@ODABIHKE@?$AAc?$AAo?$AAm?$AAp?$AAa?$AAc?$AAt?$AA?9?$AA?$DO?$AAo?$AAu?$AAt?$AAf?$AAi?$AAl@ 0000000180066a88     leveldb:db_impl.obj
 0002:0000bac0       ??_C@_1DC@EEHDHCEC@?$AAc?$AAo?$AAm?$AAp?$AAa?$AAc?$AAt?$AA?9?$AA?$DO?$AAb?$AAu?$AAi?$AAl?$AAd?$AAe@ 0000000180066ac0     leveldb:db_impl.obj
 0002:0000baf8       ??_C@_1CG@KJIIHBA@?$AAo?$AAu?$AAt?$AAp?$AAu?$AAt?$AA_?$AAn?$AAu?$AAm?$AAb?$AAe?$AAr?$AA?5?$AA?$CB@ 0000000180066af8     leveldb:db_impl.obj
 0002:0000bb20       ??_C@_0DA@MEIODOEN@Generated?5table?5?$CD?$CFllu?$EA?$CFd?3?5?$CFlld?5@ 0000000180066b20     leveldb:db_impl.obj
 0002:0000bb50       ??_C@_0CM@JOHCMPNB@Compacted?5?$CFd?$EA?$CFd?5?$CL?5?$CFd?$EA?$CFd?5files?5?$DN@ 0000000180066b50     leveldb:db_impl.obj
 0002:0000bb80       ??_C@_0BP@GPNCHHBE@Compacting?5?$CFd?$EA?$CFd?5?$CL?5?$CFd?$EA?$CFd?5files@ 0000000180066b80     leveldb:db_impl.obj
 0002:0000bba0       ??_C@_1HG@ECCOJIDM@?$AAv?$AAe?$AAr?$AAs?$AAi?$AAo?$AAn?$AAs?$AA_?$AA?9?$AA?$DO?$AAN?$AAu?$AAm?$AAL@ 0000000180066ba0     leveldb:db_impl.obj
 0002:0000bc18       ??_C@_0BO@HDOHHFLN@Deleting?5DB?5during?5compaction@ 0000000180066c18     leveldb:db_impl.obj
 0002:0000bc38       ??_C@_0BB@GIEMGFNH@compacted?5to?3?5?$CFs@ 0000000180066c38     leveldb:db_impl.obj
 0002:0000bc50       ??_C@_1CE@COAOCGAO@?$AA?$CB?$AAw?$AAr?$AAi?$AAt?$AAe?$AAr?$AAs?$AA_?$AA?4?$AAe?$AAm?$AAp?$AAt?$AAy@ 0000000180066c50     leveldb:db_impl.obj
 0002:0000bc78       ??_C@_1BO@PMNIFHIJ@?$AAr?$AAe?$AAs?$AAu?$AAl?$AAt?$AA?5?$AA?$CB?$AA?$DN?$AA?5?$AAN?$AAU?$AAL?$AAL@ 0000000180066c78     leveldb:db_impl.obj
 0002:0000bca0       ??_C@_1EO@NFIJBALM@?$AAW?$AAr?$AAi?$AAt?$AAe?$AAB?$AAa?$AAt?$AAc?$AAh?$AAI?$AAn?$AAt?$AAe?$AAr@ 0000000180066ca0     leveldb:db_impl.obj
 0002:0000bcf0       ??_C@_0CD@OHHDGDOO@Current?5memtable?5full?$DL?5waiting?4@ 0000000180066cf0     leveldb:db_impl.obj
 0002:0000bd18       ??_C@_0BP@GEAHKBIC@Too?5many?5L0?5files?$DL?5waiting?4?4?4?6@ 0000000180066d18     leveldb:db_impl.obj
 0002:0000bd40       ??_C@_1EA@HKFFNOJN@?$AAv?$AAe?$AAr?$AAs?$AAi?$AAo?$AAn?$AAs?$AA_?$AA?9?$AA?$DO?$AAP?$AAr?$AAe?$AAv@ 0000000180066d40     leveldb:db_impl.obj
 0002:0000bd80       ??_C@_08EEPJKALM@leveldb?4@ 0000000180066d80     leveldb:db_impl.obj
 0002:0000bd90       ??_C@_0BD@BJKCBABH@num?9files?9at?9level@ 0000000180066d90     leveldb:db_impl.obj
 0002:0000bda4       ??_C@_02DPKJAMEF@?$CFd@    0000000180066da4     leveldb:db_impl.obj
 0002:0000bda8       ??_C@_05BLKJBNOD@stats@    0000000180066da8     leveldb:db_impl.obj
 0002:0000bdb0       ??_C@_0JC@FBIEFEEE@?5?5?5?5?5?5?5?5?5?5?5?5?5?5?5?5?5?5?5?5?5?5?5?5?5?5?5?5?5?5?5@ 0000000180066db0     leveldb:db_impl.obj
 0002:0000be48       ??_C@_0CB@CPHKKDC@?$CF3d?5?$CF8d?5?$CF8?40f?5?$CF9?40f?5?$CF8?40f?5?$CF9?40f@ 0000000180066e48     leveldb:db_impl.obj
 0002:0000be70       ??_C@_08PBIEOFJN@sstables@ 0000000180066e70     leveldb:db_impl.obj
 0002:0000be80       ??_C@_0BJ@EGPMFMGF@approximate?9memory?9usage@ 0000000180066e80     leveldb:db_impl.obj
 0002:0000be9c       ??_C@_04FCIJFPNK@?$CFllu@  0000000180066e9c     leveldb:db_impl.obj
 0002:0000bea8       ??_C@_1CG@JLBPNDIH@?$AAi?$AAm?$AAp?$AAl?$AA?9?$AA?$DO?$AAm?$AAe?$AAm?$AA_?$AA?5?$AA?$CB?$AA?$DN?$AA?5?$AAN@ 0000000180066ea8     leveldb:db_impl.obj
 0002:0000bed0       ??_C@_0BC@KBDMBKEH@deque?$DMT?$DO?5too?5long@ 0000000180066ed0     leveldb:db_impl.obj
 0002:0000bef0       ??_C@_1KI@EKGJHIHI@?$AAd?$AA?3?$AA?2?$AAy?$AAu?$AAg?$AAs?$AAs?$AA?2?$AAp?$AAb?$AAk?$AAk?$AA?2?$AAt@ 0000000180066ef0     leveldb:cache.obj
 0002:0000bf98       ??_C@_1CA@DEHIGIIA@?$AAe?$AAl?$AAe?$AAm?$AAs?$AA_?$AA?5?$AA?$DN?$AA?$DN?$AA?5?$AAc?$AAo?$AAu?$AAn?$AAt@ 0000000180066f98     leveldb:cache.obj
 0002:0000bfb8       ??_C@_1DC@LMGNJKFM@?$AAi?$AAn?$AA_?$AAu?$AAs?$AAe?$AA_?$AA?4?$AAn?$AAe?$AAx?$AAt?$AA?5?$AA?$DN?$AA?$DN@ 0000000180066fb8     leveldb:cache.obj
 0002:0000bff0       ??_C@_1BI@FFMGBBDA@?$AAe?$AA?9?$AA?$DO?$AAi?$AAn?$AA_?$AAc?$AAa?$AAc?$AAh?$AAe@ 0000000180066ff0     leveldb:cache.obj
 0002:0000c008       ??_C@_1BK@NGJLMDHI@?$AAe?$AA?9?$AA?$DO?$AAr?$AAe?$AAf?$AAs?$AA?5?$AA?$DN?$AA?$DN?$AA?5?$AA1@ 0000000180067008     leveldb:cache.obj
 0002:0000c028       ??_C@_1BI@HFHCLOOL@?$AAe?$AA?9?$AA?$DO?$AAr?$AAe?$AAf?$AAs?$AA?5?$AA?$DO?$AA?5?$AA0@ 0000000180067028     leveldb:cache.obj
 0002:0000c040       ??_C@_1BK@DBCDHDAE@?$AA?$CB?$AAe?$AA?9?$AA?$DO?$AAi?$AAn?$AA_?$AAc?$AAa?$AAc?$AAh?$AAe@ 0000000180067040     leveldb:cache.obj
 0002:0000c060       ??_C@_1BO@LKJLCEGA@?$AAo?$AAl?$AAd?$AA?9?$AA?$DO?$AAr?$AAe?$AAf?$AAs?$AA?5?$AA?$DN?$AA?$DN?$AA?5?$AA1@ 0000000180067060     leveldb:cache.obj
 0002:0000c080       ??_C@_1O@BOMMHPJH@?$AAe?$AAr?$AAa?$AAs?$AAe?$AAd@ 0000000180067080     leveldb:cache.obj
 0002:0000c0d8       ??_7Cache@leveldb@@6B@     00000001800670d8     leveldb:cache.obj
 0002:0000c120       ??_C@_0FN@FKGADHBF@?$CK?$CK?$CK?$CK?5Repaired?5leveldb?5?$CFs?$DL?5recov@ 0000000180067120     leveldb:repair.obj
 0002:0000c180       ??_C@_0BG@OHLKFIFI@repair?5found?5no?5files@ 0000000180067180     leveldb:repair.obj
 0002:0000c198       ??_C@_0CJ@EOKELPDO@Log?5?$CD?$CFllu?3?5ignoring?5conversion?5@ 0000000180067198     leveldb:repair.obj
 0002:0000c1c8       ??_C@_0CB@ONPMNLMB@Log?5?$CD?$CFllu?3?5dropping?5?$CFd?5bytes?$DL?5?$CF@ 00000001800671c8     leveldb:repair.obj
 0002:0000c1f0       ??_C@_0BH@EOEMDKLP@Log?5?$CD?$CFllu?3?5ignoring?5?$CFs@ 00000001800671f0     leveldb:repair.obj
 0002:0000c208       ??_C@_0CK@CMDCKOFJ@Log?5?$CD?$CFllu?3?5?$CFd?5ops?5saved?5to?5Tabl@ 0000000180067208     leveldb:repair.obj
 0002:0000c238       ??_C@_0BJ@JPIJNMOF@Table?5?$CD?$CFllu?3?5dropped?3?5?$CFs@ 0000000180067238     leveldb:repair.obj
 0002:0000c258       ??_C@_0BP@CLHNPLFM@Table?5?$CD?$CFllu?3?5unparsable?5key?5?$CFs@ 0000000180067258     leveldb:repair.obj
 0002:0000c278       ??_C@_0BL@NILBKKHO@Table?5?$CD?$CFllu?3?5?$CFd?5entries?5?$CFs@ 0000000180067278     leveldb:repair.obj
 0002:0000c298       ??_C@_0CB@LEFFGEHF@Table?5?$CD?$CFllu?3?5?$CFd?5entries?5repaire@ 0000000180067298     leveldb:repair.obj
 0002:0000c2bc       ??_C@_05JKKEPOFN@?1lost@   00000001800672bc     leveldb:repair.obj
 0002:0000c2c8       ??_C@_0BC@ONAGHBGP@Archiving?5?$CFs?3?5?$CFs?6@ 00000001800672c8     leveldb:repair.obj
 0002:0000c2f0       ??_C@_1KG@NJNPABND@?$AAd?$AA?3?$AA?2?$AAy?$AAu?$AAg?$AAs?$AAs?$AA?2?$AAp?$AAb?$AAk?$AAk?$AA?2?$AAt@ 00000001800672f0     leveldb:memtable.obj
 0002:0000c398       ??_C@_1BE@FMOLJMJA@?$AAb?$AAy?$AAt?$AAe?$AAs?$AA?5?$AA?$DO?$AA?5?$AA0@ 0000000180067398     leveldb:memtable.obj
 0002:0000c3b0       ??_C@_1KK@OLLBKEJP@?$AAd?$AA?3?$AA?2?$AAy?$AAu?$AAg?$AAs?$AAs?$AA?2?$AAp?$AAb?$AAk?$AAk?$AA?2?$AAt@ 00000001800673b0     leveldb:memtable.obj
 0002:0000c460       ??_C@_1BG@JENLDJMG@?$AAr?$AAe?$AAf?$AAs?$AA_?$AA?5?$AA?$DN?$AA?$DN?$AA?5?$AA0@ 0000000180067460     leveldb:memtable.obj
 0002:0000c480       ??_C@_1EI@EDGMFDOF@?$AA?$CI?$AAp?$AA?5?$AA?$CL?$AA?5?$AAv?$AAa?$AAl?$AA_?$AAs?$AAi?$AAz?$AAe?$AA?$CJ?$AA?5@ 0000000180067480     leveldb:memtable.obj
 0002:0000c4d0       ??_C@_1KI@NPOILFPE@?$AAd?$AA?3?$AA?2?$AAy?$AAu?$AAg?$AAs?$AAs?$AA?2?$AAp?$AAb?$AAk?$AAk?$AA?2?$AAt@ 00000001800674d0     leveldb:memtable.obj
 0002:0000c580       ??_C@_1EC@PIHPBHJD@?$AAx?$AA?5?$AA?$DN?$AA?$DN?$AA?5?$AAN?$AAU?$AAL?$AAL?$AA?5?$AA?$HM?$AA?$HM?$AA?5?$AA?$CB?$AAE@ 0000000180067580     leveldb:memtable.obj
 0002:0000c5c8       ??_C@_1BA@PLJALMOI@?$AAV?$AAa?$AAl?$AAi?$AAd?$AA?$CI?$AA?$CJ@ 00000001800675c8     leveldb:memtable.obj
 0002:0000c5d8       ??_C@_1O@OOEGIONJ@?$AAn?$AA?5?$AA?$DO?$AA?$DN?$AA?5?$AA0@ 00000001800675d8     leveldb:memtable.obj
 0002:0000c5e8       ??_C@_1BG@MDOPMIMK@?$AAh?$AAe?$AAi?$AAg?$AAh?$AAt?$AA?5?$AA?$DO?$AA?5?$AA0@ 00000001800675e8     leveldb:memtable.obj
 0002:0000c600       ??_C@_1CK@ECEBNFHB@?$AAh?$AAe?$AAi?$AAg?$AAh?$AAt?$AA?5?$AA?$DM?$AA?$DN?$AA?5?$AAk?$AAM?$AAa?$AAx?$AAH@ 0000000180067600     leveldb:memtable.obj
 0002:0000c630       ??_C@_1FA@EOIGNBHK@?$AAx?$AA?5?$AA?$DN?$AA?$DN?$AA?5?$AAh?$AAe?$AAa?$AAd?$AA_?$AA?5?$AA?$HM?$AA?$HM?$AA?5?$AAc@ 0000000180067630     leveldb:memtable.obj
 0002:0000c680       ??_7MemTableIterator@leveldb@@6B@ 0000000180067680     leveldb:memtable.obj
 0002:0000c6d0       ??_C@_1KK@PDPOKCOK@?$AAd?$AA?3?$AA?2?$AAy?$AAu?$AAg?$AAs?$AAs?$AA?2?$AAp?$AAb?$AAk?$AAk?$AA?2?$AAt@ 00000001800676d0     leveldb:dbformat.obj
 0002:0000c780       ??_C@_1DE@LFLGLKMI@?$AAs?$AAe?$AAq?$AA?5?$AA?$DM?$AA?$DN?$AA?5?$AAk?$AAM?$AAa?$AAx?$AAS?$AAe?$AAq?$AAu@ 0000000180067780     leveldb:dbformat.obj
 0002:0000c7b8       ??_C@_0O@NKEDPHCJ@?8?5?$EA?5?$CFllu?5?3?5?$CFd@ 00000001800677b8     leveldb:dbformat.obj
 0002:0000c7c8       ??_C@_01GEODFPGF@?8@       00000001800677c8     leveldb:dbformat.obj
 0002:0000c7cc       ??_C@_05MODCJBFL@?$CIbad?$CJ@ 00000001800677cc     leveldb:dbformat.obj
 0002:0000c7d8       ??_C@_0BO@PEHHCKBL@leveldb?4InternalKeyComparator@ 00000001800677d8     leveldb:dbformat.obj
 0002:0000c7f8       ??_C@_1DO@GBOLJMAG@?$AAt?$AAh?$AAi?$AAs?$AA?9?$AA?$DO?$AAC?$AAo?$AAm?$AAp?$AAa?$AAr?$AAe?$AA?$CI?$AA?$CK@ 00000001800677f8     leveldb:dbformat.obj
 0002:0000c838       ??_C@_1DM@DCNNJMDC@?$AAt?$AAh?$AAi?$AAs?$AA?9?$AA?$DO?$AAC?$AAo?$AAm?$AAp?$AAa?$AAr?$AAe?$AA?$CI?$AAt@ 0000000180067838     leveldb:dbformat.obj
 0002:0000c878       ??_C@_1DK@GCDCDFNA@?$AAt?$AAh?$AAi?$AAs?$AA?9?$AA?$DO?$AAC?$AAo?$AAm?$AAp?$AAa?$AAr?$AAe?$AA?$CI?$AA?$CK@ 0000000180067878     leveldb:dbformat.obj
 0002:0000c8c0       ??_C@_1KI@KALMNPFF@?$AAd?$AA?3?$AA?2?$AAy?$AAu?$AAg?$AAs?$AAs?$AA?2?$AAp?$AAb?$AAk?$AAk?$AA?2?$AAt@ 00000001800678c0     leveldb:builder.obj
 0002:0000c968       ??_C@_1CI@OJIKACPE@?$AAm?$AAe?$AAt?$AAa?$AA?9?$AA?$DO?$AAf?$AAi?$AAl?$AAe?$AA_?$AAs?$AAi?$AAz?$AAe@ 0000000180067968     leveldb:builder.obj
 0002:0000c990       ??_C@_0L@DNJAJHIC@?1?$CF06llu?4?$CFs@ 0000000180067990     leveldb:filename.obj
 0002:0000c9a0       ??_C@_1KK@EJPIFLDI@?$AAd?$AA?3?$AA?2?$AAy?$AAu?$AAg?$AAs?$AAs?$AA?2?$AAp?$AAb?$AAk?$AAk?$AA?2?$AAt@ 00000001800679a0     leveldb:filename.obj
 0002:0000ca50       ??_C@_1BG@HIOOOGME@?$AAn?$AAu?$AAm?$AAb?$AAe?$AAr?$AA?5?$AA?$DO?$AA?5?$AA0@ 0000000180067a50     leveldb:filename.obj
 0002:0000ca68       ??_C@_03MGHMBJCF@log@      0000000180067a68     leveldb:filename.obj
 0002:0000ca6c       ??_C@_03LHFOACIB@ldb@      0000000180067a6c     leveldb:filename.obj
 0002:0000ca70       ??_C@_03LKNFEFGK@sst@      0000000180067a70     leveldb:filename.obj
 0002:0000ca78       ??_C@_0BB@IIHLHEJO@?1MANIFEST?9?$CF06llu@ 0000000180067a78     leveldb:filename.obj
 0002:0000ca90       ??_C@_08JJMNAAPP@?1CURRENT@ 0000000180067a90     leveldb:filename.obj
 0002:0000ca9c       ??_C@_05IHOCLBML@?1LOCK@   0000000180067a9c     leveldb:filename.obj
 0002:0000caa4       ??_C@_05LFMHCBHD@dbtmp@    0000000180067aa4     leveldb:filename.obj
 0002:0000caac       ??_C@_04GPHAEEIN@?1LOG@    0000000180067aac     leveldb:filename.obj
 0002:0000cab8       ??_C@_08MHHKKEBC@?1LOG?4old@ 0000000180067ab8     leveldb:filename.obj
 0002:0000cac8       ??_C@_07EHKOIGEK@CURRENT@  0000000180067ac8     leveldb:filename.obj
 0002:0000cad0       ??_C@_04GPIFAJG@LOCK@      0000000180067ad0     leveldb:filename.obj
 0002:0000cad8       ??_C@_03MLIHNEFJ@LOG@      0000000180067ad8     leveldb:filename.obj
 0002:0000cae0       ??_C@_07BJBJCCKH@LOG?4old@ 0000000180067ae0     leveldb:filename.obj
 0002:0000cae8       ??_C@_09IIGJKOCP@MANIFEST?9@ 0000000180067ae8     leveldb:filename.obj
 0002:0000caf4       ??_C@_04FPOLKAEB@?4log@    0000000180067af4     leveldb:filename.obj
 0002:0000cafc       ??_C@_04CDECPMAO@?4sst@    0000000180067afc     leveldb:filename.obj
 0002:0000cb04       ??_C@_04COMJLLOF@?4ldb@    0000000180067b04     leveldb:filename.obj
 0002:0000cb0c       ??_C@_06GOLBNGP@?4dbtmp@   0000000180067b0c     leveldb:filename.obj
 0002:0000cb20       ??_C@_1EG@OBCHJDD@?$AAc?$AAo?$AAn?$AAt?$AAe?$AAn?$AAt?$AAs?$AA?4?$AAs?$AAt?$AAa?$AAr?$AAt?$AAs@ 0000000180067b20     leveldb:filename.obj
 0002:0000cb68       ??_C@_01EEMJAFIK@?6@       0000000180067b68     leveldb:filename.obj
 0002:0000cb70       ??_C@_0BC@NCHHPNFC@NewAppendableFile@ 0000000180067b70     leveldb:env.obj
 0002:0000cb88       ??_7Env@leveldb@@6B@       0000000180067b88     leveldb:env.obj
 0002:0000cc30       ??_C@_1LO@PKFEEJCN@?$AAd?$AA?3?$AA?2?$AAy?$AAu?$AAg?$AAs?$AAs?$AA?2?$AAp?$AAb?$AAk?$AAk?$AA?2?$AAt@ 0000000180067c30     leveldb:merger.obj
 0002:0000ccf0       ??_C@_1M@IDPMFHAK@?$AAi?$AAt?$AAe?$AAr?$AA_@ 0000000180067cf0     leveldb:merger.obj
 0002:0000cd00       ??_C@_1KM@INKKCNE@?$AAd?$AA?3?$AA?2?$AAy?$AAu?$AAg?$AAs?$AAs?$AA?2?$AAp?$AAb?$AAk?$AAk?$AA?2?$AAt@ 0000000180067d00     leveldb:merger.obj
 0002:0000ce00       ??_C@_1BM@KMFKCCNG@?$AA?$CB?$AAr?$AAe?$AAp?$AA_?$AA?4?$AAe?$AAm?$AAp?$AAt?$AAy?$AA?$CI?$AA?$CJ@ 0000000180067e00     leveldb:version_set.obj
 0002:0000ce20       ??_C@_1LA@INKJNDNL@?$AAd?$AA?3?$AA?2?$AAy?$AAu?$AAg?$AAs?$AAs?$AA?2?$AAp?$AAb?$AAk?$AAk?$AA?2?$AAt@ 0000000180067e20     leveldb:version_set.obj
 0002:0000ced0       ??_C@_1BI@CNGMBHMD@?$AAf?$AA?9?$AA?$DO?$AAr?$AAe?$AAf?$AAs?$AA?5?$AA?$DO?$AA?5?$AA0@ 0000000180067ed0     leveldb:version_set.obj
 0002:0000cee8       ??_C@_0CJ@IEJCNHMD@FileReader?5invoked?5with?5unexpec@ 0000000180067ee8     leveldb:version_set.obj
 0002:0000cf18       ??_C@_0BD@CBCIGOLN@corrupted?5key?5for?5@ 0000000180067f18     leveldb:version_set.obj
 0002:0000cf30       ??_C@_1EA@FLNPCEIK@?$AAt?$AAh?$AAi?$AAs?$AA?5?$AA?$CB?$AA?$DN?$AA?5?$AA?$CG?$AAv?$AAs?$AAe?$AAt?$AA_?$AA?9@ 0000000180067f30     leveldb:version_set.obj
 0002:0000cf70       ??_C@_1BG@MHFAOFKA@?$AAr?$AAe?$AAf?$AAs?$AA_?$AA?5?$AA?$DO?$AA?$DN?$AA?5?$AA1@ 0000000180067f70     leveldb:version_set.obj
 0002:0000cf88       ??_C@_1DG@MMMOKGNK@?$AAl?$AAe?$AAv?$AAe?$AAl?$AA?5?$AA?$DM?$AA?5?$AAc?$AAo?$AAn?$AAf?$AAi?$AAg?$AA?3@ 0000000180067f88     leveldb:version_set.obj
 0002:0000cfc0       ??_C@_0L@FDBHLPMB@?9?9?9?5level?5@ 0000000180067fc0     leveldb:version_set.obj
 0002:0000cfcc       ??_C@_05OIOCPKAF@?5?9?9?9?6@ 0000000180067fcc     leveldb:version_set.obj
 0002:0000cfd4       ??_C@_01OHGJGJJP@?$FL@     0000000180067fd4     leveldb:version_set.obj
 0002:0000cfd8       ??_C@_04BPKGLAKD@?5?4?4?5@ 0000000180067fd8     leveldb:version_set.obj
 0002:0000cfe0       ??_C@_02JODFHDIE@?$FN?6@   0000000180067fe0     leveldb:version_set.obj
 0002:0000cfe8       ??_C@_0CM@FHNAJAEB@overlapping?5ranges?5in?5same?5leve@ 0000000180067fe8     leveldb:version_set.obj
 0002:0000d020       ??_C@_1JE@HCNLKCGH@?$AAv?$AAs?$AAe?$AAt?$AA_?$AA?9?$AA?$DO?$AAi?$AAc?$AAm?$AAp?$AA_?$AA?4?$AAC?$AAo@ 0000000180068020     leveldb:version_set.obj
 0002:0000d0c0       ??_C@_1FE@GBNPOGE@?$AAd?$AAu?$AAm?$AAm?$AAy?$AA_?$AAv?$AAe?$AAr?$AAs?$AAi?$AAo?$AAn?$AAs?$AA_@ 00000001800680c0     leveldb:version_set.obj
 0002:0000d118       ??_C@_1BM@NFJIGFM@?$AAv?$AA?9?$AA?$DO?$AAr?$AAe?$AAf?$AAs?$AA_?$AA?5?$AA?$DN?$AA?$DN?$AA?5?$AA0@ 0000000180068118     leveldb:version_set.obj
 0002:0000d138       ??_C@_1BM@JJKEPPON@?$AAv?$AA?5?$AA?$CB?$AA?$DN?$AA?5?$AAc?$AAu?$AAr?$AAr?$AAe?$AAn?$AAt?$AA_@ 0000000180068138     leveldb:version_set.obj
 0002:0000d160       ??_C@_1EC@IADDIGKK@?$AAe?$AAd?$AAi?$AAt?$AA?9?$AA?$DO?$AAl?$AAo?$AAg?$AA_?$AAn?$AAu?$AAm?$AAb?$AAe@ 0000000180068160     leveldb:version_set.obj
 0002:0000d1b0       ??_C@_1EM@MPOGPGGG@?$AAe?$AAd?$AAi?$AAt?$AA?9?$AA?$DO?$AAl?$AAo?$AAg?$AA_?$AAn?$AAu?$AAm?$AAb?$AAe@ 00000001800681b0     leveldb:version_set.obj
 0002:0000d200       ??_C@_1DC@PINEBDGE@?$AAd?$AAe?$AAs?$AAc?$AAr?$AAi?$AAp?$AAt?$AAo?$AAr?$AA_?$AAf?$AAi?$AAl?$AAe@ 0000000180068200     leveldb:version_set.obj
 0002:0000d238       ??_C@_0BE@DKHKMIK@MANIFEST?5write?3?5?$CFs?6@ 0000000180068238     leveldb:version_set.obj
 0002:0000d250       ??_C@_0CH@CCOOCHFI@CURRENT?5file?5does?5not?5end?5with?5@ 0000000180068250     leveldb:version_set.obj
 0002:0000d278       ??_C@_0CF@KGCIEFG@?5does?5not?5match?5existing?5compar@ 0000000180068278     leveldb:version_set.obj
 0002:0000d2a0       ??_C@_0CF@COGGNJLO@no?5meta?9nextfile?5entry?5in?5descr@ 00000001800682a0     leveldb:version_set.obj
 0002:0000d2c8       ??_C@_0CG@IGKKJHJ@no?5meta?9lognumber?5entry?5in?5desc@ 00000001800682c8     leveldb:version_set.obj
 0002:0000d2f0       ??_C@_0CM@EPLOMKKC@no?5last?9sequence?9number?5entry?5i@ 00000001800682f0     leveldb:version_set.obj
 0002:0000d320       ??_C@_1DA@NCENOOPN@?$AAd?$AAe?$AAs?$AAc?$AAr?$AAi?$AAp?$AAt?$AAo?$AAr?$AA_?$AAl?$AAo?$AAg?$AA_@ 0000000180068320     leveldb:version_set.obj
 0002:0000d350       ??_C@_0BE@NNLEOOHC@Reuse?5MANIFEST?3?5?$CFs?6@ 0000000180068350     leveldb:version_set.obj
 0002:0000d368       ??_C@_0BF@JPIBOOOD@Reusing?5MANIFEST?5?$CFs?6@ 0000000180068368     leveldb:version_set.obj
 0002:0000d380       ??_C@_0BO@IEHPFKHC@files?$FL?5?$CFd?5?$CFd?5?$CFd?5?$CFd?5?$CFd?5?$CFd?5?$CFd?5?$FN@ 0000000180068380     leveldb:version_set.obj
 0002:0000d3a0       ??_C@_1CA@JINEDNOH@?$AA?$CB?$AAi?$AAn?$AAp?$AAu?$AAt?$AAs?$AA?4?$AAe?$AAm?$AAp?$AAt?$AAy?$AA?$CI?$AA?$CJ@ 00000001800683a0     leveldb:version_set.obj
 0002:0000d3c0       ??_C@_1BK@PFCADICL@?$AAn?$AAu?$AAm?$AA?5?$AA?$DM?$AA?$DN?$AA?5?$AAs?$AAp?$AAa?$AAc?$AAe@ 00000001800683c0     leveldb:version_set.obj
 0002:0000d3e0       ??_C@_1DK@BFAOJEHK@?$AAl?$AAe?$AAv?$AAe?$AAl?$AA?$CL?$AA1?$AA?5?$AA?$DM?$AA?5?$AAc?$AAo?$AAn?$AAf?$AAi@ 00000001800683e0     leveldb:version_set.obj
 0002:0000d420       ??_C@_1CO@OHHPEOEH@?$AA?$CB?$AAc?$AA?9?$AA?$DO?$AAi?$AAn?$AAp?$AAu?$AAt?$AAs?$AA_?$AA?$FL?$AA0?$AA?$FN?$AA?4@ 0000000180068420     leveldb:version_set.obj
 0002:0000d450       ??_C@_0DN@MPCOPHAH@Expanding?$EA?$CFd?5?$CFd?$CL?$CFd?5?$CI?$CFld?$CL?$CFld?5byt@ 0000000180068450     leveldb:version_set.obj
 0002:0000d490       ??_7LevelFileNumIterator@Version@leveldb@@6B@ 0000000180068490     leveldb:version_set.obj
 0002:0000d4f0       ??_C@_1LA@MIALCLOK@?$AAd?$AA?3?$AA?2?$AAy?$AAu?$AAg?$AAs?$AAs?$AA?2?$AAp?$AAb?$AAk?$AAk?$AA?2?$AAt@ 00000001800684f0     leveldb:table_cache.obj
 0002:0000d5a0       ??_C@_1BM@KCLNGDCP@?$AAt?$AAa?$AAb?$AAl?$AAe?$AA?5?$AA?$DN?$AA?$DN?$AA?5?$AAN?$AAU?$AAL?$AAL@ 00000001800685a0     leveldb:table_cache.obj
 0002:0000d5c0       ??_C@_0BA@JKPGFGGN@comparator?5name@ 00000001800685c0     leveldb:version_edit.obj
 0002:0000d5d0       ??_C@_0L@MNAKOCL@log?5number@ 00000001800685d0     leveldb:version_edit.obj
 0002:0000d5e0       ??_C@_0BE@OIMELLME@previous?5log?5number@ 00000001800685e0     leveldb:version_edit.obj
 0002:0000d5f8       ??_C@_0BB@CFPAIGNM@next?5file?5number@ 00000001800685f8     leveldb:version_edit.obj
 0002:0000d610       ??_C@_0BF@IEBCCJCO@last?5sequence?5number@ 0000000180068610     leveldb:version_edit.obj
 0002:0000d628       ??_C@_0BD@GHIHLOIC@compaction?5pointer@ 0000000180068628     leveldb:version_edit.obj
 0002:0000d640       ??_C@_0N@KHDKBPGC@deleted?5file@ 0000000180068640     leveldb:version_edit.obj
 0002:0000d650       ??_C@_0P@IFJKGILN@new?9file?5entry@ 0000000180068650     leveldb:version_edit.obj
 0002:0000d660       ??_C@_0M@NDAIKBNL@unknown?5tag@ 0000000180068660     leveldb:version_edit.obj
 0002:0000d670       ??_C@_0M@MPAGAHDJ@invalid?5tag@ 0000000180068670     leveldb:version_edit.obj
 0002:0000d680       ??_C@_0M@OFNLEEDF@VersionEdit@ 0000000180068680     leveldb:version_edit.obj
 0002:0000d68c       ??_C@_01CLKCMJKC@?5@       000000018006868c     leveldb:version_edit.obj
 0002:0000d690       ??_C@_0BO@FGDDGPEJ@partial?5record?5without?5end?$CI1?$CJ@ 0000000180068690     leveldb:log_reader.obj
 0002:0000d6b0       ??_C@_0BO@FEHFNBBA@partial?5record?5without?5end?$CI2?$CJ@ 00000001800686b0     leveldb:log_reader.obj
 0002:0000d6d0       ??_C@_0CG@BJOOPHDE@missing?5start?5of?5fragmented?5rec@ 00000001800686d0     leveldb:log_reader.obj
 0002:0000d6f8       ??_C@_0CG@BLKIEJGN@missing?5start?5of?5fragmented?5rec@ 00000001800686f8     leveldb:log_reader.obj
 0002:0000d720       ??_C@_0BK@HJELPHBF@error?5in?5middle?5of?5record@ 0000000180068720     leveldb:log_reader.obj
 0002:0000d740       ??_C@_0BH@MDNCILIC@unknown?5record?5type?5?$CFu@ 0000000180068740     leveldb:log_reader.obj
 0002:0000d758       ??_C@_0BC@PHFEKIH@bad?5record?5length@ 0000000180068758     leveldb:log_reader.obj
 0002:0000d770       ??_C@_0BC@BAPADOCP@checksum?5mismatch@ 0000000180068770     leveldb:log_reader.obj
 0002:0000d788       ??_C@_1BM@CNNDPEKL@?$AAl?$AAe?$AAf?$AAt?$AAo?$AAv?$AAe?$AAr?$AA?5?$AA?$DO?$AA?$DN?$AA?5?$AA0@ 0000000180068788     leveldb:log_writer.obj
 0002:0000d7b0       ??_C@_1KO@OEEELDFC@?$AAd?$AA?3?$AA?2?$AAy?$AAu?$AAg?$AAs?$AAs?$AA?2?$AAp?$AAb?$AAk?$AAk?$AA?2?$AAt@ 00000001800687b0     leveldb:log_writer.obj
 0002:0000d860       ??_C@_1FM@IPGLDLLO@?$AAk?$AAB?$AAl?$AAo?$AAc?$AAk?$AAS?$AAi?$AAz?$AAe?$AA?5?$AA?9?$AA?5?$AAb?$AAl@ 0000000180068860     leveldb:log_writer.obj
 0002:0000d8bc       ??_C@_06GCJDCAIB@?$AA?$AA?$AA?$AA?$AA?$AA@ 00000001800688bc     leveldb:log_writer.obj
 0002:0000d8d0       ??_C@_1FM@DLHCNMNA@?$AAb?$AAl?$AAo?$AAc?$AAk?$AA_?$AAo?$AAf?$AAf?$AAs?$AAe?$AAt?$AA_?$AA?5?$AA?$CL@ 00000001800688d0     leveldb:log_writer.obj
 0002:0000d930       ??_C@_1BI@FDOLHBGL@?$AAn?$AA?5?$AA?$DM?$AA?$DN?$AA?5?$AA0?$AAx?$AAf?$AAf?$AAf?$AAf@ 0000000180068930     leveldb:log_writer.obj
 0002:0000d950       ??_C@_1LA@EAPGGGKN@?$AAd?$AA?3?$AA?2?$AAy?$AAu?$AAg?$AAs?$AAs?$AA?2?$AAp?$AAb?$AAk?$AAk?$AA?2?$AAt@ 0000000180068950     leveldb:iterator.obj
 0002:0000da00       ??_C@_1M@HLGKFCJM@?$AAf?$AAa?$AAl?$AAs?$AAe@ 0000000180068a00     leveldb:iterator.obj
 0002:0000da10       ??_7Iterator@leveldb@@6B@  0000000180068a10     leveldb:iterator.obj
 0002:0000dab0       ??_C@_1O@ILGKFDHK@?$AAv?$AAa?$AAl?$AAi?$AAd?$AA_@ 0000000180068ab0     leveldb:db_iter.obj
 0002:0000dac0       ??_C@_1KI@LCLNDBLE@?$AAd?$AA?3?$AA?2?$AAy?$AAu?$AAg?$AAs?$AAs?$AA?2?$AAp?$AAb?$AAk?$AAk?$AA?2?$AAt@ 0000000180068ac0     leveldb:db_iter.obj
 0002:0000db68       ??_C@_1BO@CNPCPKOP@?$AAi?$AAt?$AAe?$AAr?$AA_?$AA?9?$AA?$DO?$AAV?$AAa?$AAl?$AAi?$AAd?$AA?$CI?$AA?$CJ@ 0000000180068b68     leveldb:db_iter.obj
 0002:0000db88       ??_C@_0CB@GFNBEPN@corrupted?5internal?5key?5in?5DBIte@ 0000000180068b88     leveldb:db_iter.obj
 0002:0000dbb0       ??_C@_1CO@NJNJHGA@?$AAd?$AAi?$AAr?$AAe?$AAc?$AAt?$AAi?$AAo?$AAn?$AA_?$AA?5?$AA?$DN?$AA?$DN?$AA?5?$AAk@ 0000000180068bb0     leveldb:db_iter.obj
 0002:0000dbe0       ??_C@_1CO@EMDFNHEA@?$AAd?$AAi?$AAr?$AAe?$AAc?$AAt?$AAi?$AAo?$AAn?$AA_?$AA?5?$AA?$DN?$AA?$DN?$AA?5?$AAk@ 0000000180068be0     leveldb:db_iter.obj
 0002:0000dc60       ??_C@_1BK@JKHHIBHD@?$AAr?$AAe?$AAp?$AA_?$AA?9?$AA?$DO?$AAc?$AAl?$AAo?$AAs?$AAe?$AAd@ 0000000180068c60     leveldb:table_builder.obj
 0002:0000dc80       ??_C@_1LK@KNPAFLDP@?$AAd?$AA?3?$AA?2?$AAy?$AAu?$AAg?$AAs?$AAs?$AA?2?$AAp?$AAb?$AAk?$AAk?$AA?2?$AAt@ 0000000180068c80     leveldb:table_builder.obj
 0002:0000dd40       ??_C@_1BG@IBLAONHD@?$AA?$CB?$AAr?$AA?9?$AA?$DO?$AAc?$AAl?$AAo?$AAs?$AAe?$AAd@ 0000000180068d40     leveldb:table_builder.obj
 0002:0000dd58       ??_C@_1CM@CLNKMFCM@?$AAr?$AA?9?$AA?$DO?$AAd?$AAa?$AAt?$AAa?$AA_?$AAb?$AAl?$AAo?$AAc?$AAk?$AA?4?$AAe@ 0000000180068d58     leveldb:table_builder.obj
 0002:0000dd90       ??_C@_1HI@DFHNJDEL@?$AAr?$AA?9?$AA?$DO?$AAo?$AAp?$AAt?$AAi?$AAo?$AAn?$AAs?$AA?4?$AAc?$AAo?$AAm?$AAp@ 0000000180068d90     leveldb:table_builder.obj
 0002:0000de08       ??_C@_19IHNNBDHG@?$AAo?$AAk?$AA?$CI?$AA?$CJ@ 0000000180068e08     leveldb:table_builder.obj
 0002:0000de18       ??_C@_1DA@OEOPKHIF@?$AA?$CB?$AAr?$AA?9?$AA?$DO?$AAp?$AAe?$AAn?$AAd?$AAi?$AAn?$AAg?$AA_?$AAi?$AAn?$AAd@ 0000000180068e18     leveldb:table_builder.obj
 0002:0000de48       ??_C@_07LBJJLLJB@filter?4@ 0000000180068e48     leveldb:table_builder.obj
 0002:0000de50       ??_C@_06FIJELGDL@?2x?$CF02x@ 0000000180068e50     leveldb:logging.obj
 0002:0000de60       ??_C@_1LC@DINJDJOB@?$AAd?$AA?3?$AA?2?$AAy?$AAu?$AAg?$AAs?$AAs?$AA?2?$AAp?$AAb?$AAk?$AAk?$AA?2?$AAt@ 0000000180068e60     leveldb:comparator.obj
 0002:0000df18       ??_C@_0BL@EMJHPPE@leveldb?4BytewiseComparator@ 0000000180068f18     leveldb:comparator.obj
 0002:0000df38       ??_C@_1DG@FGMFBCBA@?$AAC?$AAo?$AAm?$AAp?$AAa?$AAr?$AAe?$AA?$CI?$AA?$CK?$AAs?$AAt?$AAa?$AAr?$AAt?$AA?0@ 0000000180068f38     leveldb:comparator.obj
 0002:0000df98       ??_C@_0BF@OJNGPDJN@Append?3?5cannot?5write@ 0000000180068f98     leveldb:env_win.obj
 0002:0000dfb0       ??_C@_0BL@MCEMBBLK@Destroying?5Env?3?3Default?$CI?$CJ?6@ 0000000180068fb0     leveldb:env_win.obj
 0002:0000dfcc       ??_C@_13FPGAJAPJ@?$AA?2@   0000000180068fcc     leveldb:env_win.obj
 0002:0000dfd0       ??_C@_13BBDEGPLJ@?$AA?$CK@ 0000000180068fd0     leveldb:env_win.obj
 0002:0000dfd8       ??_C@_0BC@JFFNKLNA@Invalid?5file?5name@ 0000000180068fd8     leveldb:env_win.obj
 0002:0000dff0       ??_C@_0N@DCPDIALN@GetFileSize?5@ 0000000180068ff0     leveldb:env_win.obj
 0002:0000e000       ??_C@_0M@FNDMMKMH@DeleteFile?5@ 0000000180069000     leveldb:env_win.obj
 0002:0000e010       ??_C@_09CLLHBIAK@LockFile?5@ 0000000180069010     leveldb:env_win.obj
 0002:0000e020       ??_C@_0M@IEPECJOK@RenameFile?5@ 0000000180069020     leveldb:env_win.obj
 0002:0000e030       ??_C@_0BJ@LBHFIONJ@Can?8t?5get?5test?5directory@ 0000000180069030     leveldb:env_win.obj
 0002:0000e050       ??_C@_0BL@OKNINABO@Could?5not?5close?5lock?5file?4@ 0000000180069050     leveldb:env_win.obj
 0002:0000e06c       ??_C@_02BKFDOEMK@wt@       000000018006906c     leveldb:env_win.obj
 0002:0000e118       ??_7WinSequentialFile@leveldb@@6B@ 0000000180069118     leveldb:env_win.obj
 0002:0000e130       ??_7WinWritableFile@leveldb@@6B@ 0000000180069130     leveldb:env_win.obj
 0002:0000e158       ??_7WinLogger@leveldb@@6B@ 0000000180069158     leveldb:env_win.obj
 0002:0000e168       ??_7WinRandomAccessFile@leveldb@@6B@ 0000000180069168     leveldb:env_win.obj
 0002:0000e180       ??_C@_1KI@JOEGNHLL@?$AAd?$AA?3?$AA?2?$AAy?$AAu?$AAg?$AAs?$AAs?$AA?2?$AAp?$AAb?$AAk?$AAk?$AA?2?$AAt@ 0000000180069180     leveldb:arena.obj
 0002:0000e230       ??_C@_1GO@HAPHDGIH@?$AA?$CI?$AAr?$AAe?$AAi?$AAn?$AAt?$AAe?$AAr?$AAp?$AAr?$AAe?$AAt?$AA_?$AAc?$AAa@ 0000000180069230     leveldb:arena.obj
 0002:0000e2a0       ??_C@_0CD@MFPEIJCL@file?5is?5too?5short?5to?5be?5an?5ssta@ 00000001800692a0     leveldb:table.obj
 0002:0000e2d0       ??_C@_1ME@FLPEIDD@?$AAd?$AA?3?$AA?2?$AAy?$AAu?$AAg?$AAs?$AAs?$AA?2?$AAp?$AAb?$AAk?$AAk?$AA?2?$AAt@ 00000001800692d0     leveldb:two_level_iterator.obj
 0002:0000e3f0       ??_C@_1KM@PEACGNIA@?$AAd?$AA?3?$AA?2?$AAy?$AAu?$AAg?$AAs?$AAs?$AA?2?$AAp?$AAb?$AAk?$AAk?$AA?2?$AAt@ 00000001800693f0     leveldb:format.obj
 0002:0000e4a0       ??_C@_1EG@ILPAOCBE@?$AAs?$AAi?$AAz?$AAe?$AA_?$AA?5?$AA?$CB?$AA?$DN?$AA?5?$AA?$HO?$AAs?$AAt?$AAa?$AAt?$AAi@ 00000001800694a0     leveldb:format.obj
 0002:0000e4f0       ??_C@_1EK@NLBLPNKC@?$AAo?$AAf?$AAf?$AAs?$AAe?$AAt?$AA_?$AA?5?$AA?$CB?$AA?$DN?$AA?5?$AA?$HO?$AAs?$AAt?$AAa@ 00000001800694f0     leveldb:format.obj
 0002:0000e540       ??_C@_1FM@OOADEKPA@?$AAd?$AAs?$AAt?$AA?9?$AA?$DO?$AAs?$AAi?$AAz?$AAe?$AA?$CI?$AA?$CJ?$AA?5?$AA?$DN?$AA?$DN?$AA?5@ 0000000180069540     leveldb:format.obj
 0002:0000e5a0       ??_C@_0BB@COHNLJFI@bad?5block?5handle@ 00000001800695a0     leveldb:format.obj
 0002:0000e5b8       ??_C@_0BF@ILLMDOOF@truncated?5block?5read@ 00000001800695b8     leveldb:format.obj
 0002:0000e5d0       ??_C@_0CC@LKCDIABI@not?5an?5sstable?5?$CIbad?5magic?5numbe@ 00000001800695d0     leveldb:format.obj
 0002:0000e5f8       ??_C@_0CE@CAOEIAMG@corrupted?5compressed?5block?5cont@ 00000001800695f8     leveldb:format.obj
 0002:0000e620       ??_C@_0BI@GPFPFKGA@block?5checksum?5mismatch@ 0000000180069620     leveldb:format.obj
 0002:0000e638       ??_C@_0P@MDODGMKN@bad?5block?5type@ 0000000180069638     leveldb:format.obj
 0002:0000e650       ??_C@_1LK@KGMLBFGD@?$AAd?$AA?3?$AA?2?$AAy?$AAu?$AAg?$AAs?$AAs?$AA?2?$AAp?$AAb?$AAk?$AAk?$AA?2?$AAt@ 0000000180069650     leveldb:block_builder.obj
 0002:0000e710       ??_C@_1BG@EOCCOFML@?$AA?$CB?$AAf?$AAi?$AAn?$AAi?$AAs?$AAh?$AAe?$AAd?$AA_@ 0000000180069710     leveldb:block_builder.obj
 0002:0000e730       ??_C@_1EK@CDMOINIK@?$AAo?$AAp?$AAt?$AAi?$AAo?$AAn?$AAs?$AA?9?$AA?$DO?$AAb?$AAl?$AAo?$AAc?$AAk?$AA_@ 0000000180069730     leveldb:block_builder.obj
 0002:0000e780       ??_C@_1JE@IDLNCLOC@?$AAb?$AAu?$AAf?$AAf?$AAe?$AAr?$AA_?$AA?4?$AAe?$AAm?$AAp?$AAt?$AAy?$AA?$CI?$AA?$CJ@ 0000000180069780     leveldb:block_builder.obj
 0002:0000e820       ??_C@_1FK@EBPNECBO@?$AAc?$AAo?$AAu?$AAn?$AAt?$AAe?$AAr?$AA_?$AA?5?$AA?$DM?$AA?$DN?$AA?5?$AAo?$AAp?$AAt@ 0000000180069820     leveldb:block_builder.obj
 0002:0000e880       ??_C@_1DA@HKBPACGM@?$AAS?$AAl?$AAi?$AAc?$AAe?$AA?$CI?$AAl?$AAa?$AAs?$AAt?$AA_?$AAk?$AAe?$AAy?$AA_@ 0000000180069880     leveldb:block_builder.obj
 0002:0000e8b0       ??_C@_1EO@PGEBFJEE@?$AAf?$AAi?$AAl?$AAt?$AAe?$AAr?$AA_?$AAi?$AAn?$AAd?$AAe?$AAx?$AA?5?$AA?$DO?$AA?$DN@ 00000001800698b0     leveldb:filter_block.obj
 0002:0000e900       ??_C@_1LI@IBGHABMG@?$AAd?$AA?3?$AA?2?$AAy?$AAu?$AAg?$AAs?$AAs?$AA?2?$AAp?$AAb?$AAk?$AAk?$AA?2?$AAt@ 0000000180069900     leveldb:filter_block.obj
 0002:0000e9b8       ??_C@_0CJ@PLBDDMCE@?$CF04d?1?$CF02d?1?$CF02d?9?$CF02d?3?$CF02d?3?$CF02d?4?$CF@ 00000001800699b8     leveldb:win_logger.obj
 0002:0000e9e8       ??_C@_1BG@HMMENFBB@?$AAp?$AA?5?$AA?$DM?$AA?$DN?$AA?5?$AAl?$AAi?$AAm?$AAi?$AAt@ 00000001800699e8     leveldb:win_logger.obj
 0002:0000ea00       ??_C@_1KE@IOAJNOHE@?$AAd?$AA?3?$AA?2?$AAy?$AAu?$AAg?$AAs?$AAs?$AA?2?$AAp?$AAb?$AAk?$AAk?$AA?2?$AAt@ 0000000180069a00     leveldb:win_logger.obj
 0002:0000eab0       ??_C@_1KK@DKLJFMGM@?$AAd?$AA?3?$AA?2?$AAy?$AAu?$AAg?$AAs?$AAs?$AA?2?$AAp?$AAb?$AAk?$AAk?$AA?2?$AAt@ 0000000180069ab0     leveldb:block.obj
 0002:0000eb60       ??_C@_1CM@KILDAMOA@?$AAi?$AAn?$AAd?$AAe?$AAx?$AA?5?$AA?$DM?$AA?5?$AAn?$AAu?$AAm?$AA_?$AAr?$AAe?$AAs@ 0000000180069b60     leveldb:block.obj
 0002:0000eb90       ??_C@_1DE@GPJNGOEK@?$AAs?$AAi?$AAz?$AAe?$AA_?$AA?5?$AA?$DO?$AA?$DN?$AA?5?$AAs?$AAi?$AAz?$AAe?$AAo?$AAf@ 0000000180069b90     leveldb:block.obj
 0002:0000ebc8       ??_C@_0BD@CHEKDAPJ@bad?5entry?5in?5block@ 0000000180069bc8     leveldb:block.obj
 0002:0000ebe0       ??_C@_1CE@HBCAJAAP@?$AAn?$AAu?$AAm?$AA_?$AAr?$AAe?$AAs?$AAt?$AAa?$AAr?$AAt?$AAs?$AA_?$AA?5?$AA?$DO@ 0000000180069be0     leveldb:block.obj
 0002:0000ec08       ??_C@_0BD@NJCNHDLE@bad?5block?5contents@ 0000000180069c08     leveldb:block.obj
 0002:0000ec20       ??_7Iter@Block@leveldb@@6B@ 0000000180069c20     leveldb:block.obj
 0002:0000ec70       ??_7UncheckedByteArraySink@snappy@@6B@ 0000000180069c70     snappy:snappy.obj
 0002:0000ec98       ??_7Sink@snappy@@6B@       0000000180069c98     snappy:snappy.obj
 0002:0000ecc0       ??_7ByteArraySource@snappy@@6B@ 0000000180069cc0     snappy:snappy.obj
 0002:0000ece0       ??_C@_1BG@GNOBELO@?$AAv?$AAa?$AAl?$AAu?$AAe?$AA?5?$AA?$DN?$AA?$DN?$AA?5?$AA1@ 0000000180069ce0     snappy:snappy.obj
 0002:0000ed00       ??_C@_1LK@GBEANFAM@?$AAd?$AA?3?$AA?2?$AAy?$AAu?$AAg?$AAs?$AAs?$AA?2?$AAp?$AAb?$AAk?$AAk?$AA?2?$AAt@ 0000000180069d00     snappy:snappy.obj
 0002:0000edc0       ??_C@_1BO@HOKEIBLG@?$AAs?$AA2?$AA_?$AAl?$AAi?$AAm?$AAi?$AAt?$AA?5?$AA?$DO?$AA?$DN?$AA?5?$AAs?$AA2@ 0000000180069dc0     snappy:snappy.obj
 0002:0000ede0       ??_C@_1KO@BCIMMENK@?$AAd?$AA?3?$AA?2?$AAy?$AAu?$AAg?$AAs?$AAs?$AA?2?$AAp?$AAb?$AAk?$AAk?$AA?2?$AAt@ 0000000180069de0     snappy:snappy.obj
 0002:0000ee90       ??_C@_1BC@BCGFIDBL@?$AAs?$AAr?$AAc?$AA?5?$AA?$DM?$AA?5?$AAo?$AAp@ 0000000180069e90     snappy:snappy.obj
 0002:0000eeb0       ??_C@_1JO@EGLFBMCH@?$AAd?$AA?3?$AA?2?$AAy?$AAu?$AAg?$AAs?$AAs?$AA?2?$AAp?$AAb?$AAk?$AAk?$AA?2?$AAt@ 0000000180069eb0     snappy:snappy.obj
 0002:0000ef50       ??_C@_1CM@BCIBAAPP@?$AAo?$AAp?$AA_?$AAl?$AAi?$AAm?$AAi?$AAt?$AA?5?$AA?$DM?$AA?$DN?$AA?5?$AAb?$AAu?$AAf@ 0000000180069f50     snappy:snappy.obj
 0002:0000ef80       ??_C@_1BG@IHIONFJH@?$AAc?$AAo?$AAu?$AAn?$AAt?$AA?5?$AA?$DO?$AA?$DN?$AA?5?$AA1@ 0000000180069f80     snappy:snappy.obj
 0002:0000ef98       ??_C@_1BA@GMKHALLP@?$AAl?$AAe?$AAn?$AA?5?$AA?$DO?$AA?5?$AA0@ 0000000180069f98     snappy:snappy.obj
 0002:0000efa8       ??_C@_1BE@DLMJINK@?$AAl?$AAe?$AAn?$AA?5?$AA?$DM?$AA?$DN?$AA?5?$AA6?$AA4@ 0000000180069fa8     snappy:snappy.obj
 0002:0000efc0       ??_C@_1BG@LEKFPFJI@?$AAc?$AAo?$AAu?$AAn?$AAt?$AA?5?$AA?$DM?$AA?$DN?$AA?5?$AA4@ 0000000180069fc0     snappy:snappy.obj
 0002:0000efd8       ??_C@_1BO@PPEGDPPA@?$AAo?$AAf?$AAf?$AAs?$AAe?$AAt?$AA?5?$AA?$DM?$AA?5?$AA6?$AA5?$AA5?$AA3?$AA6@ 0000000180069fd8     snappy:snappy.obj
 0002:0000eff8       ??_C@_1BC@GPKOEOMP@?$AAl?$AAe?$AAn?$AA?5?$AA?$DO?$AA?$DN?$AA?5?$AA4@ 0000000180069ff8     snappy:snappy.obj
 0002:0000f010       ??_C@_1DO@IILEOCEN@?$AAl?$AAe?$AAn?$AA_?$AAl?$AAe?$AAs?$AAs?$AA_?$AAt?$AAh?$AAa?$AAn?$AA_?$AA1@ 000000018006a010     snappy:snappy.obj
 0002:0000f050       ??_C@_1DC@OPGIIANN@?$AAi?$AAn?$AAp?$AAu?$AAt?$AA_?$AAs?$AAi?$AAz?$AAe?$AA?5?$AA?$DM?$AA?$DN?$AA?5?$AAk@ 000000018006a050     snappy:snappy.obj
 0002:0000f090       ??_C@_1HA@CGBFNEOD@?$AAs?$AAt?$AAa?$AAt?$AAi?$AAc?$AA_?$AAc?$AAa?$AAs?$AAt?$AA?$DM?$AAi?$AAn?$AAt@ 000000018006a090     snappy:snappy.obj
 0002:0000f100       ??_C@_1EK@FEBNOKCP@?$AA?$CI?$AAt?$AAa?$AAb?$AAl?$AAe?$AA_?$AAs?$AAi?$AAz?$AAe?$AA?5?$AA?$CG?$AA?5?$AA?$CI@ 000000018006a100     snappy:snappy.obj
 0002:0000f150       ??_C@_1DA@JPFPEEHF@?$AAh?$AAa?$AAs?$AAh?$AA?5?$AA?$DN?$AA?$DN?$AA?5?$AAH?$AAa?$AAs?$AAh?$AA?$CI?$AAi?$AAp@ 000000018006a150     snappy:snappy.obj
 0002:0000f180       ??_C@_1BO@POBPHOCK@?$AAn?$AAe?$AAx?$AAt?$AA_?$AAe?$AAm?$AAi?$AAt?$AA?5?$AA?$DM?$AA?5?$AAi?$AAp@ 000000018006a180     snappy:snappy.obj
 0002:0000f1a0       ??_C@_1BO@NJGNGDBA@?$AAc?$AAa?$AAn?$AAd?$AAi?$AAd?$AAa?$AAt?$AAe?$AA?5?$AA?$DM?$AA?5?$AAi?$AAp@ 000000018006a1a0     snappy:snappy.obj
 0002:0000f1c0       ??_C@_1CK@LPFHJPBE@?$AAc?$AAa?$AAn?$AAd?$AAi?$AAd?$AAa?$AAt?$AAe?$AA?5?$AA?$DO?$AA?$DN?$AA?5?$AAb?$AAa@ 000000018006a1c0     snappy:snappy.obj
 0002:0000f1f0       ??_C@_1EM@HJJPEPBA@?$AA0?$AA?5?$AA?$DN?$AA?$DN?$AA?5?$AAm?$AAe?$AAm?$AAc?$AAm?$AAp?$AA?$CI?$AAb?$AAa?$AAs@ 000000018006a1f0     snappy:snappy.obj
 0002:0000f240       ??_C@_1DC@OIJJOGJB@?$AAn?$AAe?$AAx?$AAt?$AA_?$AAe?$AAm?$AAi?$AAt?$AA?5?$AA?$CL?$AA?5?$AA1?$AA6?$AA?5@ 000000018006a240     snappy:snappy.obj
 0002:0000f278       ??_C@_1BO@NMEHIMPL@?$AAi?$AAp?$AA?5?$AA?$DM?$AA?5?$AAi?$AAp?$AA_?$AAl?$AAi?$AAm?$AAi?$AAt?$AA_@ 000000018006a278     snappy:snappy.obj
 0002:0000f298       ??_C@_1BO@IALOIOFH@?$AAn?$AAb?$AAu?$AAf?$AA?5?$AA?$DN?$AA?$DN?$AA?5?$AAn?$AAe?$AAe?$AAd?$AAe?$AAd@ 000000018006a298     snappy:snappy.obj
 0002:0000f2b8       ??_C@_1DG@CJMIIFFC@?$AAn?$AAe?$AAe?$AAd?$AAe?$AAd?$AA?5?$AA?$DM?$AA?$DN?$AA?5?$AAs?$AAi?$AAz?$AAe?$AAo@ 000000018006a2b8     snappy:snappy.obj
 0002:0000f2f0       ??_C@_1DE@GIPLEENC@?$AAb?$AAy?$AAt?$AAe?$AAs?$AA_?$AAr?$AAe?$AAa?$AAd?$AA?5?$AA?$DN?$AA?$DN?$AA?5?$AAn@ 000000018006a2f0     snappy:snappy.obj
 0002:0000f328       ??_C@_1CG@MOFADOEH@?$AAf?$AAr?$AAa?$AAg?$AAm?$AAe?$AAn?$AAt?$AA_?$AAs?$AAi?$AAz?$AAe?$AA?5?$AA?$CB@ 000000018006a328     snappy:snappy.obj
 0002:0000f350       ??_C@_1BK@NIHCJJIO@?$AAo?$AAp?$AA_?$AA?5?$AA?$DO?$AA?$DN?$AA?5?$AAb?$AAa?$AAs?$AAe?$AA_@ 000000018006a350     snappy:snappy.obj
 0002:0000f370       ??_C@_1CI@LJPILCOO@?$AAl?$AAi?$AAt?$AAe?$AAr?$AAa?$AAl?$AA_?$AAl?$AAe?$AAn?$AAg?$AAt?$AAh?$AA?5@ 000000018006a370     snappy:snappy.obj
 0002:0000f668       __real@3eb0000000000000    000000018006a668     leveldb:db_impl.obj
 0002:0000f670       __real@3fd0000000000000    000000018006a670     leveldb:version_set.obj
 0002:0000f678       __real@3ff0000000000000    000000018006a678     leveldb:db_impl.obj
 0002:0000f680       __real@401b999999999999    000000018006a680     leveldb:bloom.obj
 0002:0000f688       __real@4024000000000000    000000018006a688     leveldb:version_set.obj
 0002:0000f690       __real@412e848000000000    000000018006a690     leveldb:db_impl.obj
 0002:0000f698       __real@4164000000000000    000000018006a698     leveldb:version_set.obj
 0002:0000f6a0       __real@43e0000000000000    000000018006a6a0     leveldb:bloom.obj
 0002:0000f6a8       __real@43f0000000000000    000000018006a6a8     leveldb:version_set.obj
 0002:0000f6b0       __real@bff0000000000000    000000018006a6b0     leveldb:version_set.obj
 0002:0000f6c0       __xmm@000000000000000f0000000000000000 000000018006a6c0     leveldb:db_iter.obj
 0002:00013020       _tls_used                  000000018006e020     LIBCMT:tlssup.obj
 0002:00013048       ??_R4exception@std@@6B@    000000018006e048     libcpmt:xthrow.obj
 0002:00013070       ??_R3exception@std@@8      000000018006e070     libcpmt:xthrow.obj
 0002:00013088       ??_R2exception@std@@8      000000018006e088     libcpmt:xthrow.obj
 0002:00013098       ??_R1A@?0A@EA@exception@std@@8 000000018006e098     libcpmt:xthrow.obj
 0002:000130c0       ??_R4bad_alloc@std@@6B@    000000018006e0c0     libcpmt:xthrow.obj
 0002:000130e8       ??_R3bad_alloc@std@@8      000000018006e0e8     libcpmt:xthrow.obj
 0002:00013100       ??_R2bad_alloc@std@@8      000000018006e100     libcpmt:xthrow.obj
 0002:00013118       ??_R1A@?0A@EA@bad_alloc@std@@8 000000018006e118     libcpmt:xthrow.obj
 0002:00013140       ??_R4logic_error@std@@6B@  000000018006e140     libcpmt:xthrow.obj
 0002:00013168       ??_R3logic_error@std@@8    000000018006e168     libcpmt:xthrow.obj
 0002:00013180       ??_R2logic_error@std@@8    000000018006e180     libcpmt:xthrow.obj
 0002:00013198       ??_R1A@?0A@EA@logic_error@std@@8 000000018006e198     libcpmt:xthrow.obj
 0002:000131c0       ??_R4length_error@std@@6B@ 000000018006e1c0     libcpmt:xthrow.obj
 0002:000131e8       ??_R3length_error@std@@8   000000018006e1e8     libcpmt:xthrow.obj
 0002:00013200       ??_R2length_error@std@@8   000000018006e200     libcpmt:xthrow.obj
 0002:00013220       ??_R1A@?0A@EA@length_error@std@@8 000000018006e220     libcpmt:xthrow.obj
 0002:00013248       ??_R4type_info@@6B@        000000018006e248     LIBCMT:std_type_info_static.obj
 0002:00013270       ??_R3type_info@@8          000000018006e270     LIBCMT:std_type_info_static.obj
 0002:00013288       ??_R2type_info@@8          000000018006e288     LIBCMT:std_type_info_static.obj
 0002:00013298       ??_R1A@?0A@EA@type_info@@8 000000018006e298     LIBCMT:std_type_info_static.obj
 0002:000132c0       ??_R4bad_array_new_length@std@@6B@ 000000018006e2c0     LIBCMT:throw_bad_alloc.obj
 0002:000132e8       ??_R3bad_array_new_length@std@@8 000000018006e2e8     LIBCMT:throw_bad_alloc.obj
 0002:00013300       ??_R2bad_array_new_length@std@@8 000000018006e300     LIBCMT:throw_bad_alloc.obj
 0002:00013320       ??_R1A@?0A@EA@bad_array_new_length@std@@8 000000018006e320     LIBCMT:throw_bad_alloc.obj
 0002:00013348       ??_R4bad_exception@std@@6B@ 000000018006e348     libvcruntime:frame.obj
 0002:00013370       ??_R3bad_exception@std@@8  000000018006e370     libvcruntime:frame.obj
 0002:00013388       ??_R2bad_exception@std@@8  000000018006e388     libvcruntime:frame.obj
 0002:000133a0       ??_R1A@?0A@EA@bad_exception@std@@8 000000018006e3a0     libvcruntime:frame.obj
 0002:00013810       __rtc_iaa                  000000018006e810     LIBCMT:initsect.obj
 0002:00013818       __rtc_izz                  000000018006e818     LIBCMT:initsect.obj
 0002:00013820       __rtc_taa                  000000018006e820     LIBCMT:initsect.obj
 0002:00013828       __rtc_tzz                  000000018006e828     LIBCMT:initsect.obj
 0002:00013830       _tls_start                 000000018006e830     LIBCMT:tlssup.obj
 0002:00013834       _Init_thread_epoch         000000018006e834     LIBCMT:thread_safe_statics.obj
 0002:00013838       _tls_end                   000000018006e838     LIBCMT:tlssup.obj
 0002:0001ffa0       _TI2?AVbad_alloc@std@@     000000018007afa0     libcpmt:xthrow.obj
 0002:0001ffc0       _CTA2?AVbad_alloc@std@@    000000018007afc0     libcpmt:xthrow.obj
 0002:0001ffd8       _CT??_R0?AVbad_alloc@std@@@8??0bad_alloc@std@@QEAA@AEBV01@@Z24 000000018007afd8     libcpmt:xthrow.obj
 0002:00020000       _CT??_R0?AVexception@std@@@8??0exception@std@@QEAA@AEBV01@@Z24 000000018007b000     libcpmt:xthrow.obj
 0002:00020028       _CT??_R0?AVlogic_error@std@@@8??0logic_error@std@@QEAA@AEBV01@@Z24 000000018007b028     libcpmt:xthrow.obj
 0002:00020050       _TI3?AVlength_error@std@@  000000018007b050     libcpmt:xthrow.obj
 0002:00020070       _CTA3?AVlength_error@std@@ 000000018007b070     libcpmt:xthrow.obj
 0002:00020090       _CT??_R0?AVlength_error@std@@@8??0length_error@std@@QEAA@AEBV01@@Z24 000000018007b090     libcpmt:xthrow.obj
 0002:000200b8       _TI3?AVbad_array_new_length@std@@ 000000018007b0b8     LIBCMT:throw_bad_alloc.obj
 0002:000200d8       _CTA3?AVbad_array_new_length@std@@ 000000018007b0d8     LIBCMT:throw_bad_alloc.obj
 0002:000200f8       _CT??_R0?AVbad_array_new_length@std@@@8??0bad_array_new_length@std@@QEAA@AEBV01@@Z24 000000018007b0f8     LIBCMT:throw_bad_alloc.obj
 0002:00020120       _TI2?AVbad_exception@std@@ 000000018007b120     libvcruntime:frame.obj
 0002:00020140       _CTA2?AVbad_exception@std@@ 000000018007b140     libvcruntime:frame.obj
 0002:00020158       _CT??_R0?AVbad_exception@std@@@8??0bad_exception@std@@QEAA@AEBV01@@Z24 000000018007b158     libvcruntime:frame.obj
 0002:0002017c       __DELAY_IMPORT_DESCRIPTOR_node_exe 000000018007b17c     node:node.exe
 0002:0002019c       __NULL_DELAY_IMPORT_DESCRIPTOR 000000018007b19c     node:node.exe
 0002:00020450       \177node_NULL_THUNK_DATA_DLN 000000018007b450     node:node.exe
 0002:00021630       \177node_NULL_THUNK_DATA_DLB 000000018007c630     node:node.exe
 0002:00021918       __IMPORT_DESCRIPTOR_KERNEL32 000000018007c918     kernel32:KERNEL32.dll
 0002:0002192c       __NULL_IMPORT_DESCRIPTOR   000000018007c92c     kernel32:KERNEL32.dll
 0003:00000000       __scrt_native_dllmain_reason 000000018007e000     LIBCMT:utility.obj
 0003:00000004       _Init_global_epoch         000000018007e004     LIBCMT:thread_safe_statics.obj
 0003:00000008       __security_cookie_complement 000000018007e008     LIBCMT:gs_cookie.obj
 0003:00000010       __security_cookie          000000018007e010     LIBCMT:gs_cookie.obj
 0003:00000018       __isa_available            000000018007e018     LIBCMT:cpu_disp.obj
 0003:0000001c       __isa_enabled              000000018007e01c     LIBCMT:cpu_disp.obj
 0003:00000020       __memcpy_nt_iters          000000018007e020     LIBCMT:cpu_disp.obj
 0003:00000040       __abort_behavior           000000018007e040     libucrt:abort.obj
 0003:00000050       _iob                       000000018007e050     libucrt:_file.obj
 0003:00000170       __acrt_initial_locale_data 000000018007e170     libucrt:nlsdata.obj
 0003:000002c8       __acrt_initial_locale_pointers 000000018007e2c8     libucrt:nlsdata.obj
 0003:000002d8       __acrt_wide_c_locale_string 000000018007e2d8     libucrt:nlsdata.obj
 0003:000002e0       __badioinfo                000000018007e2e0     libucrt:ioinit.obj
 0003:00000320       __acrt_initial_multibyte_data 000000018007e320     libucrt:mbctype.obj
 0003:00000860       _pwctype                   000000018007e860     libucrt:ctype.obj
 0003:00000868       __globallocalestatus       000000018007e868     libucrt:glstatus.obj
 0003:00000870       __acrt_lconv_c             000000018007e870     libucrt:localeconv.obj
 0003:00000908       __acrt_lconv_static_decimal 000000018007e908     libucrt:localeconv.obj
 0003:0000090c       __acrt_lconv_static_W_decimal 000000018007e90c     libucrt:localeconv.obj
 0003:00000910       _lookuptrailbytes          000000018007e910     libucrt:read.obj
 0003:00000a30       _fltused                   000000018007ea30     LIBCMT:fltused.obj
 0003:00000a80       ??_R0?AVbad_alloc@std@@@8  000000018007ea80     libcpmt:xthrow.obj
 0003:00000aa8       ??_R0?AVexception@std@@@8  000000018007eaa8     libcpmt:xthrow.obj
 0003:00000ad0       ??_R0?AVlogic_error@std@@@8 000000018007ead0     libcpmt:xthrow.obj
 0003:00000af8       ??_R0?AVlength_error@std@@@8 000000018007eaf8     libcpmt:xthrow.obj
 0003:00000b20       ??_R0?AVtype_info@@@8      000000018007eb20     LIBCMT:std_type_info_static.obj
 0003:00000b40       ??_R0?AVbad_array_new_length@std@@@8 000000018007eb40     LIBCMT:throw_bad_alloc.obj
 0003:00000b70       ??_R0?AVbad_exception@std@@@8 000000018007eb70     libvcruntime:frame.obj
 0003:00000b98       __imp_uv_queue_work        000000018007eb98     node:node.exe
 0003:00000ba0       __imp_uv_cond_broadcast    000000018007eba0     node:node.exe
 0003:00000ba8       __imp_?Global@Context@v8@@QEAA?AV?$Local@VObject@v8@@@2@XZ 000000018007eba8     node:node.exe
 0003:00000bb0       __imp_?Value@External@v8@@QEBAPEAXXZ 000000018007ebb0     node:node.exe
 0003:00000bb8       __imp_?New@External@v8@@SA?AV?$Local@VExternal@v8@@@2@PEAVIsolate@2@PEAX@Z 000000018007ebb8     node:node.exe
 0003:00000bc0       __imp_?New@Signature@v8@@SA?AV?$Local@VSignature@v8@@@2@PEAVIsolate@2@V?$Local@VFunctionTemplate@v8@@@2@@Z 000000018007ebc0     node:node.exe
 0003:00000bc8       __imp_?ThrowException@Isolate@v8@@QEAA?AV?$Local@VValue@v8@@@2@V32@@Z 000000018007ebc8     node:node.exe
 0003:00000bd0       __imp_?GetCurrentContext@Isolate@v8@@QEAA?AV?$Local@VContext@v8@@@2@XZ 000000018007ebd0     node:node.exe
 0003:00000bd8       __imp_?GetCurrent@Isolate@v8@@SAPEAV12@XZ 000000018007ebd8     node:node.exe
 0003:00000be0       __imp_?CreateHandle@HandleScope@v8@@KAPEAPEAVObject@internal@2@PEAVIsolate@42@PEAV342@@Z 000000018007ebe0     node:node.exe
 0003:00000be8       __imp_?CreateHandle@HandleScope@v8@@CAPEAPEAVObject@internal@2@PEAVHeapObject@42@PEAV342@@Z 000000018007ebe8     node:node.exe
 0003:00000bf0       __imp_??1HandleScope@v8@@QEAA@XZ 000000018007ebf0     node:node.exe
 0003:00000bf8       __imp_??0HandleScope@v8@@QEAA@PEAVIsolate@1@@Z 000000018007ebf8     node:node.exe
 0003:00000c00       __imp_?Set@Template@v8@@QEAAXV?$Local@VName@v8@@@2@V?$Local@VData@v8@@@2@W4PropertyAttribute@2@@Z 000000018007ec00     node:node.exe
 0003:00000c08       __imp_?Error@Exception@v8@@SA?AV?$Local@VValue@v8@@@2@V?$Local@VString@v8@@@2@@Z 000000018007ec08     node:node.exe
 0003:00000c10       __imp_?SetClassName@FunctionTemplate@v8@@QEAAXV?$Local@VString@v8@@@2@@Z 000000018007ec10     node:node.exe
 0003:00000c18       __imp_?PrototypeTemplate@FunctionTemplate@v8@@QEAA?AV?$Local@VObjectTemplate@v8@@@2@XZ 000000018007ec18     node:node.exe
 0003:00000c20       __imp_?InstanceTemplate@FunctionTemplate@v8@@QEAA?AV?$Local@VObjectTemplate@v8@@@2@XZ 000000018007ec20     node:node.exe
 0003:00000c28       __imp_?GetFunction@FunctionTemplate@v8@@QEAA?AV?$Local@VFunction@v8@@@2@XZ 000000018007ec28     node:node.exe
 0003:00000c30       __imp_?New@FunctionTemplate@v8@@SA?AV?$Local@VFunctionTemplate@v8@@@2@PEAVIsolate@2@P6AXAEBV?$FunctionCallbackInfo@VValue@v8@@@2@@ZV?$Local@VValue@v8@@@2@V?$Local@VSignature@v8@@@2@HW4ConstructorBehavior@2@W4SideEffectType@2@@Z 000000018007ec30     node:node.exe
 0003:00000c38       __imp_?ToLocalEmpty@V8@v8@@CAXXZ 000000018007ec38     node:node.exe
 0003:00000c40       __imp_?ClearWeak@V8@v8@@CAPEAXPEAPEAVObject@internal@2@@Z 000000018007ec40     node:node.exe
 0003:00000c48       __imp_?MakeWeak@V8@v8@@CAXPEAPEAVObject@internal@2@PEAXP6AXAEBV?$WeakCallbackInfo@X@2@@ZW4WeakCallbackType@2@@Z 000000018007ec48     node:node.exe
 0003:00000c50       __imp_?DisposeGlobal@V8@v8@@CAXPEAPEAVObject@internal@2@@Z 000000018007ec50     node:node.exe
 0003:00000c58       __imp_?GlobalizeReference@V8@v8@@CAPEAPEAVObject@internal@2@PEAVIsolate@42@PEAPEAV342@@Z 000000018007ec58     node:node.exe
 0003:00000c60       __imp_?BooleanValue@Value@v8@@QEBA_NXZ 000000018007ec60     node:node.exe
 0003:00000c68       __imp_?IsObject@Value@v8@@QEBA_NXZ 000000018007ec68     node:node.exe
 0003:00000c70       __imp_?Escape@EscapableHandleScope@v8@@AEAAPEAPEAVObject@internal@2@PEAPEAV342@@Z 000000018007ec70     node:node.exe
 0003:00000c78       __imp_??0EscapableHandleScope@v8@@QEAA@PEAVIsolate@1@@Z 000000018007ec78     node:node.exe
 0003:00000c80       __imp_?NewFromUtf8@String@v8@@SA?AV?$MaybeLocal@VString@v8@@@2@PEAVIsolate@2@PEBDW4NewStringType@2@H@Z 000000018007ec80     node:node.exe
 0003:00000c88       __imp_?WriteUtf8@String@v8@@QEBAHPEADHPEAHH@Z 000000018007ec88     node:node.exe
 0003:00000c90       __imp_?Utf8Length@String@v8@@QEBAHXZ 000000018007ec90     node:node.exe
 0003:00000c98       __imp_?SlowGetAlignedPointerFromInternalField@Object@v8@@AEAAPEAXH@Z 000000018007ec98     node:node.exe
 0003:00000ca0       __imp_?SlowGetInternalField@Object@v8@@AEAA?AV?$Local@VValue@v8@@@2@H@Z 000000018007eca0     node:node.exe
 0003:00000ca8       __imp_?SetAlignedPointerInInternalField@Object@v8@@QEAAXHPEAX@Z 000000018007eca8     node:node.exe
 0003:00000cb0       __imp_?SetInternalField@Object@v8@@QEAAXHV?$Local@VValue@v8@@@2@@Z 000000018007ecb0     node:node.exe
 0003:00000cb8       __imp_?InternalFieldCount@Object@v8@@QEAAHXZ 000000018007ecb8     node:node.exe
 0003:00000cc0       __imp_?Has@Object@v8@@QEAA_NV?$Local@VValue@v8@@@2@@Z 000000018007ecc0     node:node.exe
 0003:00000cc8       __imp_?Get@Object@v8@@QEAA?AV?$Local@VValue@v8@@@2@V32@@Z 000000018007ecc8     node:node.exe
 0003:00000cd0       __imp_?Set@Object@v8@@QEAA_NV?$Local@VValue@v8@@@2@0@Z 000000018007ecd0     node:node.exe
 0003:00000cd8       __imp_?NewInstance@Function@v8@@QEBA?AV?$MaybeLocal@VObject@v8@@@2@V?$Local@VContext@v8@@@2@HQEAV?$Local@VValue@v8@@@2@@Z 000000018007ecd8     node:node.exe
 0003:00000ce0       __imp_?SetInternalFieldCount@ObjectTemplate@v8@@QEAAXH@Z 000000018007ece0     node:node.exe
 0003:00000ce8       __imp_?NewInstance@ObjectTemplate@v8@@QEAA?AV?$MaybeLocal@VObject@v8@@@2@V?$Local@VContext@v8@@@2@@Z 000000018007ece8     node:node.exe
 0003:00000cf0       __imp_?New@ObjectTemplate@v8@@SA?AV?$Local@VObjectTemplate@v8@@@2@PEAVIsolate@2@V?$Local@VFunctionTemplate@v8@@@2@@Z 000000018007ecf0     node:node.exe
 0003:00000cf8       __imp_?HasInstance@Buffer@node@@YA_NV?$Local@VValue@v8@@@v8@@@Z 000000018007ecf8     node:node.exe
 0003:00000d00       __imp_?HasInstance@Buffer@node@@YA_NV?$Local@VObject@v8@@@v8@@@Z 000000018007ed00     node:node.exe
 0003:00000d08       __imp_?Data@Buffer@node@@YAPEADV?$Local@VObject@v8@@@v8@@@Z 000000018007ed08     node:node.exe
 0003:00000d10       __imp_?Length@Buffer@node@@YA_KV?$Local@VObject@v8@@@v8@@@Z 000000018007ed10     node:node.exe
 0003:00000d18       __imp_?MakeCallback@node@@YA?AV?$Local@VValue@v8@@@v8@@PEAVIsolate@3@V?$Local@VObject@v8@@@3@V?$Local@VFunction@v8@@@3@HPEAV23@@Z 000000018007ed18     node:node.exe
 0003:00000d20       __imp_uv_default_loop      000000018007ed20     node:node.exe
 0003:00000d28       __imp_?ToObject@Value@v8@@QEBA?AV?$Local@VObject@v8@@@2@XZ 000000018007ed28     node:node.exe
 0003:00000d30       __imp_?ToString@Value@v8@@QEBA?AV?$Local@VString@v8@@@2@XZ 000000018007ed30     node:node.exe
 0003:00000d38       __imp_??1EscapableHandleScope@v8@@QEAA@XZ 000000018007ed38     node:node.exe
 0003:00000d40       __imp_?New@Object@v8@@SA?AV?$Local@VObject@v8@@@2@PEAVIsolate@2@@Z 000000018007ed40     node:node.exe
 0003:00000d48       __imp_?Length@Array@v8@@QEBAIXZ 000000018007ed48     node:node.exe
 0003:00000d50       __imp_?StrictEquals@Value@v8@@QEBA_NV?$Local@VValue@v8@@@2@@Z 000000018007ed50     node:node.exe
 0003:00000d58       __imp_?Uint32Value@Value@v8@@QEBAIXZ 000000018007ed58     node:node.exe
 0003:00000d60       __imp_?IsNumber@Value@v8@@QEBA_NXZ 000000018007ed60     node:node.exe
 0003:00000d68       __imp_?IsArray@Value@v8@@QEBA_NXZ 000000018007ed68     node:node.exe
 0003:00000d70       __imp_?IsFunction@Value@v8@@QEBA_NXZ 000000018007ed70     node:node.exe
 0003:00000d78       __imp_?HasCaught@TryCatch@v8@@QEBA_NXZ 000000018007ed78     node:node.exe
 0003:00000d80       __imp_??1TryCatch@v8@@QEAA@XZ 000000018007ed80     node:node.exe
 0003:00000d88       __imp_??0TryCatch@v8@@QEAA@PEAVIsolate@1@@Z 000000018007ed88     node:node.exe
 0003:00000d90       __imp_?Length@String@v8@@QEBAHXZ 000000018007ed90     node:node.exe
 0003:00000d98       __imp_?New@Number@v8@@SA?AV?$Local@VNumber@v8@@@2@PEAVIsolate@2@N@Z 000000018007ed98     node:node.exe
 0003:00000da0       __imp_?Get@Object@v8@@QEAA?AV?$Local@VValue@v8@@@2@I@Z 000000018007eda0     node:node.exe
 0003:00000da8       __imp_?Copy@Buffer@node@@YA?AV?$MaybeLocal@VObject@v8@@@v8@@PEAVIsolate@4@PEBD_K@Z 000000018007eda8     node:node.exe
 0003:00000db0       __imp_?Value@Integer@v8@@QEBA_JXZ 000000018007edb0     node:node.exe
 0003:00000db8       __imp_?Int32Value@Value@v8@@QEBAHXZ 000000018007edb8     node:node.exe
 0003:00000dc0       __imp_?New@Integer@v8@@SA?AV?$Local@VInteger@v8@@@2@PEAVIsolate@2@H@Z 000000018007edc0     node:node.exe
 0003:00000dc8       __imp_?New@Array@v8@@SA?AV?$Local@VArray@v8@@@2@PEAVIsolate@2@H@Z 000000018007edc8     node:node.exe
 0003:00000dd0       __imp_?ToInteger@Value@v8@@QEBA?AV?$MaybeLocal@VInteger@v8@@@2@V?$Local@VContext@v8@@@2@@Z 000000018007edd0     node:node.exe
 0003:00000dd8       __imp_node_module_register 000000018007edd8     node:node.exe
 0003:00000de0       __imp_uv_cond_signal       000000018007ede0     node:node.exe
 0003:00000de8       __imp_uv_cond_destroy      000000018007ede8     node:node.exe
 0003:00000df0       __imp_uv_mutex_unlock      000000018007edf0     node:node.exe
 0003:00000df8       __imp_uv_cond_init         000000018007edf8     node:node.exe
 0003:00000e00       __imp_uv_once              000000018007ee00     node:node.exe
 0003:00000e08       __imp_uv_mutex_lock        000000018007ee08     node:node.exe
 0003:00000e10       __imp_uv_cond_wait         000000018007ee10     node:node.exe
 0003:00000e18       __imp_uv_mutex_destroy     000000018007ee18     node:node.exe
 0003:00000e20       __imp_uv_mutex_init        000000018007ee20     node:node.exe
 0003:00000e28       \177node_NULL_THUNK_DATA_DLA 000000018007ee28     node:node.exe
 0003:00000e30       __hmod__node_exe           000000018007ee30     node:node.exe
 0003:00000e38       __scrt_current_native_startup_state 000000018007ee38     LIBCMT:utility.obj
 0003:00000e40       __scrt_native_startup_lock 000000018007ee40     LIBCMT:utility.obj
 0003:00001440       __favor                    000000018007f440     LIBCMT:cpu_disp.obj
 0003:00001444       __scrt_debugger_hook_flag  000000018007f444     LIBCMT:utility_desktop.obj
 0003:00001450       ?__type_info_root_node@@3U__type_info_node@@A 000000018007f450     LIBCMT:tncleanup.obj
 0003:00001460       ?_OptionsStorage@?1??__local_stdio_scanf_options@@9@4_KA 000000018007f460     LIBCMT:default_local_stdio_options.obj
 0003:00001468       _tls_index                 000000018007f468     LIBCMT:tlssup.obj
 0003:00001470       ?__WinRTOutOfMemoryExceptionCallback@@3P6APEAXXZEA 000000018007f470     libvcruntime:ehhelpers.obj
 0003:00001510       __pPurecall                000000018007f510     libvcruntime:purevirt_data.obj
 0003:00001588       ?pArgList@UnDecorator@@0PEAVReplicator@@EA 000000018007f588     libvcruntime:undname.obj
 0003:00001590       ?pZNameList@UnDecorator@@0PEAVReplicator@@EA 000000018007f590     libvcruntime:undname.obj
 0003:00001598       ?pTemplateArgList@UnDecorator@@0PEAVReplicator@@EA 000000018007f598     libvcruntime:undname.obj
 0003:000015a0       ?gName@UnDecorator@@0PEBDEB 000000018007f5a0     libvcruntime:undname.obj
 0003:000015a8       ?name@UnDecorator@@0PEBDEB 000000018007f5a8     libvcruntime:undname.obj
 0003:000015b0       ?disableFlags@UnDecorator@@0KA 000000018007f5b0     libvcruntime:undname.obj
 0003:000015b4       ?fExplicitTemplateParams@UnDecorator@@0_NA 000000018007f5b4     libvcruntime:undname.obj
 0003:000015b5       ?fGetTemplateArgumentList@UnDecorator@@0_NA 000000018007f5b5     libvcruntime:undname.obj
 0003:000015b8       ?m_pGetParameter@UnDecorator@@0P6APEADJ@ZEA 000000018007f5b8     libvcruntime:undname.obj
 0003:000015c0       ?m_CHPENameOffset@UnDecorator@@0KA 000000018007f5c0     libvcruntime:undname.obj
 0003:000015c4       ?m_recursionLevel@UnDecorator@@0KA 000000018007f5c4     libvcruntime:undname.obj
 0003:000015f8       _nstream                   000000018007f5f8     libucrt:_file.obj
 0003:00001600       __piob                     000000018007f600     libucrt:_file.obj
 0003:00001608       _cflush                    000000018007f608     libucrt:_file.obj
 0003:00001628       ?c_exit_complete@?1???R<lambda_6e4b09c48022b2350581041d5f6b0c4c>@@QEBA@XZ@4_NA 000000018007f628     libucrt:exit.obj
 0003:00001738       _environ_table             000000018007f738     libucrt:environment_initialization.obj
 0003:00001740       _wenviron_table            000000018007f740     libucrt:environment_initialization.obj
 0003:00001748       __dcrt_initial_wide_environment 000000018007f748     libucrt:environment_initialization.obj
 0003:00001750       __dcrt_initial_narrow_environment 000000018007f750     libucrt:environment_initialization.obj
 0003:00001758       __acrt_atexit_table        000000018007f758     libucrt:onexit.obj
 0003:00001770       __acrt_at_quick_exit_table 000000018007f770     libucrt:onexit.obj
 0003:000017b0       __acrt_locale_changed_data 000000018007f7b0     libucrt:wsetlocale.obj
 0003:000017b8       __acrt_current_locale_data 000000018007f7b8     libucrt:nlsdata.obj
 0003:000017c8       __acrt_stdout_buffer       000000018007f7c8     libucrt:_sftbuf.obj
 0003:000017d0       __acrt_stderr_buffer       000000018007f7d0     libucrt:_sftbuf.obj
 0003:000017e0       __pioinfo                  000000018007f7e0     libucrt:ioinit.obj
 0003:00001be0       _nhandle                   000000018007fbe0     libucrt:ioinit.obj
 0003:00001fe8       __acrt_current_multibyte_data 000000018007ffe8     libucrt:mbctype.obj
 0003:00001ff0       _mbctype                   000000018007fff0     libucrt:mbctype.obj
 0003:00001ff8       _mbcasemap                 000000018007fff8     libucrt:mbctype.obj
 0003:00002008       __argc                     0000000180080008     libucrt:argv_data.obj
 0003:00002010       __argv                     0000000180080010     libucrt:argv_data.obj
 0003:00002018       __wargv                    0000000180080018     libucrt:argv_data.obj
 0003:00002020       _acmdln                    0000000180080020     libucrt:argv_data.obj
 0003:00002028       _wcmdln                    0000000180080028     libucrt:argv_data.obj
 0003:00002030       _pgmptr                    0000000180080030     libucrt:argv_data.obj
 0003:00002038       __acrt_heap                0000000180080038     libucrt:heap_handle.obj
 0003:0000204c       __acrt_lconv_static_null   000000018008004c     libucrt:localeconv.obj
 0003:00002050       __acrt_lconv_static_W_null 0000000180080050     libucrt:localeconv.obj
 0003:00002054       _commode                   0000000180080054     libucrt:ncommode.obj
 0003:00002058       _umaskval                  0000000180080058     libucrt:umask.obj
 0003:0000205c       __fma3_is_available        000000018008005c     libucrt:fma3_available.obj
 0003:00002060       __use_fma3_lib             0000000180080060     libucrt:fma3_available.obj
 0003:00002064       _fmode                     0000000180080064     libucrt:txtmode.obj
 0003:00002068       ?DloadKernel32@@3PEAUHINSTANCE__@@EA 0000000180080068     DelayImp:delayhlp.obj
 0003:00002070       ?DloadAcquireSRWLockExclusive@@3P6AXPEA_K@ZEA 0000000180080070     DelayImp:delayhlp.obj
 0003:00002078       ?DloadReleaseSRWLockExclusive@@3P6AXPEA_K@ZEA 0000000180080078     DelayImp:delayhlp.obj
 0003:00002080       ?DloadSrwLock@@3_KA        0000000180080080     DelayImp:delayhlp.obj
 0003:00002088       ?DloadSectionLockCount@@3KA 0000000180080088     DelayImp:delayhlp.obj
 0003:0000208c       ?DloadSectionOldProtection@@3KA 000000018008008c     DelayImp:delayhlp.obj
 0003:00002090       ?DloadSectionCommitPermanent@@3KA 0000000180080090     DelayImp:delayhlp.obj
 0003:00002098       ?_OptionsStorage@?1??__local_stdio_printf_options@@9@4_KA 0000000180080098     leveldb:status.obj
 0003:00002108       __dyn_tls_init_callback    0000000180080108     <common>
 0003:00002110       __scrt_ucrt_dll_is_in_use  0000000180080110     <common>

 entry point at        0001:00038ed4

 Static symbols

 0000:fff78000       .debug$S                   0000000180000000     kernel32:KERNEL32.dll
 0000:fff78000       .debug$S                   0000000180000000     node:node.exe
 0000:fff78000       .debug$S                   0000000180000000     node:node.exe
 0000:fff78000       .debug$S                   0000000180000000     node:node.exe
 0000:fff78000       .debug$S                   0000000180000000     node:node.exe
 0000:fff78000       .debug$S                   0000000180000000     node:node.exe
 0000:fff78000       .debug$S                   0000000180000000     node:node.exe
 0000:fff78000       .debug$S                   0000000180000000     node:node.exe
 0000:fff78000       .debug$S                   0000000180000000     node:node.exe
 0000:fff78000       .debug$S                   0000000180000000     node:node.exe
 0000:fff78000       .debug$S                   0000000180000000     node:node.exe
 0000:fff78000       .debug$S                   0000000180000000     node:node.exe
 0000:fff78000       .debug$S                   0000000180000000     node:node.exe
 0000:fff78000       .debug$S                   0000000180000000     node:node.exe
 0000:fff78000       .debug$S                   0000000180000000     node:node.exe
 0000:fff78000       .debug$S                   0000000180000000     node:node.exe
 0000:fff78000       .debug$S                   0000000180000000     node:node.exe
 0000:fff78000       .debug$S                   0000000180000000     node:node.exe
 0000:fff78000       .debug$S                   0000000180000000     node:node.exe
 0000:fff78000       .debug$S                   0000000180000000     node:node.exe
 0000:fff78000       .debug$S                   0000000180000000     node:node.exe
 0000:fff78000       .debug$S                   0000000180000000     node:node.exe
 0000:fff78000       .debug$S                   0000000180000000     node:node.exe
 0000:fff78000       .debug$S                   0000000180000000     kernel32:KERNEL32.dll
 0000:fff78000       .debug$S                   0000000180000000     node:node.exe
 0000:fff78000       .debug$S                   0000000180000000     node:node.exe
 0000:fff78000       .debug$S                   0000000180000000     node:node.exe
 0000:fff78000       .debug$S                   0000000180000000     node:node.exe
 0000:fff78000       .debug$S                   0000000180000000     node:node.exe
 0000:fff78000       .debug$S                   0000000180000000     node:node.exe
 0000:fff78000       .debug$S                   0000000180000000     node:node.exe
 0000:fff78000       .debug$S                   0000000180000000     node:node.exe
 0000:fff78000       .debug$S                   0000000180000000     node:node.exe
 0000:fff78000       .debug$S                   0000000180000000     node:node.exe
 0000:fff78000       .debug$S                   0000000180000000     node:node.exe
 0000:fff78000       .debug$S                   0000000180000000     node:node.exe
 0000:fff78000       .debug$S                   0000000180000000     node:node.exe
 0000:fff78000       .debug$S                   0000000180000000     node:node.exe
 0000:fff78000       .debug$S                   0000000180000000     node:node.exe
 0000:fff78000       .debug$S                   0000000180000000     node:node.exe
 0000:fff78000       .debug$S                   0000000180000000     node:node.exe
 0000:fff78000       .debug$S                   0000000180000000     node:node.exe
 0000:fff78000       .debug$S                   0000000180000000     node:node.exe
 0000:fff78000       .debug$S                   0000000180000000     node:node.exe
 0000:fff78000       .debug$S                   0000000180000000     node:node.exe
 0000:fff78000       .debug$S                   0000000180000000     node:node.exe
 0000:fff78000       .debug$S                   0000000180000000     node:node.exe
 0000:fff78000       .debug$S                   0000000180000000     node:node.exe
 0000:fff78000       .debug$S                   0000000180000000     node:node.exe
 0000:fff78000       .debug$S                   0000000180000000     node:node.exe
 0000:fff78000       .debug$S                   0000000180000000     node:node.exe
 0000:fff78000       .debug$S                   0000000180000000     node:node.exe
 0000:fff78000       .debug$S                   0000000180000000     node:node.exe
 0000:fff78000       .debug$S                   0000000180000000     node:node.exe
 0000:fff78000       .debug$S                   0000000180000000     node:node.exe
 0000:fff78000       .debug$S                   0000000180000000     node:node.exe
 0000:fff78000       .debug$S                   0000000180000000     node:node.exe
 0000:fff78000       .debug$S                   0000000180000000     node:node.exe
 0000:fff78000       .debug$S                   0000000180000000     node:node.exe
 0000:fff78000       .debug$S                   0000000180000000     node:node.exe
 0000:fff78000       .debug$S                   0000000180000000     node:node.exe
 0000:fff78000       .debug$S                   0000000180000000     node:node.exe
 0000:fff78000       .debug$S                   0000000180000000     node:node.exe
 0000:fff78000       .debug$S                   0000000180000000     node:node.exe
 0000:fff78000       .debug$S                   0000000180000000     node:node.exe
 0000:fff78000       .debug$S                   0000000180000000     node:node.exe
 0000:fff78000       .debug$S                   0000000180000000     node:node.exe
 0000:fff78000       .debug$S                   0000000180000000     node:node.exe
 0000:fff78000       .debug$S                   0000000180000000     node:node.exe
 0000:fff78000       .debug$S                   0000000180000000     node:node.exe
 0000:fff78000       .debug$S                   0000000180000000     node:node.exe
 0000:fff78000       .debug$S                   0000000180000000     node:node.exe
 0000:fff78000       .debug$S                   0000000180000000     node:node.exe
 0000:fff78000       .debug$S                   0000000180000000     node:node.exe
 0000:fff78000       .debug$S                   0000000180000000     node:node.exe
 0000:fff78000       .debug$S                   0000000180000000     node:node.exe
 0000:fff78000       .debug$S                   0000000180000000     node:node.exe
 0000:fff78000       .debug$S                   0000000180000000     node:node.exe
 0000:fff78000       .debug$S                   0000000180000000     node:node.exe
 0000:fff78000       .debug$S                   0000000180000000     node:node.exe
 0000:fff78000       .debug$S                   0000000180000000     node:node.exe
 0000:fff78000       .debug$S                   0000000180000000     node:node.exe
 0000:fff78000       .debug$S                   0000000180000000     node:node.exe
 0000:fff78000       .debug$S                   0000000180000000     node:node.exe
 0000:fff78000       .debug$S                   0000000180000000     node:node.exe
 0000:fff78000       .debug$S                   0000000180000000     node:node.exe
 0000:fff78000       .debug$S                   0000000180000000     kernel32:KERNEL32.dll
 0000:fff78000       .debug$S                   0000000180000000     kernel32:KERNEL32.dll
 0000:fff78000       .debug$S                   0000000180000000     kernel32:KERNEL32.dll
 0000:fff78000       .debug$S                   0000000180000000     kernel32:KERNEL32.dll
 0000:fff78000       .debug$S                   0000000180000000     node:node.exe
 0000:fff78000       .debug$S                   0000000180000000     node:node.exe
 0000:fff78000       .debug$S                   0000000180000000     node:node.exe
 0000:fff78000       .debug$S                   0000000180000000     kernel32:KERNEL32.dll
 0000:fff78000       .debug$S                   0000000180000000     kernel32:KERNEL32.dll
 0000:fff78000       .debug$S                   0000000180000000     kernel32:KERNEL32.dll
 0000:fff78000       .debug$S                   0000000180000000     kernel32:KERNEL32.dll
 0000:fff78000       .debug$S                   0000000180000000     kernel32:KERNEL32.dll
 0000:fff78000       .debug$S                   0000000180000000     kernel32:KERNEL32.dll
 0000:fff78000       .debug$S                   0000000180000000     kernel32:KERNEL32.dll
 0000:fff78000       .debug$S                   0000000180000000     kernel32:KERNEL32.dll
 0000:fff78000       .debug$S                   0000000180000000     kernel32:KERNEL32.dll
 0000:fff78000       .debug$S                   0000000180000000     kernel32:KERNEL32.dll
 0000:fff78000       .debug$S                   0000000180000000     kernel32:KERNEL32.dll
 0000:fff78000       .debug$S                   0000000180000000     kernel32:KERNEL32.dll
 0000:fff78000       .debug$S                   0000000180000000     kernel32:KERNEL32.dll
 0000:fff78000       .debug$S                   0000000180000000     kernel32:KERNEL32.dll
 0000:fff78000       .debug$S                   0000000180000000     kernel32:KERNEL32.dll
 0000:fff78000       .debug$S                   0000000180000000     kernel32:KERNEL32.dll
 0000:fff78000       .debug$S                   0000000180000000     kernel32:KERNEL32.dll
 0000:fff78000       .debug$S                   0000000180000000     kernel32:KERNEL32.dll
 0000:fff78000       .debug$S                   0000000180000000     kernel32:KERNEL32.dll
 0000:fff78000       .debug$S                   0000000180000000     kernel32:KERNEL32.dll
 0000:fff78000       .debug$S                   0000000180000000     kernel32:KERNEL32.dll
 0000:fff78000       .debug$S                   0000000180000000     kernel32:KERNEL32.dll
 0000:fff78000       .debug$S                   0000000180000000     kernel32:KERNEL32.dll
 0000:fff78000       .debug$S                   0000000180000000     kernel32:KERNEL32.dll
 0000:fff78000       .debug$S                   0000000180000000     kernel32:KERNEL32.dll
 0000:fff78000       .debug$S                   0000000180000000     kernel32:KERNEL32.dll
 0000:fff78000       .debug$S                   0000000180000000     kernel32:KERNEL32.dll
 0000:fff78000       .debug$S                   0000000180000000     kernel32:KERNEL32.dll
 0000:fff78000       .debug$S                   0000000180000000     kernel32:KERNEL32.dll
 0000:fff78000       .debug$S                   0000000180000000     kernel32:KERNEL32.dll
 0000:fff78000       .debug$S                   0000000180000000     kernel32:KERNEL32.dll
 0000:fff78000       .debug$S                   0000000180000000     kernel32:KERNEL32.dll
 0000:fff78000       .debug$S                   0000000180000000     kernel32:KERNEL32.dll
 0000:fff78000       .debug$S                   0000000180000000     kernel32:KERNEL32.dll
 0000:fff78000       .debug$S                   0000000180000000     kernel32:KERNEL32.dll
 0000:fff78000       .debug$S                   0000000180000000     kernel32:KERNEL32.dll
 0000:fff78000       .debug$S                   0000000180000000     kernel32:KERNEL32.dll
 0000:fff78000       .debug$S                   0000000180000000     kernel32:KERNEL32.dll
 0000:fff78000       .debug$S                   0000000180000000     kernel32:KERNEL32.dll
 0000:fff78000       .debug$S                   0000000180000000     kernel32:KERNEL32.dll
 0000:fff78000       .debug$S                   0000000180000000     kernel32:KERNEL32.dll
 0000:fff78000       .debug$S                   0000000180000000     kernel32:KERNEL32.dll
 0000:fff78000       .debug$S                   0000000180000000     kernel32:KERNEL32.dll
 0000:fff78000       .debug$S                   0000000180000000     kernel32:KERNEL32.dll
 0000:fff78000       .debug$S                   0000000180000000     kernel32:KERNEL32.dll
 0000:fff78000       .debug$S                   0000000180000000     kernel32:KERNEL32.dll
 0000:fff78000       .debug$S                   0000000180000000     kernel32:KERNEL32.dll
 0000:fff78000       .debug$S                   0000000180000000     kernel32:KERNEL32.dll
 0000:fff78000       .debug$S                   0000000180000000     kernel32:KERNEL32.dll
 0000:fff78000       .debug$S                   0000000180000000     kernel32:KERNEL32.dll
 0000:fff78000       .debug$S                   0000000180000000     kernel32:KERNEL32.dll
 0000:fff78000       .debug$S                   0000000180000000     kernel32:KERNEL32.dll
 0000:fff78000       .debug$S                   0000000180000000     kernel32:KERNEL32.dll
 0000:fff78000       .debug$S                   0000000180000000     kernel32:KERNEL32.dll
 0000:fff78000       .debug$S                   0000000180000000     kernel32:KERNEL32.dll
 0000:fff78000       .debug$S                   0000000180000000     kernel32:KERNEL32.dll
 0000:fff78000       .debug$S                   0000000180000000     kernel32:KERNEL32.dll
 0000:fff78000       .debug$S                   0000000180000000     kernel32:KERNEL32.dll
 0000:fff78000       .debug$S                   0000000180000000     kernel32:KERNEL32.dll
 0000:fff78000       .debug$S                   0000000180000000     kernel32:KERNEL32.dll
 0000:fff78000       .debug$S                   0000000180000000     kernel32:KERNEL32.dll
 0000:fff78000       .debug$S                   0000000180000000     kernel32:KERNEL32.dll
 0000:fff78000       .debug$S                   0000000180000000     kernel32:KERNEL32.dll
 0000:fff78000       .debug$S                   0000000180000000     kernel32:KERNEL32.dll
 0000:fff78000       .debug$S                   0000000180000000     kernel32:KERNEL32.dll
 0000:fff78000       .debug$S                   0000000180000000     kernel32:KERNEL32.dll
 0000:fff78000       .debug$S                   0000000180000000     kernel32:KERNEL32.dll
 0000:fff78000       .debug$S                   0000000180000000     kernel32:KERNEL32.dll
 0000:fff78000       .debug$S                   0000000180000000     kernel32:KERNEL32.dll
 0000:fff78000       .debug$S                   0000000180000000     kernel32:KERNEL32.dll
 0000:fff78000       .debug$S                   0000000180000000     kernel32:KERNEL32.dll
 0000:fff78000       .debug$S                   0000000180000000     kernel32:KERNEL32.dll
 0000:fff78000       .debug$S                   0000000180000000     kernel32:KERNEL32.dll
 0000:fff78000       .debug$S                   0000000180000000     kernel32:KERNEL32.dll
 0000:fff78000       .debug$S                   0000000180000000     kernel32:KERNEL32.dll
 0000:fff78000       .debug$S                   0000000180000000     kernel32:KERNEL32.dll
 0000:fff78000       .debug$S                   0000000180000000     kernel32:KERNEL32.dll
 0000:fff78000       .debug$S                   0000000180000000     kernel32:KERNEL32.dll
 0000:fff78000       .debug$S                   0000000180000000     kernel32:KERNEL32.dll
 0000:fff78000       .debug$S                   0000000180000000     kernel32:KERNEL32.dll
 0000:fff78000       .debug$S                   0000000180000000     kernel32:KERNEL32.dll
 0000:fff78000       .debug$S                   0000000180000000     kernel32:KERNEL32.dll
 0000:fff78000       .debug$S                   0000000180000000     kernel32:KERNEL32.dll
 0000:fff78000       .debug$S                   0000000180000000     leveldown.exp
 0000:fff78000       .debug$S                   0000000180000000     kernel32:KERNEL32.dll
 0000:fff78000       .debug$S                   0000000180000000     kernel32:KERNEL32.dll
 0000:fff78000       .debug$S                   0000000180000000     kernel32:KERNEL32.dll
 0000:fff78000       .debug$S                   0000000180000000     kernel32:KERNEL32.dll
 0000:fff78000       .debug$S                   0000000180000000     kernel32:KERNEL32.dll
 0000:fff78000       .debug$S                   0000000180000000     node:node.exe
 0000:fff78000       .debug$S                   0000000180000000     node:node.exe
 0000:fff78000       .debug$S                   0000000180000000     node:node.exe
 0000:fff78000       .debug$S                   0000000180000000     node:node.exe
 0000:fff78000       .debug$S                   0000000180000000     node:node.exe
 0000:fff78000       .debug$S                   0000000180000000     node:node.exe
 0000:fff78000       .debug$S                   0000000180000000     node:node.exe
 0000:fff78000       .debug$S                   0000000180000000     node:node.exe
 0000:fff78000       .debug$S                   0000000180000000     node:node.exe
 0000:fff78000       .debug$S                   0000000180000000     node:node.exe
 0000:fff78000       .debug$S                   0000000180000000     kernel32:KERNEL32.dll
 0000:fff78000       .debug$S                   0000000180000000     kernel32:KERNEL32.dll
 0000:fff78000       .debug$S                   0000000180000000     kernel32:KERNEL32.dll
 0000:fff78000       .debug$S                   0000000180000000     kernel32:KERNEL32.dll
 0000:fff78000       .debug$S                   0000000180000000     kernel32:KERNEL32.dll
 0000:fff78000       .debug$S                   0000000180000000     kernel32:KERNEL32.dll
 0000:fff78000       .debug$S                   0000000180000000     kernel32:KERNEL32.dll
 0000:fff78000       .debug$S                   0000000180000000     kernel32:KERNEL32.dll
 0000:fff78000       .debug$S                   0000000180000000     kernel32:KERNEL32.dll
 0000:fff78000       .debug$S                   0000000180000000     kernel32:KERNEL32.dll
 0000:fff78000       .debug$S                   0000000180000000     kernel32:KERNEL32.dll
 0000:fff78000       .debug$S                   0000000180000000     kernel32:KERNEL32.dll
 0000:fff78000       .debug$S                   0000000180000000     kernel32:KERNEL32.dll
 0000:fff78000       .debug$S                   0000000180000000     kernel32:KERNEL32.dll
 0000:fff78000       .debug$S                   0000000180000000     kernel32:KERNEL32.dll
 0000:fff78000       .debug$S                   0000000180000000     kernel32:KERNEL32.dll
 0000:fff78000       .debug$S                   0000000180000000     kernel32:KERNEL32.dll
 0000:fff78000       .debug$S                   0000000180000000     kernel32:KERNEL32.dll
 0000:fff78000       .debug$S                   0000000180000000     kernel32:KERNEL32.dll
 0000:fff78000       .debug$S                   0000000180000000     kernel32:KERNEL32.dll
 0000:fff78000       .debug$S                   0000000180000000     kernel32:KERNEL32.dll
 0001:00000000       ??__Ebatch_constructor@leveldown@@YAXXZ 0000000180001000 f   batch.obj
 0001:00000020       ??__Edatabase_constructor@leveldown@@YAXXZ 0000000180001020 f   database.obj
 0001:00000040       ??__Eiterator_constructor@leveldown@@YAXXZ 0000000180001040 f   iterator.obj
 0001:00000060       ??__Edefault_env_mutex@leveldb@@YAXXZ 0000000180001060 f   leveldb:env_win.obj
 0001:00000090       ?FunctionCallbackWrapper@imp@Nan@@YAXAEBV?$FunctionCallbackInfo@VValue@v8@@@v8@@@Z 0000000180001090 f   batch.obj
 0001:00002c10       ?Seek@EmptyIterator@?A0x38b22730@leveldb@@UEAAXAEBVSlice@3@@Z 0000000180003c10 f   leveldb:iterator.obj
 0001:00002c10       ?SeekToFirst@EmptyIterator@?A0x38b22730@leveldb@@UEAAXXZ 0000000180003c10 f   leveldb:iterator.obj
 0001:00002c10       ?SeekToLast@EmptyIterator@?A0x38b22730@leveldb@@UEAAXXZ 0000000180003c10 f   leveldb:iterator.obj
 0001:000078f0       ?StringOrBufferLength@@YA_KV?$Local@VValue@v8@@@v8@@@Z 00000001800088f0 f   iterator.obj
 0001:0000c040       _register_leveldown        000000018000d040 f   leveldown.obj
 0001:0000c3f0       ?load_exe_hook@@YAP6A_JXZIPEAUDelayLoadInfo@@@Z 000000018000d3f0 f   win_delay_load_hook.obj
 0001:0000cac0       ?Put@MemTableInserter@?A0x64e28a04@leveldb@@UEAAXAEBVSlice@3@0@Z 000000018000dac0 f   leveldb:write_batch.obj
 0001:0000caf0       ?Delete@MemTableInserter@?A0x64e28a04@leveldb@@UEAAXAEBVSlice@3@@Z 000000018000daf0 f   leveldb:write_batch.obj
 0001:0000cbd0       ??1MemTableInserter@?A0x64e28a04@leveldb@@UEAA@XZ 000000018000dbd0 f   leveldb:write_batch.obj
 0001:0000cbf0       ??_GMemTableInserter@?A0x64e28a04@leveldb@@UEAAPEAXI@Z 000000018000dbf0 f   leveldb:write_batch.obj
 0001:0000d4e4       $LN191                     000000018000e4e4     leveldb:status.obj
 0001:0000d500       ?Name@BloomFilterPolicy@?A0x5c28806e@leveldb@@UEBAPEBDXZ 000000018000e500 f   leveldb:bloom.obj
 0001:0000d510       ?CreateFilter@BloomFilterPolicy@?A0x5c28806e@leveldb@@UEBAXPEBVSlice@3@HPEAV?$basic_string@DU?$char_traits@D@std@@V?$allocator@D@2@@std@@@Z 000000018000e510 f   leveldb:bloom.obj
 0001:0000d670       ?KeyMayMatch@BloomFilterPolicy@?A0x5c28806e@leveldb@@UEBA_NAEBVSlice@3@0@Z 000000018000e670 f   leveldb:bloom.obj
 0001:0000d720       ??_GBloomFilterPolicy@?A0x5c28806e@leveldb@@UEAAPEAXI@Z 000000018000e720 f   leveldb:bloom.obj
 0001:0000f97c       $LN972                     000000018001097c     leveldb:db_impl.obj
 0001:00010fb0       ?Corruption@LogReporter@?1??RecoverLogFile@DBImpl@leveldb@@AEAA?AVStatus@4@_K_NPEA_NPEAVVersionEdit@4@PEA_K@Z@UEAAX0AEBV54@@Z 0000000180011fb0 f   leveldb:db_impl.obj
 0001:00013d10       ?CleanupIteratorState@?A0x3ce5979f@leveldb@@YAXPEAX0@Z 0000000180014d10 f   leveldb:db_impl.obj
 0001:00016880       ??_GLogReporter@?1??RecoverLogFile@DBImpl@leveldb@@AEAA?AVStatus@3@_K_NPEA_NPEAVVersionEdit@3@PEA_K@Z@UEAAPEAXI@Z 0000000180017880 f   leveldb:db_impl.obj
 0001:000168c0       ??1LogReporter@?1??RecoverLogFile@DBImpl@leveldb@@AEAA?AVStatus@3@_K_NPEA_NPEAVVersionEdit@3@PEA_K@Z@UEAA@XZ 00000001800178c0 f   leveldb:db_impl.obj
 0001:000168c0       ??1LogReporter@?1??Recover@VersionSet@leveldb@@QEAA?AVStatus@3@PEA_N@Z@UEAA@XZ 00000001800178c0 f   leveldb:version_set.obj
 0001:000168c0       ??1LogReporter@?1??ConvertLogToTable@Repairer@?A0xc7ae436e@leveldb@@AEAA?AVStatus@4@_K@Z@UEAA@XZ 00000001800178c0 f   leveldb:repair.obj
 0001:00019520       ??1HandleTable@?A0x3a8390f1@leveldb@@QEAA@XZ 000000018001a520 f   leveldb:cache.obj
 0001:00019530       ?FindPointer@HandleTable@?A0x3a8390f1@leveldb@@AEAAPEAPEAULRUHandle@23@AEBVSlice@3@I@Z 000000018001a530 f   leveldb:cache.obj
 0001:000195d0       ?Resize@HandleTable@?A0x3a8390f1@leveldb@@AEAAXXZ 000000018001a5d0 f   leveldb:cache.obj
 0001:000196d0       ??0LRUCache@?A0x3a8390f1@leveldb@@QEAA@XZ 000000018001a6d0 f   leveldb:cache.obj
 0001:00019740       ??1LRUCache@?A0x3a8390f1@leveldb@@QEAA@XZ 000000018001a740 f   leveldb:cache.obj
 0001:00019830       ?Unref@LRUCache@?A0x3a8390f1@leveldb@@AEAAXPEAULRUHandle@23@@Z 000000018001a830 f   leveldb:cache.obj
 0001:00019930       ?Insert@LRUCache@?A0x3a8390f1@leveldb@@QEAAPEAUHandle@Cache@3@AEBVSlice@3@IPEAX_KP6AX01@Z@Z 000000018001a930 f   leveldb:cache.obj
 0001:00019ba0       ?FinishErase@LRUCache@?A0x3a8390f1@leveldb@@AEAA_NPEAULRUHandle@23@@Z 000000018001aba0 f   leveldb:cache.obj
 0001:00019c20       ?Insert@ShardedLRUCache@?A0x3a8390f1@leveldb@@UEAAPEAUHandle@Cache@3@AEBVSlice@3@PEAX_KP6AX01@Z@Z 000000018001ac20 f   leveldb:cache.obj
 0001:00019c90       ?Lookup@ShardedLRUCache@?A0x3a8390f1@leveldb@@UEAAPEAUHandle@Cache@3@AEBVSlice@3@@Z 000000018001ac90 f   leveldb:cache.obj
 0001:00019d80       ?Release@ShardedLRUCache@?A0x3a8390f1@leveldb@@UEAAXPEAUHandle@Cache@3@@Z 000000018001ad80 f   leveldb:cache.obj
 0001:00019df0       ?Erase@ShardedLRUCache@?A0x3a8390f1@leveldb@@UEAAXAEBVSlice@3@@Z 000000018001adf0 f   leveldb:cache.obj
 0001:00019ea0       ?Value@ShardedLRUCache@?A0x3a8390f1@leveldb@@UEAAPEAXPEAUHandle@Cache@3@@Z 000000018001aea0 f   leveldb:cache.obj
 0001:00019eb0       ?NewId@ShardedLRUCache@?A0x3a8390f1@leveldb@@UEAA_KXZ 000000018001aeb0 f   leveldb:cache.obj
 0001:00019f10       ?Prune@ShardedLRUCache@?A0x3a8390f1@leveldb@@UEAAXXZ 000000018001af10 f   leveldb:cache.obj
 0001:0001a080       ?TotalCharge@ShardedLRUCache@?A0x3a8390f1@leveldb@@UEBA_KXZ 000000018001b080 f   leveldb:cache.obj
 0001:0001a100       ??_GShardedLRUCache@?A0x3a8390f1@leveldb@@UEAAPEAXI@Z 000000018001b100 f   leveldb:cache.obj
 0001:0001a3f0       ??1Repairer@?A0xc7ae436e@leveldb@@QEAA@XZ 000000018001b3f0 f   leveldb:repair.obj
 0001:0001a6f0       ?FindFiles@Repairer@?A0xc7ae436e@leveldb@@AEAA?AVStatus@3@XZ 000000018001b6f0 f   leveldb:repair.obj
 0001:0001aa40       ?ConvertLogFilesToTables@Repairer@?A0xc7ae436e@leveldb@@AEAAXXZ 000000018001ba40 f   leveldb:repair.obj
 0001:0001ac10       ?ConvertLogToTable@Repairer@?A0xc7ae436e@leveldb@@AEAA?AVStatus@3@_K@Z 000000018001bc10 f   leveldb:repair.obj
 0001:0001b4d0       ?Corruption@LogReporter@?1??ConvertLogToTable@Repairer@?A0xc7ae436e@leveldb@@AEAA?AVStatus@5@_K@Z@UEAAX0AEBV65@@Z 000000018001c4d0 f   leveldb:repair.obj
 0001:0001b5a0       ?ScanTable@Repairer@?A0xc7ae436e@leveldb@@AEAAX_K@Z 000000018001c5a0 f   leveldb:repair.obj
 0001:0001bd30       ?RepairTable@Repairer@?A0xc7ae436e@leveldb@@AEAAXAEBV?$basic_string@DU?$char_traits@D@std@@V?$allocator@D@2@@std@@UTableInfo@123@@Z 000000018001cd30 f   leveldb:repair.obj
 0001:0001c220       ?WriteDescriptor@Repairer@?A0xc7ae436e@leveldb@@AEAA?AVStatus@3@XZ 000000018001d220 f   leveldb:repair.obj
 0001:0001ca00       ?ArchiveFile@Repairer@?A0xc7ae436e@leveldb@@AEAAXAEBV?$basic_string@DU?$char_traits@D@std@@V?$allocator@D@2@@std@@@Z 000000018001da00 f   leveldb:repair.obj
 0001:0001cd40       ??_GLogReporter@?1??ConvertLogToTable@Repairer@?A0xc7ae436e@leveldb@@AEAA?AVStatus@4@_K@Z@UEAAPEAXI@Z 000000018001dd40 f   leveldb:repair.obj
 0001:0001cd80       ??1TableInfo@Repairer@?A0xc7ae436e@leveldb@@QEAA@XZ 000000018001dd80 f   leveldb:repair.obj
 0001:0001cda0       ??0TableInfo@Repairer@?A0xc7ae436e@leveldb@@QEAA@AEBU0123@@Z 000000018001dda0 f   leveldb:repair.obj
 0001:0001d0d0       ??1?$vector@UTableInfo@Repairer@?A0xc7ae436e@leveldb@@V?$allocator@UTableInfo@Repairer@?A0xc7ae436e@leveldb@@@std@@@std@@QEAA@XZ 000000018001e0d0 f   leveldb:repair.obj
 0001:0001d1a0       ??$_Emplace_reallocate@AEBUTableInfo@Repairer@?A0xc7ae436e@leveldb@@@?$vector@UTableInfo@Repairer@?A0xc7ae436e@leveldb@@V?$allocator@UTableInfo@Repairer@?A0xc7ae436e@leveldb@@@std@@@std@@QEAAPEAUTableInfo@Repairer@?A0xc7ae436e@leveldb@@QEAU2345@AEBU2345@@Z 000000018001e1a0 f   leveldb:repair.obj
 0001:0001d580       ?_Xlength@?$vector@UTableInfo@Repairer@?A0xc7ae436e@leveldb@@V?$allocator@UTableInfo@Repairer@?A0xc7ae436e@leveldb@@@std@@@std@@CAXXZ 000000018001e580 f   leveldb:repair.obj
 0001:0001d5a0       ??$_Uninitialized_move@PEAUTableInfo@Repairer@?A0xc7ae436e@leveldb@@PEAU1234@V?$allocator@UTableInfo@Repairer@?A0xc7ae436e@leveldb@@@std@@@std@@YAPEAUTableInfo@Repairer@?A0xc7ae436e@leveldb@@QEAU1234@0PEAU1234@AEAV?$allocator@UTableInfo@Repairer@?A0xc7ae436e@leveldb@@@0@@Z 000000018001e5a0 f   leveldb:repair.obj
 0001:0001d720       ??1?$_Uninitialized_backout_al@PEAUTableInfo@Repairer@?A0xc7ae436e@leveldb@@V?$allocator@UTableInfo@Repairer@?A0xc7ae436e@leveldb@@@std@@@std@@QEAA@XZ 000000018001e720 f   leveldb:repair.obj
 0001:0001daa0       ?GetLengthPrefixedSlice@leveldb@@YA?AVSlice@1@PEBD@Z 000000018001eaa0 f   leveldb:memtable.obj
 0001:0001fa80       ?MakeFileName@leveldb@@YA?AV?$basic_string@DU?$char_traits@D@std@@V?$allocator@D@2@@std@@AEBV23@_KPEBD@Z 0000000180020a80 f   leveldb:filename.obj
 0001:000207d0       ?DoWriteStringToFile@leveldb@@YA?AVStatus@1@PEAVEnv@1@AEBVSlice@1@AEBV?$basic_string@DU?$char_traits@D@std@@V?$allocator@D@2@@std@@_N@Z 00000001800217d0 f   leveldb:env.obj
 0001:00020e60       ?Valid@MergingIterator@?A0x1fed6d62@leveldb@@UEBA_NXZ 0000000180021e60 f   leveldb:merger.obj
 0001:00020e70       ?SeekToFirst@MergingIterator@?A0x1fed6d62@leveldb@@UEAAXXZ 0000000180021e70 f   leveldb:merger.obj
 0001:00020f20       ?SeekToLast@MergingIterator@?A0x1fed6d62@leveldb@@UEAAXXZ 0000000180021f20 f   leveldb:merger.obj
 0001:00020fd0       ?Seek@MergingIterator@?A0x1fed6d62@leveldb@@UEAAXAEBVSlice@3@@Z 0000000180021fd0 f   leveldb:merger.obj
 0001:00021090       ?Next@MergingIterator@?A0x1fed6d62@leveldb@@UEAAXXZ 0000000180022090 f   leveldb:merger.obj
 0001:00021230       ?Prev@MergingIterator@?A0x1fed6d62@leveldb@@UEAAXXZ 0000000180022230 f   leveldb:merger.obj
 0001:00021430       ?key@MergingIterator@?A0x1fed6d62@leveldb@@UEBA?AVSlice@3@XZ 0000000180022430 f   leveldb:merger.obj
 0001:000214a0       ?value@MergingIterator@?A0x1fed6d62@leveldb@@UEBA?AVSlice@3@XZ 00000001800224a0 f   leveldb:merger.obj
 0001:00021510       ?status@MergingIterator@?A0x1fed6d62@leveldb@@UEBA?AVStatus@3@XZ 0000000180022510 f   leveldb:merger.obj
 0001:00021620       ??_GMergingIterator@?A0x1fed6d62@leveldb@@UEAAPEAXI@Z 0000000180022620 f   leveldb:merger.obj
 0001:000216c0       ?FindSmallest@MergingIterator@?A0x1fed6d62@leveldb@@AEAAXXZ 00000001800226c0 f   leveldb:merger.obj
 0001:000217c0       ?FindLargest@MergingIterator@?A0x1fed6d62@leveldb@@AEAAXXZ 00000001800227c0 f   leveldb:merger.obj
 0001:00021ce0       ?TotalFileSize@leveldb@@YA_JAEBV?$vector@PEAUFileMetaData@leveldb@@V?$allocator@PEAUFileMetaData@leveldb@@@std@@@std@@@Z 0000000180022ce0 f   leveldb:version_set.obj
 0001:00021fe0       ?BeforeFile@leveldb@@YA_NPEBVComparator@1@PEBVSlice@1@PEBUFileMetaData@1@@Z 0000000180022fe0 f   leveldb:version_set.obj
 0001:00022580       ?GetFileIterator@leveldb@@YAPEAVIterator@1@PEAXAEBUReadOptions@1@AEBVSlice@1@@Z 0000000180023580 f   leveldb:version_set.obj
 0001:00022630       ?SaveValue@leveldb@@YAXPEAXAEBVSlice@1@1@Z 0000000180023630 f   leveldb:version_set.obj
 0001:000226e0       ?NewestFirst@leveldb@@YA_NPEAUFileMetaData@1@0@Z 00000001800236e0 f   leveldb:version_set.obj
 0001:00026120       ?Corruption@LogReporter@?1??Recover@VersionSet@leveldb@@QEAA?AVStatus@4@PEA_N@Z@UEAAX_KAEBV54@@Z 0000000180027120 f   leveldb:version_set.obj
 0001:00026140       ??_GLogReporter@?1??Recover@VersionSet@leveldb@@QEAA?AVStatus@3@PEA_N@Z@UEAAPEAXI@Z 0000000180027140 f   leveldb:version_set.obj
 0001:0002a520       ?DeleteEntry@leveldb@@YAXAEBVSlice@1@PEAX@Z 000000018002b520 f   leveldb:table_cache.obj
 0001:0002a600       ?UnrefEntry@leveldb@@YAXPEAX0@Z 000000018002b600 f   leveldb:table_cache.obj
 0001:0002a600       ?ReleaseBlock@leveldb@@YAXPEAX0@Z 000000018002b600 f   leveldb:table.obj
 0001:0002bef4       $LN942                     000000018002cef4     leveldb:version_edit.obj
 0001:0002c54c       $LN346                     000000018002d54c     leveldb:log_reader.obj
 0001:0002cd30       ?Valid@EmptyIterator@?A0x38b22730@leveldb@@UEBA_NXZ 000000018002dd30 f   leveldb:iterator.obj
 0001:0002cd40       ?Next@EmptyIterator@?A0x38b22730@leveldb@@UEAAXXZ 000000018002dd40 f   leveldb:iterator.obj
 0001:0002cd60       ?Prev@EmptyIterator@?A0x38b22730@leveldb@@UEAAXXZ 000000018002dd60 f   leveldb:iterator.obj
 0001:0002cd80       ?key@EmptyIterator@?A0x38b22730@leveldb@@UEBA?AVSlice@3@XZ 000000018002dd80 f   leveldb:iterator.obj
 0001:0002cdc0       ?value@EmptyIterator@?A0x38b22730@leveldb@@UEBA?AVSlice@3@XZ 000000018002ddc0 f   leveldb:iterator.obj
 0001:0002ce00       ?status@EmptyIterator@?A0x38b22730@leveldb@@UEBA?AVStatus@3@XZ 000000018002de00 f   leveldb:iterator.obj
 0001:0002ce40       ??_GEmptyIterator@?A0x38b22730@leveldb@@UEAAPEAXI@Z 000000018002de40 f   leveldb:iterator.obj
 0001:0002cfb0       ?Valid@DBIter@?A0x4268f449@leveldb@@UEBA_NXZ 000000018002dfb0 f   leveldb:db_iter.obj
 0001:0002cfc0       ?key@DBIter@?A0x4268f449@leveldb@@UEBA?AVSlice@3@XZ 000000018002dfc0 f   leveldb:db_iter.obj
 0001:0002d080       ?value@DBIter@?A0x4268f449@leveldb@@UEBA?AVSlice@3@XZ 000000018002e080 f   leveldb:db_iter.obj
 0001:0002d110       ?status@DBIter@?A0x4268f449@leveldb@@UEBA?AVStatus@3@XZ 000000018002e110 f   leveldb:db_iter.obj
 0001:0002d170       ?ClearSavedValue@DBIter@?A0x4268f449@leveldb@@AEAAXXZ 000000018002e170 f   leveldb:db_iter.obj
 0001:0002d280       ??_GDBIter@?A0x4268f449@leveldb@@UEAAPEAXI@Z 000000018002e280 f   leveldb:db_iter.obj
 0001:0002d3b0       ?ParseKey@DBIter@?A0x4268f449@leveldb@@AEAA_NPEAUParsedInternalKey@3@@Z 000000018002e3b0 f   leveldb:db_iter.obj
 0001:0002d600       ?Next@DBIter@?A0x4268f449@leveldb@@UEAAXXZ 000000018002e600 f   leveldb:db_iter.obj
 0001:0002d710       ?FindNextUserEntry@DBIter@?A0x4268f449@leveldb@@AEAAX_NPEAV?$basic_string@DU?$char_traits@D@std@@V?$allocator@D@2@@std@@@Z 000000018002e710 f   leveldb:db_iter.obj
 0001:0002d890       ?Prev@DBIter@?A0x4268f449@leveldb@@UEAAXXZ 000000018002e890 f   leveldb:db_iter.obj
 0001:0002da50       ?FindPrevUserEntry@DBIter@?A0x4268f449@leveldb@@AEAAXXZ 000000018002ea50 f   leveldb:db_iter.obj
 0001:0002dcf0       ?Seek@DBIter@?A0x4268f449@leveldb@@UEAAXAEBVSlice@3@@Z 000000018002ecf0 f   leveldb:db_iter.obj
 0001:0002de00       ?SeekToFirst@DBIter@?A0x4268f449@leveldb@@UEAAXXZ 000000018002ee00 f   leveldb:db_iter.obj
 0001:0002de50       ?SeekToLast@DBIter@?A0x4268f449@leveldb@@UEAAXXZ 000000018002ee50 f   leveldb:db_iter.obj
 0001:0002f8d0       ?Name@BytewiseComparatorImpl@?A0x4ae135dc@leveldb@@UEBAPEBDXZ 00000001800308d0 f   leveldb:comparator.obj
 0001:0002f8e0       ?Compare@BytewiseComparatorImpl@?A0x4ae135dc@leveldb@@UEBAHAEBVSlice@3@0@Z 00000001800308e0 f   leveldb:comparator.obj
 0001:0002f940       ?FindShortestSeparator@BytewiseComparatorImpl@?A0x4ae135dc@leveldb@@UEBAXPEAV?$basic_string@DU?$char_traits@D@std@@V?$allocator@D@2@@std@@AEBVSlice@3@@Z 0000000180030940 f   leveldb:comparator.obj
 0001:0002faa0       ?FindShortSuccessor@BytewiseComparatorImpl@?A0x4ae135dc@leveldb@@UEBAXPEAV?$basic_string@DU?$char_traits@D@std@@V?$allocator@D@2@@std@@@Z 0000000180030aa0 f   leveldb:comparator.obj
 0001:0002fb00       ??_GBytewiseComparatorImpl@?A0x4ae135dc@leveldb@@UEAAPEAXI@Z 0000000180030b00 f   leveldb:comparator.obj
 0001:0002fb40       ?InitModule@leveldb@@YAXXZ 0000000180030b40 f   leveldb:comparator.obj
 0001:0002fbe0       ?IOError@leveldb@@YA?AVStatus@1@AEBV?$basic_string@DU?$char_traits@D@std@@V?$allocator@D@2@@std@@K@Z 0000000180030be0 f   leveldb:env_win.obj
 0001:00030550       ?ToWcharFromCodePage@?A0xc882e64b@leveldb@@YAPEA_WPEBDI@Z 0000000180031550 f   leveldb:env_win.obj
 0001:000305e0       ?ToUtf8@?A0xc882e64b@leveldb@@YAPEADPEB_W@Z 00000001800315e0 f   leveldb:env_win.obj
 0001:00030670       ??_GWinFileLock@?A0xc882e64b@leveldb@@UEAAPEAXI@Z 0000000180031670 f   leveldb:env_win.obj
 0001:00030730       ?NewSequentialFile@WinEnv@?A0xc882e64b@leveldb@@UEAA?AVStatus@3@AEBV?$basic_string@DU?$char_traits@D@std@@V?$allocator@D@2@@std@@PEAPEAVSequentialFile@3@@Z 0000000180031730 f   leveldb:env_win.obj
 0001:000308b0       ?NewRandomAccessFile@WinEnv@?A0xc882e64b@leveldb@@UEAA?AVStatus@3@AEBV?$basic_string@DU?$char_traits@D@std@@V?$allocator@D@2@@std@@PEAPEAVRandomAccessFile@3@@Z 00000001800318b0 f   leveldb:env_win.obj
 0001:00030a30       ?NewWritableFile@WinEnv@?A0xc882e64b@leveldb@@UEAA?AVStatus@3@AEBV?$basic_string@DU?$char_traits@D@std@@V?$allocator@D@2@@std@@PEAPEAVWritableFile@3@@Z 0000000180031a30 f   leveldb:env_win.obj
 0001:00030c20       ?FileExists@WinEnv@?A0xc882e64b@leveldb@@UEAA_NAEBV?$basic_string@DU?$char_traits@D@std@@V?$allocator@D@2@@std@@@Z 0000000180031c20 f   leveldb:env_win.obj
 0001:00030cd0       ?GetChildren@WinEnv@?A0xc882e64b@leveldb@@UEAA?AVStatus@3@AEBV?$basic_string@DU?$char_traits@D@std@@V?$allocator@D@2@@std@@PEAV?$vector@V?$basic_string@DU?$char_traits@D@std@@V?$allocator@D@2@@std@@V?$allocator@V?$basic_string@DU?$char_traits@D@std@@V?$allocator@D@2@@std@@@2@@6@@Z 0000000180031cd0 f   leveldb:env_win.obj
 0001:000310d0       ?DeleteFile@WinEnv@?A0xc882e64b@leveldb@@UEAA?AVStatus@3@AEBV?$basic_string@DU?$char_traits@D@std@@V?$allocator@D@2@@std@@@Z 00000001800320d0 f   leveldb:env_win.obj
 0001:000312f0       ?CreateDirRecursive@WinEnv@?A0xc882e64b@leveldb@@QEAA_NPEA_W@Z 00000001800322f0 f   leveldb:env_win.obj
 0001:00031440       ?CreateDir@WinEnv@?A0xc882e64b@leveldb@@UEAA?AVStatus@3@AEBV?$basic_string@DU?$char_traits@D@std@@V?$allocator@D@2@@std@@@Z 0000000180032440 f   leveldb:env_win.obj
 0001:00031570       ?DeleteDir@WinEnv@?A0xc882e64b@leveldb@@UEAA?AVStatus@3@AEBV?$basic_string@DU?$char_traits@D@std@@V?$allocator@D@2@@std@@@Z 0000000180032570 f   leveldb:env_win.obj
 0001:000316a0       ?GetFileSize@WinEnv@?A0xc882e64b@leveldb@@UEAA?AVStatus@3@AEBV?$basic_string@DU?$char_traits@D@std@@V?$allocator@D@2@@std@@PEA_K@Z 00000001800326a0 f   leveldb:env_win.obj
 0001:000319b0       ?RenameFile@WinEnv@?A0xc882e64b@leveldb@@UEAA?AVStatus@3@AEBV?$basic_string@DU?$char_traits@D@std@@V?$allocator@D@2@@std@@0@Z 00000001800329b0 f   leveldb:env_win.obj
 0001:00031c90       ?LockFile@WinEnv@?A0xc882e64b@leveldb@@UEAA?AVStatus@3@AEBV?$basic_string@DU?$char_traits@D@std@@V?$allocator@D@2@@std@@PEAPEAVFileLock@3@@Z 0000000180032c90 f   leveldb:env_win.obj
 0001:00031ee0       ?UnlockFile@WinEnv@?A0xc882e64b@leveldb@@UEAA?AVStatus@3@PEAVFileLock@3@@Z 0000000180032ee0 f   leveldb:env_win.obj
 0001:00032040       ?GetTestDirectory@WinEnv@?A0xc882e64b@leveldb@@UEAA?AVStatus@3@PEAV?$basic_string@DU?$char_traits@D@std@@V?$allocator@D@2@@std@@@Z 0000000180033040 f   leveldb:env_win.obj
 0001:00032360       ?NewLogger@WinEnv@?A0xc882e64b@leveldb@@UEAA?AVStatus@3@AEBV?$basic_string@DU?$char_traits@D@std@@V?$allocator@D@2@@std@@PEAPEAVLogger@3@@Z 0000000180033360 f   leveldb:env_win.obj
 0001:00032480       ?NowMicros@WinEnv@?A0xc882e64b@leveldb@@UEAA_KXZ 0000000180033480 f   leveldb:env_win.obj
 0001:000324b0       ?SleepForMicroseconds@WinEnv@?A0xc882e64b@leveldb@@UEAAXH@Z 00000001800334b0 f   leveldb:env_win.obj
 0001:000324d0       ?BGThreadWrapper@WinEnv@?A0xc882e64b@leveldb@@CAIPEAX@Z 00000001800334d0 f   leveldb:env_win.obj
 0001:000324e0       ??_GWinEnv@?A0xc882e64b@leveldb@@UEAAPEAXI@Z 00000001800334e0 f   leveldb:env_win.obj
 0001:00032630       ?Schedule@WinEnv@?A0xc882e64b@leveldb@@UEAAXP6AXPEAX@Z0@Z 0000000180033630 f   leveldb:env_win.obj
 0001:000327f0       ?BGThread@WinEnv@?A0xc882e64b@leveldb@@AEAAXXZ 00000001800337f0 f   leveldb:env_win.obj
 0001:000328f0       ?StartThreadWrapper@?A0xc882e64b@leveldb@@YAIPEAX@Z 00000001800338f0 f   leveldb:env_win.obj
 0001:00032930       ?StartThread@WinEnv@?A0xc882e64b@leveldb@@UEAAXP6AXPEAX@Z0@Z 0000000180033930 f   leveldb:env_win.obj
 0001:00032990       ??1?$deque@UBGItem@WinEnv@?A0xc882e64b@leveldb@@V?$allocator@UBGItem@WinEnv@?A0xc882e64b@leveldb@@@std@@@std@@QEAA@XZ 0000000180033990 f   leveldb:env_win.obj
 0001:00032a70       ??1?$_Deque_alloc@U?$_Deque_base_types@UBGItem@WinEnv@?A0xc882e64b@leveldb@@V?$allocator@UBGItem@WinEnv@?A0xc882e64b@leveldb@@@std@@@std@@@std@@QEAA@XZ 0000000180033a70 f   leveldb:env_win.obj
 0001:00032aa0       ?_Growmap@?$deque@UBGItem@WinEnv@?A0xc882e64b@leveldb@@V?$allocator@UBGItem@WinEnv@?A0xc882e64b@leveldb@@@std@@@std@@IEAAX_K@Z 0000000180033aa0 f   leveldb:env_win.obj
 0001:00032c80       ?_Xlen@?$deque@UBGItem@WinEnv@?A0xc882e64b@leveldb@@V?$allocator@UBGItem@WinEnv@?A0xc882e64b@leveldb@@@std@@@std@@IEBAXXZ 0000000180033c80 f   leveldb:env_win.obj
 0001:00033880       ?DeleteBlock@leveldb@@YAXPEAX0@Z 0000000180034880 f   leveldb:table.obj
 0001:000338b0       ?DeleteCachedBlock@leveldb@@YAXAEBVSlice@1@PEAX@Z 00000001800348b0 f   leveldb:table.obj
 0001:00033f00       ?Valid@TwoLevelIterator@?A0x2aff70d8@leveldb@@UEBA_NXZ 0000000180034f00 f   leveldb:two_level_iterator.obj
 0001:00033f10       ?key@TwoLevelIterator@?A0x2aff70d8@leveldb@@UEBA?AVSlice@3@XZ 0000000180034f10 f   leveldb:two_level_iterator.obj
 0001:00033f80       ?value@TwoLevelIterator@?A0x2aff70d8@leveldb@@UEBA?AVSlice@3@XZ 0000000180034f80 f   leveldb:two_level_iterator.obj
 0001:00033ff0       ?status@TwoLevelIterator@?A0x2aff70d8@leveldb@@UEBA?AVStatus@3@XZ 0000000180034ff0 f   leveldb:two_level_iterator.obj
 0001:00034110       ??_GTwoLevelIterator@?A0x2aff70d8@leveldb@@UEAAPEAXI@Z 0000000180035110 f   leveldb:two_level_iterator.obj
 0001:00034200       ?Seek@TwoLevelIterator@?A0x2aff70d8@leveldb@@UEAAXAEBVSlice@3@@Z 0000000180035200 f   leveldb:two_level_iterator.obj
 0001:000342a0       ?SeekToFirst@TwoLevelIterator@?A0x2aff70d8@leveldb@@UEAAXXZ 00000001800352a0 f   leveldb:two_level_iterator.obj
 0001:00034320       ?SeekToLast@TwoLevelIterator@?A0x2aff70d8@leveldb@@UEAAXXZ 0000000180035320 f   leveldb:two_level_iterator.obj
 0001:000343a0       ?Next@TwoLevelIterator@?A0x2aff70d8@leveldb@@UEAAXXZ 00000001800353a0 f   leveldb:two_level_iterator.obj
 0001:00034430       ?Prev@TwoLevelIterator@?A0x2aff70d8@leveldb@@UEAAXXZ 0000000180035430 f   leveldb:two_level_iterator.obj
 0001:000344c0       ?SkipEmptyDataBlocksForward@TwoLevelIterator@?A0x2aff70d8@leveldb@@AEAAXXZ 00000001800354c0 f   leveldb:two_level_iterator.obj
 0001:000345a0       ?SkipEmptyDataBlocksBackward@TwoLevelIterator@?A0x2aff70d8@leveldb@@AEAAXXZ 00000001800355a0 f   leveldb:two_level_iterator.obj
 0001:00034680       ?SetDataIterator@TwoLevelIterator@?A0x2aff70d8@leveldb@@AEAAXPEAVIterator@3@@Z 0000000180035680 f   leveldb:two_level_iterator.obj
 0001:00034770       ?InitDataBlock@TwoLevelIterator@?A0x2aff70d8@leveldb@@AEAAXXZ 0000000180035770 f   leveldb:two_level_iterator.obj
 0001:00036120       ?DecodeEntry@leveldb@@YAPEBDPEBD0PEAI11@Z 0000000180037120 f   leveldb:block.obj
 0001:00036d00       ?IncrementalCopy@?A0xebf6632f@snappy@@YAPEADPEBDPEADQEAD2@Z 0000000180037d00 f   snappy:snappy.obj
 0001:00036e50       ?EmitLiteral@snappy@@YAPEADPEADPEBDH_N@Z 0000000180037e50 f   snappy:snappy.obj
 0001:00036f50       ?EmitCopyAtMost64@snappy@@YAPEADPEAD_K1_N@Z 0000000180037f50 f   snappy:snappy.obj
 0001:00038740       $$000000                   0000000180039740     LIBCMT:amdsecgs.obj
 0001:00038ba4       ?dllmain_crt_dispatch@@YAHQEAUHINSTANCE__@@KQEAX@Z 0000000180039ba4 f   LIBCMT:dll_dllmain.obj
 0001:00038bf4       ?dllmain_crt_process_attach@@YAHQEAUHINSTANCE__@@QEAX@Z 0000000180039bf4 f   LIBCMT:dll_dllmain.obj
 0001:00038d10       ?dllmain_crt_process_detach@@YAH_N@Z 0000000180039d10 f   LIBCMT:dll_dllmain.obj
 0001:00038da0       ?dllmain_dispatch@@YAHQEAUHINSTANCE__@@KQEAX@Z 0000000180039da0 f   LIBCMT:dll_dllmain.obj
 0001:0003905c       ?__scrt_initialize_thread_safe_statics@@YAHXZ 000000018003a05c f   LIBCMT:thread_safe_statics.obj
 0001:000391bc       ?__scrt_uninitialize_thread_safe_statics@@YAXXZ 000000018003a1bc f   LIBCMT:thread_safe_statics.obj
 0001:00039588       capture_current_context    000000018003a588 f   LIBCMT:gs_report.obj
 0001:000395f8       capture_previous_context   000000018003a5f8 f   LIBCMT:gs_report.obj
 0001:0003a850       $$000000                   000000018003b850     libvcruntime:memset.obj
 0001:0003a94c       MsetTab                    000000018003b94c     libvcruntime:memset.obj
 0001:0003ad40       ??$BuildCatchObjectHelperInternal@V__FrameHandler3@@@@YAHPEAUEHExceptionRecord@@PEAXPEBU_s_HandlerType@@PEBU_s_CatchableType@@@Z 000000018003bd40 f   libvcruntime:frame.obj
 0001:0003af40       ??$BuildCatchObjectInternal@V__FrameHandler3@@@@YAXPEAUEHExceptionRecord@@PEAXPEBU_s_HandlerType@@PEBU_s_CatchableType@@@Z 000000018003bf40 f   libvcruntime:frame.obj
 0001:0003b000       ??$CatchIt@V__FrameHandler3@@@@YAXPEAUEHExceptionRecord@@PEA_KPEAU_CONTEXT@@PEAU_xDISPATCHER_CONTEXT@@PEBU_s_FuncInfo@@PEBU_s_HandlerType@@PEBU_s_CatchableType@@PEBU_s_TryBlockMapEntry@@H1EE@Z 000000018003c000 f   libvcruntime:frame.obj
 0001:0003b0d0       ??$FindHandler@V__FrameHandler3@@@@YAXPEAUEHExceptionRecord@@PEA_KPEAU_CONTEXT@@PEAU_xDISPATCHER_CONTEXT@@PEBU_s_FuncInfo@@EH1@Z 000000018003c0d0 f   libvcruntime:frame.obj
 0001:0003b534       ??$FindHandlerForForeignException@V__FrameHandler3@@@@YAXPEAUEHExceptionRecord@@PEA_KPEAU_CONTEXT@@PEAU_xDISPATCHER_CONTEXT@@PEBU_s_FuncInfo@@HH1@Z 000000018003c534 f   libvcruntime:frame.obj
 0001:0003bd3c       ?ExFilterRethrow@@YAHPEAU_EXCEPTION_POINTERS@@PEAUEHExceptionRecord@@PEAH@Z 000000018003cd3c f   libvcruntime:frame.obj
 0001:0003bff0       ?IsInExceptionSpec@@YAEPEAUEHExceptionRecord@@PEBU_s_ESTypeList@@@Z 000000018003cff0 f   libvcruntime:frame.obj
 0001:0003c0c8       ?Is_bad_exception_allowed@@YAEPEBU_s_ESTypeList@@@Z 000000018003d0c8 f   libvcruntime:frame.obj
 0001:0003c208       ?try_get_function@@YAPEAXW4function_id@?A0xbfd18cd1@@QEBDQEBW4module_id@2@2@Z 000000018003d208 f   libvcruntime:winapi_downlevel.obj
 0001:0003c5e0       $$000000                   000000018003d5e0     libvcruntime:notify.obj
 0001:0003c660       $$000000                   000000018003d660     libvcruntime:handlers.obj
 0001:0003c710       $$000000                   000000018003d710     libvcruntime:memcpy.obj
 0001:0003c7c7       MoveSmall                  000000018003d7c7     libvcruntime:memcpy.obj
 0001:0003cb78       ??$common_assert_to_message_box@_W@@YAXQEB_W0IQEAX@Z 000000018003db78 f   libucrt:assert.obj
 0001:0003cc3c       ??$common_assert_to_message_box_build_string@_W@@YAXQEA_W_KQEB_W2IQEAX@Z 000000018003dc3c f   libucrt:assert.obj
 0001:0003d3fc       ??$common_assert_to_stderr@_W@@YAXQEB_W0I@Z 000000018003e3fc f   libucrt:assert.obj
 0001:0003d56c       ?get_assert_format@@YAPEB_W_W@Z 000000018003e56c f   libucrt:assert.obj
 0001:0003db24       ??$?RV<lambda_0d412022a4b28cc8a401ea49574e8ae6>@@AEAV<lambda_a775ed57af18ba8e4d5dc780aa9068fe>@@V<lambda_975a71a6baa488a08f4e15f6b0339b9e>@@@?$__crt_seh_guarded_call@H@@QEAAH$$QEAV<lambda_0d412022a4b28cc8a401ea49574e8ae6>@@AEAV<lambda_a775ed57af18ba8e4d5dc780aa9068fe>@@$$QEAV<lambda_975a71a6baa488a08f4e15f6b0339b9e>@@@Z 000000018003eb24 f   libucrt:output.obj
 0001:0003db64       ??$?RV<lambda_a62c933ada0517137acf5807a1eeac1f>@@AEAV<lambda_a31071773b9a94e445cbd5d04ef99106>@@V<lambda_56065050dbf3ada7e59a83db45153de3>@@@?$__crt_seh_guarded_call@H@@QEAAH$$QEAV<lambda_a62c933ada0517137acf5807a1eeac1f>@@AEAV<lambda_a31071773b9a94e445cbd5d04ef99106>@@$$QEAV<lambda_56065050dbf3ada7e59a83db45153de3>@@@Z 000000018003eb64 f   libucrt:output.obj
 0001:0003dba4       ??$common_vsprintf@Vformat_validation_base@__crt_stdio_output@@D@@YAH_KQEAD0QEBDQEAU__crt_locale_pointers@@1@Z 000000018003eba4 f   libucrt:output.obj
 0001:0003dd70       ??$common_vsprintf@Vstandard_base@__crt_stdio_output@@D@@YAH_KQEAD0QEBDQEAU__crt_locale_pointers@@1@Z 000000018003ed70 f   libucrt:output.obj
 0001:0003df3c       ??$common_vsprintf@Vstandard_base@__crt_stdio_output@@_W@@YAH_KQEA_W0QEB_WQEAU__crt_locale_pointers@@QEAD@Z 000000018003ef3c f   libucrt:output.obj
 0001:0003e6d4       ??R<lambda_a31071773b9a94e445cbd5d04ef99106>@@QEBAHXZ 000000018003f6d4 f   libucrt:output.obj
 0001:0003e804       ??R<lambda_a775ed57af18ba8e4d5dc780aa9068fe>@@QEBAHXZ 000000018003f804 f   libucrt:output.obj
 0001:00042204       ??$thread_start@P6AIPEAX@Z@@YAKQEAX@Z 0000000180043204 f   libucrt:thread.obj
 0001:0004226c       ?common_end_thread@@YAXI@Z 000000018004326c f   libucrt:thread.obj
 0001:000422e0       ?create_thread_parameter@@YAPEAU__acrt_thread_parameter@@QEAX0@Z 00000001800432e0 f   libucrt:thread.obj
 0001:00042420       ??$common_fsopen@D@@YAPEAU_iobuf@@QEBD0H@Z 0000000180043420 f   libucrt:fopen.obj
 0001:00042748       ??$?RV<lambda_842d9ff0dc9ef11c61343bbaebe7f885>@@AEAV<lambda_c5860995281e5c4ce005b3de8f5874ee>@@V<lambda_d90129c13df834fdcbf8d2b88dafcf2d>@@@?$__crt_seh_guarded_call@X@@QEAAX$$QEAV<lambda_842d9ff0dc9ef11c61343bbaebe7f885>@@AEAV<lambda_c5860995281e5c4ce005b3de8f5874ee>@@$$QEAV<lambda_d90129c13df834fdcbf8d2b88dafcf2d>@@@Z 0000000180043748 f   libucrt:fflush.obj
 0001:000427e4       ??$?RV<lambda_886d6c58226a84441f68b9f2b8217b83>@@AEAV<lambda_ab61a845afdef5b7c387490eaf3616ee>@@V<lambda_f7f22ab5edc0698d5f6905b0d3f44752>@@@?$__crt_seh_guarded_call@X@@QEAAX$$QEAV<lambda_886d6c58226a84441f68b9f2b8217b83>@@AEAV<lambda_ab61a845afdef5b7c387490eaf3616ee>@@$$QEAV<lambda_f7f22ab5edc0698d5f6905b0d3f44752>@@@Z 00000001800437e4 f   libucrt:fflush.obj
 0001:000428cc       ??$?RV<lambda_c376a267cfb53b6959b3b692ec76b120>@@AEAV<lambda_9a32fed5bf61b6b509b2d3f6003082a1>@@V<lambda_572fbb9fa0ab338edf41edfd4b5fcc8d>@@@?$__crt_seh_guarded_call@H@@QEAAH$$QEAV<lambda_c376a267cfb53b6959b3b692ec76b120>@@AEAV<lambda_9a32fed5bf61b6b509b2d3f6003082a1>@@$$QEAV<lambda_572fbb9fa0ab338edf41edfd4b5fcc8d>@@@Z 00000001800438cc f   libucrt:fflush.obj
 0001:0004290c       ?common_flush_all@@YAH_N@Z 000000018004390c f   libucrt:fflush.obj
 0001:00042aa4       ??$?RV<lambda_bdbcead8b570fa3d5ec6d9679862a6e5>@@AEAV<lambda_96f4279ff90247a4c5c5d9824f56f8c1>@@V<lambda_4606be27f17b5e5579e09050fab91818>@@@?$__crt_seh_guarded_call@_K@@QEAA_K$$QEAV<lambda_bdbcead8b570fa3d5ec6d9679862a6e5>@@AEAV<lambda_96f4279ff90247a4c5c5d9824f56f8c1>@@$$QEAV<lambda_4606be27f17b5e5579e09050fab91818>@@@Z 0000000180043aa4 f   libucrt:fwrite.obj
 0001:00042ae4       ??R<lambda_96f4279ff90247a4c5c5d9824f56f8c1>@@QEBA_KXZ 0000000180043ae4 f   libucrt:fwrite.obj
 0001:00042f70       ??$?RV<lambda_d80eeec6fff315bfe5c115232f3240e3>@@AEAV<lambda_6e4b09c48022b2350581041d5f6b0c4c>@@V<lambda_2358e3775559c9db80273638284d5e45>@@@?$__crt_seh_guarded_call@X@@QEAAX$$QEAV<lambda_d80eeec6fff315bfe5c115232f3240e3>@@AEAV<lambda_6e4b09c48022b2350581041d5f6b0c4c>@@$$QEAV<lambda_2358e3775559c9db80273638284d5e45>@@@Z 0000000180043f70 f   libucrt:exit.obj
 0001:00042fa8       ??R<lambda_6e4b09c48022b2350581041d5f6b0c4c>@@QEBA@XZ 0000000180043fa8 f   libucrt:exit.obj
 0001:00043080       ?atexit_exception_filter@@YAHK@Z 0000000180044080 f   libucrt:exit.obj
 0001:0004308c       ?common_exit@@YAXHW4_crt_exit_cleanup_mode@@W4_crt_exit_return_mode@@@Z 000000018004408c f   libucrt:exit.obj
 0001:00043148       ?exit_or_terminate_process@@YAXI@Z 0000000180044148 f   libucrt:exit.obj
 0001:00043194       ?try_cor_exit_process@@YAXI@Z 0000000180044194 f   libucrt:exit.obj
 0001:0004321c       ??$parse_command_line@D@@YAXPEADPEAPEAD0PEA_K2@Z 000000018004421c f   libucrt:argv_parsing.obj
 0001:000435c0       ??$common_initialize_environment_nolock@D@@YAHXZ 00000001800445c0 f   libucrt:environment_initialization.obj
 0001:0004362c       ??$create_environment@D@@YAQEAPEADQEAD@Z 000000018004462c f   libucrt:environment_initialization.obj
 0001:00043738       ??$free_environment@_W@@YAXQEAPEA_W@Z 0000000180044738 f   libucrt:environment_initialization.obj
 0001:00043738       ??$free_environment@D@@YAXQEAPEAD@Z 0000000180044738 f   libucrt:environment_initialization.obj
 0001:0004377c       ??$uninitialize_environment_internal@D@@YAXAEAPEAPEAD@Z 000000018004477c f   libucrt:environment_initialization.obj
 0001:00043798       ??$uninitialize_environment_internal@_W@@YAXAEAPEAPEA_W@Z 0000000180044798 f   libucrt:environment_initialization.obj
 0001:000437f4       ??$?RV<lambda_7777bce6b2f8c936911f934f8298dc43>@@AEAV<lambda_f03950bc5685219e0bcd2087efbe011e>@@V<lambda_3883c3dff614d5e0c5f61bb1ac94921c>@@@?$__crt_seh_guarded_call@H@@QEAAH$$QEAV<lambda_7777bce6b2f8c936911f934f8298dc43>@@AEAV<lambda_f03950bc5685219e0bcd2087efbe011e>@@$$QEAV<lambda_3883c3dff614d5e0c5f61bb1ac94921c>@@@Z 00000001800447f4 f   libucrt:onexit.obj
 0001:00043830       ??$?RV<lambda_8369fcb7c4df1e85de37618bd2b85f07>@@AEAV<lambda_a10e4b102d4a2c3aac6f4f48bbdf488f>@@V<lambda_5b7707bd6d7a0c4713179f36c7fd995d>@@@?$__crt_seh_guarded_call@H@@QEAAH$$QEAV<lambda_8369fcb7c4df1e85de37618bd2b85f07>@@AEAV<lambda_a10e4b102d4a2c3aac6f4f48bbdf488f>@@$$QEAV<lambda_5b7707bd6d7a0c4713179f36c7fd995d>@@@Z 0000000180044830 f   libucrt:onexit.obj
 0001:0004386c       ??R<lambda_a10e4b102d4a2c3aac6f4f48bbdf488f>@@QEBAHXZ 000000018004486c f   libucrt:onexit.obj
 0001:00043a30       ??R<lambda_f03950bc5685219e0bcd2087efbe011e>@@QEBAHXZ 0000000180044a30 f   libucrt:onexit.obj
 0001:00043c50       initialize_global_variables 0000000180044c50 f   libucrt:initialization.obj
 0001:00043c64       initialize_c               0000000180044c64 f   libucrt:initialization.obj
 0001:00043c88       uninitialize_c             0000000180044c88 f   libucrt:initialization.obj
 0001:00043c88       report_memory_leaks        0000000180044c88 f   libucrt:initialization.obj
 0001:00043c88       initialize_environment     0000000180044c88 f   libucrt:initialization.obj
 0001:00043c88       uninitialize_global_state_isolation 0000000180044c88 f   libucrt:initialization.obj
 0001:00043c88       initialize_global_state_isolation 0000000180044c88 f   libucrt:initialization.obj
 0001:00043c8c       uninitialize_environment   0000000180044c8c f   libucrt:initialization.obj
 0001:00043c9c       initialize_pointers        0000000180044c9c f   libucrt:initialization.obj
 0001:00043cf0       uninitialize_vcruntime     0000000180044cf0 f   libucrt:initialization.obj
 0001:00043cf8       uninitialize_allocated_memory 0000000180044cf8 f   libucrt:initialization.obj
 0001:00043d38       uninitialize_allocated_io_buffers 0000000180044d38 f   libucrt:initialization.obj
 0001:00044950       $$000000                   0000000180045950     libucrt:strncmp.obj
 0001:000449e8       ??$common_xtox@K_W@@YAHKQEA_W_KI_N@Z 00000001800459e8 f   libucrt:xtoa.obj
 0001:00044a90       ??$common_xtox_s@K_W@@YAHKQEA_W_KI_N@Z 0000000180045a90 f   libucrt:xtoa.obj
 0001:00044de8       ??$?RV<lambda_84ec643ea9557e2f7dc01bb0e9624395>@@AEAV<lambda_ca71763b3c0644891230e4f79ea54fa6>@@V<lambda_439a761618c59b0600e24586724d733b>@@@?$__crt_seh_guarded_call@H@@QEAAH$$QEAV<lambda_84ec643ea9557e2f7dc01bb0e9624395>@@AEAV<lambda_ca71763b3c0644891230e4f79ea54fa6>@@$$QEAV<lambda_439a761618c59b0600e24586724d733b>@@@Z 0000000180045de8 f   libucrt:setvbuf.obj
 0001:00044e28       ??R<lambda_ca71763b3c0644891230e4f79ea54fa6>@@QEBAHXZ 0000000180045e28 f   libucrt:setvbuf.obj
 0001:00044fb4       ??$?RV<lambda_450d765d439847d4c735a33c368b5fc0>@@AEAV<lambda_44731a7d0e6d81c3e6aa82d741081786>@@V<lambda_601a2a7da3b7a96e9554ac7215c4b07c>@@@?$__crt_seh_guarded_call@P6AXH@Z@@QEAAP6AXH@Z$$QEAV<lambda_450d765d439847d4c735a33c368b5fc0>@@AEAV<lambda_44731a7d0e6d81c3e6aa82d741081786>@@$$QEAV<lambda_601a2a7da3b7a96e9554ac7215c4b07c>@@@Z 0000000180045fb4 f   libucrt:signal.obj
 0001:000452c0       ??$?RV<lambda_0ae27a3a962d80f24befdcbee591983d>@@AEAV<lambda_8d0ee55de4b1038c4002e0adecdf1839>@@V<lambda_dc504788e8f1664fe9b84e20bfb512f2>@@@?$__crt_seh_guarded_call@X@@QEAAX$$QEAV<lambda_0ae27a3a962d80f24befdcbee591983d>@@AEAV<lambda_8d0ee55de4b1038c4002e0adecdf1839>@@$$QEAV<lambda_dc504788e8f1664fe9b84e20bfb512f2>@@@Z 00000001800462c0 f   libucrt:per_thread_data.obj
 0001:00045300       ??$?RV<lambda_2d41944a1d46af3157314b8a01080d33>@@AEAV<lambda_8f455de75cd7d7f24b4096f044d8b9e6>@@V<lambda_aa500f224e6afead328df44964fe2772>@@@?$__crt_seh_guarded_call@X@@QEAAX$$QEAV<lambda_2d41944a1d46af3157314b8a01080d33>@@AEAV<lambda_8f455de75cd7d7f24b4096f044d8b9e6>@@$$QEAV<lambda_aa500f224e6afead328df44964fe2772>@@@Z 0000000180046300 f   libucrt:per_thread_data.obj
 0001:00045340       ??$?RV<lambda_aa87e3671a710a21b5dc78c0bdf72e11>@@AEAV<lambda_92619d2358a28f41a33ba319515a20b9>@@V<lambda_6992ecaafeb10aed2b74cb1fae11a551>@@@?$__crt_seh_guarded_call@X@@QEAAX$$QEAV<lambda_aa87e3671a710a21b5dc78c0bdf72e11>@@AEAV<lambda_92619d2358a28f41a33ba319515a20b9>@@$$QEAV<lambda_6992ecaafeb10aed2b74cb1fae11a551>@@@Z 0000000180046340 f   libucrt:per_thread_data.obj
 0001:00045388       ??$?RV<lambda_f2e299630e499de9f9a165e60fcd3db5>@@AEAV<lambda_2ae9d31cdba2644fcbeaf08da7c24588>@@V<lambda_40d01ff24d0e7b3814fdbdcee8eab3c7>@@@?$__crt_seh_guarded_call@X@@QEAAX$$QEAV<lambda_f2e299630e499de9f9a165e60fcd3db5>@@AEAV<lambda_2ae9d31cdba2644fcbeaf08da7c24588>@@$$QEAV<lambda_40d01ff24d0e7b3814fdbdcee8eab3c7>@@@Z 0000000180046388 f   libucrt:per_thread_data.obj
 0001:000453e8       ?construct_ptd_array@@YAXQEAU__acrt_ptd@@@Z 00000001800463e8 f   libucrt:per_thread_data.obj
 0001:000454b8       ?destroy_fls@@YAXPEAX@Z    00000001800464b8 f   libucrt:per_thread_data.obj
 0001:000454d8       ?destroy_ptd_array@@YAXQEAU__acrt_ptd@@@Z 00000001800464d8 f   libucrt:per_thread_data.obj
 0001:000455d0       ?replace_current_thread_locale_nolock@@YAXQEAU__acrt_ptd@@QEAU__crt_locale_data@@@Z 00000001800465d0 f   libucrt:per_thread_data.obj
 0001:000459c0       ?internal_isupper_l@@YA_NHQEAU__crt_locale_pointers@@@Z 00000001800469c0 f   libucrt:tolower_toupper.obj
 0001:00045bd8       ??$?RV<lambda_410d79af7f07d98d83a3f525b3859a53>@@AEAV<lambda_3e16ef9562a7dcce91392c22ab16ea36>@@V<lambda_38119f0e861e05405d8a144b9b982f0a>@@@?$__crt_seh_guarded_call@X@@QEAAX$$QEAV<lambda_410d79af7f07d98d83a3f525b3859a53>@@AEAV<lambda_3e16ef9562a7dcce91392c22ab16ea36>@@$$QEAV<lambda_38119f0e861e05405d8a144b9b982f0a>@@@Z 0000000180046bd8 f   libucrt:wsetlocale.obj
 0001:00046344       ?fp_format_a@@YAHQEBNPEAD_KQEAD2H_NIQEAU__crt_locale_pointers@@@Z 0000000180047344 f   libucrt:cvt.obj
 0001:00046698       ?fp_format_e@@YAHQEBNQEAD_K12H_NIQEAU__crt_locale_pointers@@@Z 0000000180047698 f   libucrt:cvt.obj
 0001:00046774       ?fp_format_e_internal@@YAHQEAD_KH_NIQEAU_strflt@@2QEAU__crt_locale_pointers@@@Z 0000000180047774 f   libucrt:cvt.obj
 0001:00046948       ?fp_format_f_internal@@YAHQEAD_KHQEAU_strflt@@_NQEAU__crt_locale_pointers@@@Z 0000000180047948 f   libucrt:cvt.obj
 0001:00046a90       ?fp_format_g@@YAHQEBNQEAD_K12H_NIQEAU__crt_locale_pointers@@@Z 0000000180047a90 f   libucrt:cvt.obj
 0001:00046bc4       ?fp_format_nan_or_infinity@@YAHW4__acrt_fp_class@@_NPEAD_K1@Z 0000000180047bc4 f   libucrt:cvt.obj
 0001:00047264       ?initialize_inherited_file_handles_nolock@@YAXXZ 0000000180048264 f   libucrt:ioinit.obj
 0001:00047350       ?initialize_stdio_handles_nolock@@YAXXZ 0000000180048350 f   libucrt:ioinit.obj
 0001:00047540       ?try_get_function@@YAPEAXW4function_id@?A0x391cf84c@@QEBDQEBW4module_id@2@2@Z 0000000180048540 f   libucrt:winapi_thunks.obj
 0001:00048138       ?find_or_allocate_unused_stream_nolock@@YA?AV__crt_stdio_stream@@XZ 0000000180049138 f   libucrt:stream.obj
 0001:0004856c       ??$?RV<lambda_751a882b2c74d4b022dec766aa51a29a>@@AEAV<lambda_628dfdc04ba53c8bfc02c9951375f3f5>@@V<lambda_f6c7be5f7998530c34de24c7437d6b54>@@@?$__crt_seh_guarded_call@H@@QEAAH$$QEAV<lambda_751a882b2c74d4b022dec766aa51a29a>@@AEAV<lambda_628dfdc04ba53c8bfc02c9951375f3f5>@@$$QEAV<lambda_f6c7be5f7998530c34de24c7437d6b54>@@@Z 000000018004956c f   libucrt:close.obj
 0001:000488dc       ??$?RV<lambda_a37b2b86f63e897a80ea819b0eb08c01>@@AEAV<lambda_38ce7e780aa69e748d6df282ebc68efe>@@V<lambda_99fb1378e971ab6e7edea83e3a7a83a2>@@@?$__crt_seh_guarded_call@H@@QEAAH$$QEAV<lambda_a37b2b86f63e897a80ea819b0eb08c01>@@AEAV<lambda_38ce7e780aa69e748d6df282ebc68efe>@@$$QEAV<lambda_99fb1378e971ab6e7edea83e3a7a83a2>@@@Z 00000001800498dc f   libucrt:commit.obj
 0001:000489fc       ?write_double_translated_ansi_nolock@@YA?AUwrite_result@?A0x17268360@@HQEBDI@Z 00000001800499fc f   libucrt:write.obj
 0001:00048c20       ?write_text_ansi_nolock@@YA?AUwrite_result@?A0x17268360@@HQEBDI@Z 0000000180049c20 f   libucrt:write.obj
 0001:00048d24       ?write_text_utf16le_nolock@@YA?AUwrite_result@?A0x17268360@@HQEBDI@Z 0000000180049d24 f   libucrt:write.obj
 0001:00048e40       ?write_text_utf8_nolock@@YA?AUwrite_result@?A0x17268360@@HQEBDI@Z 0000000180049e40 f   libucrt:write.obj
 0001:000493e4       ??$write_buffer_nolock@D@@YA_NDV__crt_stdio_stream@@@Z 000000018004a3e4 f   libucrt:_flsbuf.obj
 0001:000494c4       ??$write_buffer_nolock@_W@@YA_N_WV__crt_stdio_stream@@@Z 000000018004a4c4 f   libucrt:_flsbuf.obj
 0001:0004977c       ?<lambda_invoker_cdecl>@<lambda_c2303d2482d7c3675ea2e24c4cfb6115>@@CAHPEBX0@Z 000000018004a77c f   libucrt:argv_wildcards.obj
 0001:00049790       ??$common_expand_argv_wildcards@D@@YAHQEAPEADQEAPEAPEAD@Z 000000018004a790 f   libucrt:argv_wildcards.obj
 0001:0004999c       ??$copy_and_add_argument_to_buffer@D@@YAHQEBD0_KAEAV?$argument_list@D@?A0x5f5c8891@@@Z 000000018004a99c f   libucrt:argv_wildcards.obj
 0001:00049b34       ??$expand_argument_wildcards@D@@YAHQEAD0AEAV?$argument_list@D@?A0x5f5c8891@@@Z 000000018004ab34 f   libucrt:argv_wildcards.obj
 0001:00049ce8       ??$?RV<lambda_efdfa57d1f175319df784efa44bb7b81>@@AEAV<lambda_5f0a4c1567f8adc6734073e5d1e1b35c>@@V<lambda_2e8a7d3640ea6ccb4c2413664c2db6fd>@@@?$__crt_seh_guarded_call@X@@QEAAX$$QEAV<lambda_efdfa57d1f175319df784efa44bb7b81>@@AEAV<lambda_5f0a4c1567f8adc6734073e5d1e1b35c>@@$$QEAV<lambda_2e8a7d3640ea6ccb4c2413664c2db6fd>@@@Z 000000018004ace8 f   libucrt:mbctype.obj
 0001:00049ebc       ?getSystemCP@@YAHH@Z       000000018004aebc f   libucrt:mbctype.obj
 0001:00049f3c       ?setSBCS@@YAXPEAU__crt_multibyte_data@@@Z 000000018004af3c f   libucrt:mbctype.obj
 0001:00049fcc       ?setSBUpLow@@YAXPEAU__crt_multibyte_data@@@Z 000000018004afcc f   libucrt:mbctype.obj
 0001:0004a1ac       ?setmbcp_internal@@YAHH_NQEAU__acrt_ptd@@QEAPEAU__crt_multibyte_data@@@Z 000000018004b1ac f   libucrt:mbctype.obj
 0001:0004a370       ?update_thread_multibyte_data_internal@@YAPEAU__crt_multibyte_data@@QEAU__acrt_ptd@@QEAPEAU1@@Z 000000018004b370 f   libucrt:mbctype.obj
 0001:0004a764       ?x_ismbbtype_l@@YAHPEAU__crt_locale_pointers@@IHH@Z 000000018004b764 f   libucrt:ismbbyte.obj
 0001:0004b0fc       ?__acrt_LCMapStringA_stat@@YAHPEAU__crt_locale_pointers@@PEB_WKPEBDHPEADHHH@Z 000000018004c0fc f   libucrt:lcmapstringa.obj
 0001:0004b624       ?free_crt_array_internal@@YAXQEAPEBX_K@Z 000000018004c624 f   libucrt:inittime.obj
 0001:0004d1c8       memcpy_s                   000000018004e1c8 f   libucrt:cfout.obj
 0001:0004d7a0       ?GetTableIndexFromLocaleName@@YAHPEB_W@Z 000000018004e7a0 f   libucrt:lcidtoname_downlevel.obj
 0001:0004da28       ??$common_sopen_dispatch@D@@YAHQEBDHHHQEAHH@Z 000000018004ea28 f   libucrt:open.obj
 0001:0004daec       ?configure_text_mode@@YAHHUfile_options@?A0xa9d50aae@@HAEAW4__crt_lowio_text_mode@@@Z 000000018004eaec f   libucrt:open.obj
 0001:0004dd80       ?decode_options@@YA?AUfile_options@?A0xa9d50aae@@HHH@Z 000000018004ed80 f   libucrt:open.obj
 0001:0004df88       ?truncate_ctrl_z_if_present@@YAHH@Z 000000018004ef88 f   libucrt:open.obj
 0001:0004e4fc       ??$common_lseek@_J@@YA_JH_JH@Z 000000018004f4fc f   libucrt:lseek.obj
 0001:0004e5ec       ??$common_lseek_nolock@_J@@YA_JH_JH@Z 000000018004f5ec f   libucrt:lseek.obj
 0001:0004eaf0       fallbackMethod             000000018004faf0 f   libucrt:strpbrk.obj
 0001:0004eeb4       $LN78                      000000018004feb4     libucrt:strpbrk.obj
 0001:0004eef0       $LN77                      000000018004fef0     libucrt:strpbrk.obj
 0001:0004ef30       $LN76                      000000018004ff30     libucrt:strpbrk.obj
 0001:0004f008       ?initialize_multibyte@@YAHXZ 0000000180050008 f   libucrt:multibyte_initializer.obj
 0001:0004f290       $$000000                   0000000180050290     libucrt:log10.obj
 0001:0004fbc0       ??$translate_text_mode_nolock@D@@YAHHQEAD_K@Z 0000000180050bc0 f   libucrt:read.obj
 0001:0004fd7c       ??$translate_text_mode_nolock@_W@@YAHHQEA_W_K@Z 0000000180050d7c f   libucrt:read.obj
 0001:0004ffb4       ?translate_ansi_or_utf8_nolock@@YAHHQEAD_KQEA_W1@Z 0000000180050fb4 f   libucrt:read.obj
 0001:00050aac       _call_matherr              0000000180051aac f   libucrt:libm_error.obj
 0001:00050b14       _exception_enabled         0000000180051b14 f   libucrt:libm_error.obj
 0001:00050db0       _log_special_common        0000000180051db0 f   libucrt:log_special.obj
 0001:00050e50       $$000000                   0000000180051e50     libucrt:fpsr.obj
 0001:00051b10       $$000000                   0000000180052b10     LIBCMT:chkstk.obj
 0001:00051b80       $$000000                   0000000180052b80     libvcruntime:memcmp.obj
 0001:00051ce0       $$000000                   0000000180052ce0     LIBCMT:guard_dispatch.obj
 0001:00051d00       ?dtor$0@?0??New@?$Factory@VFunctionTemplate@v8@@@imp@Nan@@SA?AV?$Local@VFunctionTemplate@v8@@@v8@@P6AXAEBV?$FunctionCallbackInfo@VValue@v8@@@3@@ZV?$Local@VValue@v8@@@5@V?$Local@VSignature@v8@@@5@@Z@4HA 0000000180052d00 f   batch.obj
 0001:00051d0e       ?dtor$1@?0??New@?$Factory@VFunctionTemplate@v8@@@imp@Nan@@SA?AV?$Local@VFunctionTemplate@v8@@@v8@@P6AXAEBV?$FunctionCallbackInfo@VValue@v8@@@3@@ZV?$Local@VValue@v8@@@5@V?$Local@VSignature@v8@@@5@@Z@4HA 0000000180052d0e f   batch.obj
 0001:00051d1c       ?dtor$2@?0??New@?$Factory@VFunctionTemplate@v8@@@imp@Nan@@SA?AV?$Local@VFunctionTemplate@v8@@@v8@@P6AXAEBV?$FunctionCallbackInfo@VValue@v8@@@3@@ZV?$Local@VValue@v8@@@5@V?$Local@VSignature@v8@@@5@@Z@4HA 0000000180052d1c f   batch.obj
 0001:00051d2a       ?dtor$3@?0??New@?$Factory@VFunctionTemplate@v8@@@imp@Nan@@SA?AV?$Local@VFunctionTemplate@v8@@@v8@@P6AXAEBV?$FunctionCallbackInfo@VValue@v8@@@3@@ZV?$Local@VValue@v8@@@5@V?$Local@VSignature@v8@@@5@@Z@4HA 0000000180052d2a f   batch.obj
 0001:00051d40       ?dtor$0@?0???1EscapableHandleScope@Nan@@QEAA@XZ@4HA 0000000180052d40 f   batch.obj
 0001:00051d4e       ?dtor$1@?0???1EscapableHandleScope@Nan@@QEAA@XZ@4HA 0000000180052d4e f   batch.obj
 0001:00051d60       ?dtor$1@?0??SaveToPersistent@AsyncWorker@Nan@@QEAAXPEBDAEBV?$Local@VValue@v8@@@v8@@@Z@4HA 0000000180052d60 f   batch.obj
 0001:00051d60       ?dtor$1@?0??SetPrototypeMethod@Nan@@YAXV?$Local@VFunctionTemplate@v8@@@v8@@PEBDP6AXAEBV?$FunctionCallbackInfo@VValue@v8@@@1@@Z@Z@4HA 0000000180052d60 f   batch.obj
 0001:00051d60       ?dtor$1@?0??HandleOKCallback@ApproximateSizeWorker@leveldown@@UEAAXXZ@4HA 0000000180052d60 f   database_async.obj
 0001:00051d60       ?dtor$1@?0???0Utf8String@Nan@@QEAA@V?$Local@VValue@v8@@@v8@@@Z@4HA 0000000180052d60 f   database.obj
 0001:00051d60       ?dtor$1@?0??ThrowError@Nan@@YAXPEBD@Z@4HA 0000000180052d60 f   batch.obj
 0001:00051d60       ?dtor$1@?0??BooleanOptionValue@leveldown@@YA_NV?$Local@VObject@v8@@@v8@@PEBD_N@Z@4HA 0000000180052d60 f   batch.obj
 0001:00051d60       ?dtor$1@?0??UInt32OptionValue@leveldown@@YAIV?$Local@VObject@v8@@@v8@@PEBDI@Z@4HA 0000000180052d60 f   database.obj
 0001:00051d60       ?dtor$1@?0??HandleErrorCallback@AsyncWorker@Nan@@MEAAXXZ@4HA 0000000180052d60 f   batch_async.obj
 0001:00051d6e       ?dtor$0@?0??BooleanOptionValue@leveldown@@YA_NV?$Local@VObject@v8@@@v8@@PEBD_N@Z@4HA 0000000180052d6e f   batch.obj
 0001:00051d6e       ?dtor$0@?0??SaveToPersistent@AsyncWorker@Nan@@QEAAXPEBDAEBV?$Local@VValue@v8@@@v8@@@Z@4HA 0000000180052d6e f   batch.obj
 0001:00051d6e       ?dtor$0@?0??SetPrototypeMethod@Nan@@YAXV?$Local@VFunctionTemplate@v8@@@v8@@PEBDP6AXAEBV?$FunctionCallbackInfo@VValue@v8@@@1@@Z@Z@4HA 0000000180052d6e f   batch.obj
 0001:00051d6e       ?dtor$0@?0???0Utf8String@Nan@@QEAA@V?$Local@VValue@v8@@@v8@@@Z@4HA 0000000180052d6e f   database.obj
 0001:00051d6e       ?dtor$0@?0??ThrowError@Nan@@YAXPEBD@Z@4HA 0000000180052d6e f   batch.obj
 0001:00051d6e       ?dtor$0@?0??UInt32OptionValue@leveldown@@YAIV?$Local@VObject@v8@@@v8@@PEBDI@Z@4HA 0000000180052d6e f   database.obj
 0001:00051d6e       ?dtor$0@?0??HandleErrorCallback@AsyncWorker@Nan@@MEAAXXZ@4HA 0000000180052d6e f   batch_async.obj
 0001:00051d6e       ?dtor$0@?0??HandleOKCallback@ApproximateSizeWorker@leveldown@@UEAAXXZ@4HA 0000000180052d6e f   database_async.obj
 0001:00051d7a       ?dtor$2@?0??SetPrototypeMethod@Nan@@YAXV?$Local@VFunctionTemplate@v8@@@v8@@PEBDP6AXAEBV?$FunctionCallbackInfo@VValue@v8@@@1@@Z@Z@4HA 0000000180052d7a f   batch.obj
 0001:00051d7a       ?dtor$2@?0??HandleOKCallback@ApproximateSizeWorker@leveldown@@UEAAXXZ@4HA 0000000180052d7a f   database_async.obj
 0001:00051d7a       ?dtor$2@?0??SaveToPersistent@AsyncWorker@Nan@@QEAAXPEBDAEBV?$Local@VValue@v8@@@v8@@@Z@4HA 0000000180052d7a f   batch.obj
 0001:00051d7a       ?dtor$2@?0??ThrowError@Nan@@YAXPEBD@Z@4HA 0000000180052d7a f   batch.obj
 0001:00051d7a       ?dtor$2@?0??BooleanOptionValue@leveldown@@YA_NV?$Local@VObject@v8@@@v8@@PEBD_N@Z@4HA 0000000180052d7a f   batch.obj
 0001:00051d7a       ?dtor$2@?0??UInt32OptionValue@leveldown@@YAIV?$Local@VObject@v8@@@v8@@PEBDI@Z@4HA 0000000180052d7a f   database.obj
 0001:00051d7a       ?dtor$2@?0??HandleErrorCallback@AsyncWorker@Nan@@MEAAXXZ@4HA 0000000180052d7a f   batch_async.obj
 0001:00051d7a       ?dtor$2@?0???0Utf8String@Nan@@QEAA@V?$Local@VValue@v8@@@v8@@@Z@4HA 0000000180052d7a f   database.obj
 0001:00051d90       ?dtor$0@?0???1HandleScope@Nan@@QEAA@XZ@4HA 0000000180052d90 f   batch.obj
 0001:00051da0       ?dtor$0@?0???1?$Persistent@VFunction@v8@@V?$NonCopyablePersistentTraits@VFunction@v8@@@2@@Nan@@QEAA@XZ@4HA 0000000180052da0 f   batch.obj
 0001:00051da0       ?dtor$0@?0???1?$Persistent@VObject@v8@@V?$NonCopyablePersistentTraits@VObject@v8@@@2@@Nan@@QEAA@XZ@4HA 0000000180052da0 f   batch.obj
 0001:00051db0       ?dtor$0@?0???1ObjectWrap@Nan@@UEAA@XZ@4HA 0000000180052db0 f   batch.obj
 0001:00051dc0       ?dtor$1@?0???1ObjectWrap@Nan@@UEAA@XZ@4HA 0000000180052dc0 f   batch.obj
 0001:00051dd0       ?dtor$0@?0???__Ebatch_constructor@leveldown@@YAXXZ@4HA 0000000180052dd0 f   batch.obj
 0001:00051dd0       ?dtor$0@?0???__Fbatch_constructor@leveldown@@YAXXZ@4HA 0000000180052dd0 f   batch.obj
 0001:00051de0       ?dtor$0@?0???_GBatch@leveldown@@UEAAPEAXI@Z@4HA 0000000180052de0 f   batch.obj
 0001:00051de0       ?dtor$0@?0???1Iterator@leveldown@@UEAA@XZ@4HA 0000000180052de0 f   iterator.obj
 0001:00051df0       ?dtor$0@?0???1WriteBatch@leveldb@@QEAA@XZ@4HA 0000000180052df0 f   leveldb:write_batch.obj
 0001:00051df0       ?dtor$0@?0???0WriteBatch@leveldb@@QEAA@XZ@4HA 0000000180052df0 f   leveldb:write_batch.obj
 0001:00051df0       ?dtor$0@?0???_GWriteBatch@leveldb@@QEAAPEAXI@Z@4HA 0000000180052df0 f   batch.obj
 0001:00051df0       ?dtor$0@?0???1InternalKey@leveldb@@QEAA@XZ@4HA 0000000180052df0 f   leveldb:db_impl.obj
 0001:00051e00       ?dtor$1@?0??Write@Batch@leveldown@@QEAA?AVStatus@leveldb@@XZ@4HA 0000000180052e00 f   batch.obj
 0001:00051e26       ?dtor$0@?0??Write@Batch@leveldown@@QEAA?AVStatus@leveldb@@XZ@4HA 0000000180052e26 f   batch.obj
 0001:00051e50       ?dtor$0@?0??New@Batch@leveldown@@CAXAEBV?$FunctionCallbackInfo@VValue@v8@@@Nan@@@Z@4HA 0000000180052e50 f   batch.obj
 0001:00051e6d       ?dtor$5@?0??New@Batch@leveldown@@CAXAEBV?$FunctionCallbackInfo@VValue@v8@@@Nan@@@Z@4HA 0000000180052e6d f   batch.obj
 0001:00051e79       ?dtor$4@?0??New@Batch@leveldown@@CAXAEBV?$FunctionCallbackInfo@VValue@v8@@@Nan@@@Z@4HA 0000000180052e79 f   batch.obj
 0001:00051e89       ?dtor$1@?0??New@Batch@leveldown@@CAXAEBV?$FunctionCallbackInfo@VValue@v8@@@Nan@@@Z@4HA 0000000180052e89 f   batch.obj
 0001:00051e95       ?dtor$2@?0??New@Batch@leveldown@@CAXAEBV?$FunctionCallbackInfo@VValue@v8@@@Nan@@@Z@4HA 0000000180052e95 f   batch.obj
 0001:00051eb2       ?dtor$3@?0??New@Batch@leveldown@@CAXAEBV?$FunctionCallbackInfo@VValue@v8@@@Nan@@@Z@4HA 0000000180052eb2 f   batch.obj
 0001:00051ecf       ?dtor$6@?0??New@Batch@leveldown@@CAXAEBV?$FunctionCallbackInfo@VValue@v8@@@Nan@@@Z@4HA 0000000180052ecf f   batch.obj
 0001:00051ee0       ?dtor$1@?0??NewInstance@Batch@leveldown@@SA?AV?$Local@VValue@v8@@@v8@@V?$Local@VObject@v8@@@4@0@Z@4HA 0000000180052ee0 f   batch.obj
 0001:00051eee       ?dtor$0@?0??NewInstance@Batch@leveldown@@SA?AV?$Local@VValue@v8@@@v8@@V?$Local@VObject@v8@@@4@0@Z@4HA 0000000180052eee f   batch.obj
 0001:00051efa       ?dtor$2@?0??NewInstance@Batch@leveldown@@SA?AV?$Local@VValue@v8@@@v8@@V?$Local@VObject@v8@@@4@0@Z@4HA 0000000180052efa f   batch.obj
 0001:00051f08       ?dtor$3@?0??NewInstance@Batch@leveldown@@SA?AV?$Local@VValue@v8@@@v8@@V?$Local@VObject@v8@@@4@0@Z@4HA 0000000180052f08 f   batch.obj
 0001:00051f16       ?dtor$4@?0??NewInstance@Batch@leveldown@@SA?AV?$Local@VValue@v8@@@v8@@V?$Local@VObject@v8@@@4@0@Z@4HA 0000000180052f16 f   batch.obj
 0001:00051f24       ?dtor$5@?0??NewInstance@Batch@leveldown@@SA?AV?$Local@VValue@v8@@@v8@@V?$Local@VObject@v8@@@4@0@Z@4HA 0000000180052f24 f   batch.obj
 0001:00051f32       ?dtor$6@?0??NewInstance@Batch@leveldown@@SA?AV?$Local@VValue@v8@@@v8@@V?$Local@VObject@v8@@@4@0@Z@4HA 0000000180052f32 f   batch.obj
 0001:00051f40       ?dtor$7@?0??NewInstance@Batch@leveldown@@SA?AV?$Local@VValue@v8@@@v8@@V?$Local@VObject@v8@@@4@0@Z@4HA 0000000180052f40 f   batch.obj
 0001:00051f50       ?dtor$0@?0??Write@Batch@leveldown@@CAXAEBV?$FunctionCallbackInfo@VValue@v8@@@Nan@@@Z@4HA 0000000180052f50 f   batch.obj
 0001:00051f70       ?dtor$3@?0??Write@Batch@leveldown@@CAXAEBV?$FunctionCallbackInfo@VValue@v8@@@Nan@@@Z@4HA 0000000180052f70 f   batch.obj
 0001:00051f7c       ?dtor$2@?0??Write@Batch@leveldown@@CAXAEBV?$FunctionCallbackInfo@VValue@v8@@@Nan@@@Z@4HA 0000000180052f7c f   batch.obj
 0001:00051f88       ?dtor$1@?0??Write@Batch@leveldown@@CAXAEBV?$FunctionCallbackInfo@VValue@v8@@@Nan@@@Z@4HA 0000000180052f88 f   batch.obj
 0001:00051fa8       ?dtor$4@?0??Write@Batch@leveldown@@CAXAEBV?$FunctionCallbackInfo@VValue@v8@@@Nan@@@Z@4HA 0000000180052fa8 f   batch.obj
 0001:00051fb4       ?dtor$6@?0??Write@Batch@leveldown@@CAXAEBV?$FunctionCallbackInfo@VValue@v8@@@Nan@@@Z@4HA 0000000180052fb4 f   batch.obj
 0001:00051fc2       ?dtor$5@?0??Write@Batch@leveldown@@CAXAEBV?$FunctionCallbackInfo@VValue@v8@@@Nan@@@Z@4HA 0000000180052fc2 f   batch.obj
 0001:00051fce       ?dtor$7@?0??Write@Batch@leveldown@@CAXAEBV?$FunctionCallbackInfo@VValue@v8@@@Nan@@@Z@4HA 0000000180052fce f   batch.obj
 0001:00051fe0       ?dtor$0@?0??Call@Callback@Nan@@QEBA?AV?$Local@VValue@v8@@@v8@@HQEAV34@@Z@4HA 0000000180052fe0 f   batch_async.obj
 0001:00051fee       ?dtor$2@?0??Call@Callback@Nan@@QEBA?AV?$Local@VValue@v8@@@v8@@HQEAV34@@Z@4HA 0000000180052fee f   batch_async.obj
 0001:00051ffc       ?dtor$1@?0??Call@Callback@Nan@@QEBA?AV?$Local@VValue@v8@@@v8@@HQEAV34@@Z@4HA 0000000180052ffc f   batch_async.obj
 0001:00052008       ?dtor$3@?0??Call@Callback@Nan@@QEBA?AV?$Local@VValue@v8@@@v8@@HQEAV34@@Z@4HA 0000000180053008 f   batch_async.obj
 0001:00052016       ?dtor$4@?0??Call@Callback@Nan@@QEBA?AV?$Local@VValue@v8@@@v8@@HQEAV34@@Z@4HA 0000000180053016 f   batch_async.obj
 0001:00052024       ?dtor$5@?0??Call@Callback@Nan@@QEBA?AV?$Local@VValue@v8@@@v8@@HQEAV34@@Z@4HA 0000000180053024 f   batch_async.obj
 0001:00052040       ?dtor$0@?0???1AsyncWorker@Nan@@UEAA@XZ@4HA 0000000180053040 f   batch_async.obj
 0001:00052053       ?dtor$2@?0???1AsyncWorker@Nan@@UEAA@XZ@4HA 0000000180053053 f   batch_async.obj
 0001:00052061       ?dtor$1@?0???1AsyncWorker@Nan@@UEAA@XZ@4HA 0000000180053061 f   batch_async.obj
 0001:0005206d       ?dtor$3@?0???1AsyncWorker@Nan@@UEAA@XZ@4HA 000000018005306d f   batch_async.obj
 0001:00052079       ?dtor$4@?0???1AsyncWorker@Nan@@UEAA@XZ@4HA 0000000180053079 f   batch_async.obj
 0001:00052085       ?dtor$5@?0???1AsyncWorker@Nan@@UEAA@XZ@4HA 0000000180053085 f   batch_async.obj
 0001:00052093       ?dtor$6@?0???1AsyncWorker@Nan@@UEAA@XZ@4HA 0000000180053093 f   batch_async.obj
 0001:000520a0       ?dtor$1@?0??WorkComplete@AsyncWorker@Nan@@UEAAXXZ@4HA 00000001800530a0 f   batch_async.obj
 0001:000520a0       ?dtor$1@?0??WorkComplete@CloseWorker@leveldown@@UEAAXXZ@4HA 00000001800530a0 f   database_async.obj
 0001:000520ae       ?dtor$0@?0??WorkComplete@AsyncWorker@Nan@@UEAAXXZ@4HA 00000001800530ae f   batch_async.obj
 0001:000520ae       ?dtor$0@?0??WorkComplete@CloseWorker@leveldown@@UEAAXXZ@4HA 00000001800530ae f   database_async.obj
 0001:000520ba       ?dtor$2@?0??WorkComplete@CloseWorker@leveldown@@UEAAXXZ@4HA 00000001800530ba f   database_async.obj
 0001:000520ba       ?dtor$2@?0??WorkComplete@AsyncWorker@Nan@@UEAAXXZ@4HA 00000001800530ba f   batch_async.obj
 0001:000520c6       ?dtor$3@?0??WorkComplete@CloseWorker@leveldown@@UEAAXXZ@4HA 00000001800530c6 f   database_async.obj
 0001:000520c6       ?dtor$3@?0??WorkComplete@AsyncWorker@Nan@@UEAAXXZ@4HA 00000001800530c6 f   batch_async.obj
 0001:000520d2       ?dtor$4@?0??WorkComplete@CloseWorker@leveldown@@UEAAXXZ@4HA 00000001800530d2 f   database_async.obj
 0001:000520d2       ?dtor$4@?0??WorkComplete@AsyncWorker@Nan@@UEAAXXZ@4HA 00000001800530d2 f   batch_async.obj
 0001:000520e0       ?dtor$1@?0??HandleOKCallback@CompactRangeWorker@leveldown@@UEAAXXZ@4HA 00000001800530e0 f   database_async.obj
 0001:000520e0       ?dtor$1@?0??StringOrBufferLength@@YA_KV?$Local@VValue@v8@@@v8@@@Z@4HA 00000001800530e0 f   iterator.obj
 0001:000520e0       ?dtor$1@?0??HandleOKCallback@AsyncWorker@Nan@@MEAAXXZ@4HA 00000001800530e0 f   batch_async.obj
 0001:000520ee       ?dtor$0@?0??HandleOKCallback@AsyncWorker@Nan@@MEAAXXZ@4HA 00000001800530ee f   batch_async.obj
 0001:000520ee       ?dtor$0@?0??HandleOKCallback@CompactRangeWorker@leveldown@@UEAAXXZ@4HA 00000001800530ee f   database_async.obj
 0001:000520ee       ?dtor$0@?0??StringOrBufferLength@@YA_KV?$Local@VValue@v8@@@v8@@@Z@4HA 00000001800530ee f   iterator.obj
 0001:000520fa       ?dtor$2@?0??HandleOKCallback@AsyncWorker@Nan@@MEAAXXZ@4HA 00000001800530fa f   batch_async.obj
 0001:000520fa       ?dtor$2@?0??HandleOKCallback@CompactRangeWorker@leveldown@@UEAAXXZ@4HA 00000001800530fa f   database_async.obj
 0001:000520fa       ?dtor$2@?0??StringOrBufferLength@@YA_KV?$Local@VValue@v8@@@v8@@@Z@4HA 00000001800530fa f   iterator.obj
 0001:00052110       ?dtor$4@?0???0AsyncWorker@leveldown@@QEAA@PEAVDatabase@1@PEAVCallback@Nan@@@Z@4HA 0000000180053110 f   batch_async.obj
 0001:0005211c       ?dtor$2@?0???0AsyncWorker@leveldown@@QEAA@PEAVDatabase@1@PEAVCallback@Nan@@@Z@4HA 000000018005311c f   batch_async.obj
 0001:0005212f       ?dtor$5@?0???0AsyncWorker@leveldown@@QEAA@PEAVDatabase@1@PEAVCallback@Nan@@@Z@4HA 000000018005312f f   batch_async.obj
 0001:0005213d       ?dtor$3@?0???0AsyncWorker@leveldown@@QEAA@PEAVDatabase@1@PEAVCallback@Nan@@@Z@4HA 000000018005313d f   batch_async.obj
 0001:00052149       ?dtor$6@?0???0AsyncWorker@leveldown@@QEAA@PEAVDatabase@1@PEAVCallback@Nan@@@Z@4HA 0000000180053149 f   batch_async.obj
 0001:00052157       ?dtor$0@?0???0AsyncWorker@leveldown@@QEAA@PEAVDatabase@1@PEAVCallback@Nan@@@Z@4HA 0000000180053157 f   batch_async.obj
 0001:00052163       ?dtor$1@?0???0AsyncWorker@leveldown@@QEAA@PEAVDatabase@1@PEAVCallback@Nan@@@Z@4HA 0000000180053163 f   batch_async.obj
 0001:00052180       ?dtor$0@?0??SetStatus@AsyncWorker@leveldown@@IEAAXVStatus@leveldb@@@Z@4HA 0000000180053180 f   batch_async.obj
 0001:0005218c       ?dtor$1@?0??SetStatus@AsyncWorker@leveldown@@IEAAXVStatus@leveldb@@@Z@4HA 000000018005318c f   batch_async.obj
 0001:000521a0       ?dtor$0@?0???_GAsyncWorker@leveldown@@UEAAPEAXI@Z@4HA 00000001800531a0 f   batch_async.obj
 0001:000521a0       ?dtor$0@?0???1AsyncWorker@leveldown@@UEAA@XZ@4HA 00000001800531a0 f   batch_async.obj
 0001:000521ac       ?dtor$1@?0???1AsyncWorker@leveldown@@UEAA@XZ@4HA 00000001800531ac f   batch_async.obj
 0001:000521ac       ?dtor$1@?0???_GAsyncWorker@leveldown@@UEAAPEAXI@Z@4HA 00000001800531ac f   batch_async.obj
 0001:000521c0       ?dtor$0@?0???_GBatchWorker@leveldown@@UEAAPEAXI@Z@4HA 00000001800531c0 f   database_async.obj
 0001:000521c0       ?dtor$0@?0???_GEndWorker@leveldown@@UEAAPEAXI@Z@4HA 00000001800531c0 f   iterator_async.obj
 0001:000521c0       ?dtor$0@?0???_GRepairWorker@leveldown@@UEAAPEAXI@Z@4HA 00000001800531c0 f   leveldown_async.obj
 0001:000521c0       ?dtor$0@?0???_GBatchWriteWorker@leveldown@@UEAAPEAXI@Z@4HA 00000001800531c0 f   batch_async.obj
 0001:000521c0       ?dtor$0@?0???_GCloseWorker@leveldown@@UEAAPEAXI@Z@4HA 00000001800531c0 f   database_async.obj
 0001:000521c0       ?dtor$0@?0???1IOWorker@leveldown@@UEAA@XZ@4HA 00000001800531c0 f   database_async.obj
 0001:000521c0       ?dtor$0@?0???_GApproximateSizeWorker@leveldown@@UEAAPEAXI@Z@4HA 00000001800531c0 f   database_async.obj
 0001:000521c0       ?dtor$0@?0???_GOpenWorker@leveldown@@UEAAPEAXI@Z@4HA 00000001800531c0 f   database_async.obj
 0001:000521c0       ?dtor$0@?0???_GDestroyWorker@leveldown@@UEAAPEAXI@Z@4HA 00000001800531c0 f   leveldown_async.obj
 0001:000521c0       ?dtor$0@?0???_GCompactRangeWorker@leveldown@@UEAAPEAXI@Z@4HA 00000001800531c0 f   database_async.obj
 0001:000521c0       ?dtor$0@?0???_GIOWorker@leveldown@@UEAAPEAXI@Z@4HA 00000001800531c0 f   database_async.obj
 0001:000521cc       ?dtor$1@?0???_GCompactRangeWorker@leveldown@@UEAAPEAXI@Z@4HA 00000001800531cc f   database_async.obj
 0001:000521cc       ?dtor$1@?0???_GEndWorker@leveldown@@UEAAPEAXI@Z@4HA 00000001800531cc f   iterator_async.obj
 0001:000521cc       ?dtor$1@?0???_GDestroyWorker@leveldown@@UEAAPEAXI@Z@4HA 00000001800531cc f   leveldown_async.obj
 0001:000521cc       ?dtor$1@?0???_GRepairWorker@leveldown@@UEAAPEAXI@Z@4HA 00000001800531cc f   leveldown_async.obj
 0001:000521cc       ?dtor$1@?0???_GBatchWorker@leveldown@@UEAAPEAXI@Z@4HA 00000001800531cc f   database_async.obj
 0001:000521cc       ?dtor$1@?0???_GCloseWorker@leveldown@@UEAAPEAXI@Z@4HA 00000001800531cc f   database_async.obj
 0001:000521cc       ?dtor$1@?0???_GBatchWriteWorker@leveldown@@UEAAPEAXI@Z@4HA 00000001800531cc f   batch_async.obj
 0001:000521cc       ?dtor$1@?0???_GOpenWorker@leveldown@@UEAAPEAXI@Z@4HA 00000001800531cc f   database_async.obj
 0001:000521cc       ?dtor$1@?0???1IOWorker@leveldown@@UEAA@XZ@4HA 00000001800531cc f   database_async.obj
 0001:000521cc       ?dtor$1@?0???_GIOWorker@leveldown@@UEAAPEAXI@Z@4HA 00000001800531cc f   database_async.obj
 0001:000521cc       ?dtor$1@?0???_GApproximateSizeWorker@leveldown@@UEAAPEAXI@Z@4HA 00000001800531cc f   database_async.obj
 0001:000521d8       ?dtor$2@?0???_GBatchWorker@leveldown@@UEAAPEAXI@Z@4HA 00000001800531d8 f   database_async.obj
 0001:000521d8       ?dtor$2@?0???_GCompactRangeWorker@leveldown@@UEAAPEAXI@Z@4HA 00000001800531d8 f   database_async.obj
 0001:000521d8       ?dtor$2@?0???_GApproximateSizeWorker@leveldown@@UEAAPEAXI@Z@4HA 00000001800531d8 f   database_async.obj
 0001:000521d8       ?dtor$2@?0???_GIOWorker@leveldown@@UEAAPEAXI@Z@4HA 00000001800531d8 f   database_async.obj
 0001:000521d8       ?dtor$2@?0???_GOpenWorker@leveldown@@UEAAPEAXI@Z@4HA 00000001800531d8 f   database_async.obj
 0001:000521d8       ?dtor$2@?0???_GBatchWriteWorker@leveldown@@UEAAPEAXI@Z@4HA 00000001800531d8 f   batch_async.obj
 0001:000521d8       ?dtor$2@?0???_GEndWorker@leveldown@@UEAAPEAXI@Z@4HA 00000001800531d8 f   iterator_async.obj
 0001:000521d8       ?dtor$2@?0???1IOWorker@leveldown@@UEAA@XZ@4HA 00000001800531d8 f   database_async.obj
 0001:000521d8       ?dtor$2@?0???_GRepairWorker@leveldown@@UEAAPEAXI@Z@4HA 00000001800531d8 f   leveldown_async.obj
 0001:000521d8       ?dtor$2@?0???_GDestroyWorker@leveldown@@UEAAPEAXI@Z@4HA 00000001800531d8 f   leveldown_async.obj
 0001:000521d8       ?dtor$2@?0???_GCloseWorker@leveldown@@UEAAPEAXI@Z@4HA 00000001800531d8 f   database_async.obj
 0001:000521f0       ?dtor$0@?0??Execute@BatchWriteWorker@leveldown@@UEAAXXZ@4HA 00000001800531f0 f   batch_async.obj
 0001:000521f0       ?dtor$0@?0??Execute@OpenWorker@leveldown@@UEAAXXZ@4HA 00000001800531f0 f   database_async.obj
 0001:000521f0       ?dtor$0@?0??Execute@NextWorker@leveldown@@UEAAXXZ@4HA 00000001800531f0 f   iterator_async.obj
 0001:000521f0       ?dtor$0@?0??Execute@BatchWorker@leveldown@@UEAAXXZ@4HA 00000001800531f0 f   database_async.obj
 0001:00052200       ?dtor$0@?0???__Fdatabase_constructor@leveldown@@YAXXZ@4HA 0000000180053200 f   database.obj
 0001:00052200       ?dtor$0@?0???__Edatabase_constructor@leveldown@@YAXXZ@4HA 0000000180053200 f   database.obj
 0001:00052210       ?dtor$0@?0???_GDatabase@leveldown@@UEAAPEAXI@Z@4HA 0000000180053210 f   database.obj
 0001:0005221c       ?dtor$1@?0???_GDatabase@leveldown@@UEAAPEAXI@Z@4HA 000000018005321c f   database.obj
 0001:0005222c       ?dtor$2@?0???_GDatabase@leveldown@@UEAAPEAXI@Z@4HA 000000018005322c f   database.obj
 0001:00052238       ?dtor$3@?0???_GDatabase@leveldown@@UEAAPEAXI@Z@4HA 0000000180053238 f   database.obj
 0001:00052250       ?dtor$0@?0???1?$map@IPEAVIterator@leveldown@@U?$less@I@std@@V?$allocator@U?$pair@$$CBIPEAVIterator@leveldown@@@std@@@4@@std@@QEAA@XZ@4HA 0000000180053250 f   database.obj
 0001:0005225c       ?dtor$1@?0???1?$map@IPEAVIterator@leveldown@@U?$less@I@std@@V?$allocator@U?$pair@$$CBIPEAVIterator@leveldown@@@std@@@4@@std@@QEAA@XZ@4HA 000000018005325c f   database.obj
 0001:00052270       ?dtor$0@?0??OpenDatabase@Database@leveldown@@QEAA?AVStatus@leveldb@@PEAUOptions@4@@Z@4HA 0000000180053270 f   database.obj
 0001:0005227c       ?dtor$1@?0??OpenDatabase@Database@leveldown@@QEAA?AVStatus@leveldb@@PEAUOptions@4@@Z@4HA 000000018005327c f   database.obj
 0001:000522b0       ?dtor$0@?0??Put@DBImpl@leveldb@@UEAA?AVStatus@2@AEBUWriteOptions@2@AEBVSlice@2@1@Z@4HA 00000001800532b0 f   leveldb:db_impl.obj
 0001:000522b0       ?dtor$0@?0??PutToDatabase@Database@leveldown@@QEAA?AVStatus@leveldb@@PEAUWriteOptions@4@VSlice@4@1@Z@4HA 00000001800532b0 f   database.obj
 0001:000522b0       ?dtor$0@?0??GetFromDatabase@Database@leveldown@@QEAA?AVStatus@leveldb@@PEAUReadOptions@4@VSlice@4@AEAV?$basic_string@DU?$char_traits@D@std@@V?$allocator@D@2@@std@@@Z@4HA 00000001800532b0 f   database.obj
 0001:000522e0       ?dtor$0@?0??status@DBIter@?A0x4268f449@leveldb@@UEBA?AVStatus@3@XZ@4HA 00000001800532e0 f   leveldb:db_iter.obj
 0001:000522e0       ?dtor$0@?0??status@IteratorWrapper@leveldb@@QEBA?AVStatus@2@XZ@4HA 00000001800532e0 f   leveldb:merger.obj
 0001:000522e0       ?dtor$0@?0??WriteBatchToDatabase@Database@leveldown@@QEAA?AVStatus@leveldb@@PEAUWriteOptions@4@PEAVWriteBatch@4@@Z@4HA 00000001800532e0 f   database.obj
 0001:000522e0       ?dtor$0@?0??DeleteFromDatabase@Database@leveldown@@QEAA?AVStatus@leveldb@@PEAUWriteOptions@4@VSlice@4@@Z@4HA 00000001800532e0 f   database.obj
 0001:000522e0       ?dtor$0@?0??IteratorStatus@Iterator@leveldown@@QEAA?AVStatus@leveldb@@XZ@4HA 00000001800532e0 f   iterator.obj
 0001:000522e0       ?dtor$0@?0??status@Iter@Block@leveldb@@UEBA?AVStatus@3@XZ@4HA 00000001800532e0 f   leveldb:block.obj
 0001:000522e0       ?dtor$0@?0??status@EmptyIterator@?A0x38b22730@leveldb@@UEBA?AVStatus@3@XZ@4HA 00000001800532e0 f   leveldb:iterator.obj
 0001:00052310       ?dtor$1@?0??LevelDOWN@leveldown@@YAXAEBV?$FunctionCallbackInfo@VValue@v8@@@Nan@@@Z@4HA 0000000180053310 f   database.obj
 0001:0005231e       ?dtor$0@?0??LevelDOWN@leveldown@@YAXAEBV?$FunctionCallbackInfo@VValue@v8@@@Nan@@@Z@4HA 000000018005331e f   database.obj
 0001:0005232a       ?dtor$2@?0??LevelDOWN@leveldown@@YAXAEBV?$FunctionCallbackInfo@VValue@v8@@@Nan@@@Z@4HA 000000018005332a f   database.obj
 0001:00052338       ?dtor$3@?0??LevelDOWN@leveldown@@YAXAEBV?$FunctionCallbackInfo@VValue@v8@@@Nan@@@Z@4HA 0000000180053338 f   database.obj
 0001:00052346       ?dtor$4@?0??LevelDOWN@leveldown@@YAXAEBV?$FunctionCallbackInfo@VValue@v8@@@Nan@@@Z@4HA 0000000180053346 f   database.obj
 0001:00052354       ?dtor$5@?0??LevelDOWN@leveldown@@YAXAEBV?$FunctionCallbackInfo@VValue@v8@@@Nan@@@Z@4HA 0000000180053354 f   database.obj
 0001:00052370       ?dtor$0@?0??New@Database@leveldown@@CAXAEBV?$FunctionCallbackInfo@VValue@v8@@@Nan@@@Z@4HA 0000000180053370 f   database.obj
 0001:0005238d       ?dtor$5@?0??New@Database@leveldown@@CAXAEBV?$FunctionCallbackInfo@VValue@v8@@@Nan@@@Z@4HA 000000018005338d f   database.obj
 0001:00052399       ?dtor$4@?0??New@Database@leveldown@@CAXAEBV?$FunctionCallbackInfo@VValue@v8@@@Nan@@@Z@4HA 0000000180053399 f   database.obj
 0001:000523a9       ?dtor$1@?0??New@Database@leveldown@@CAXAEBV?$FunctionCallbackInfo@VValue@v8@@@Nan@@@Z@4HA 00000001800533a9 f   database.obj
 0001:000523b5       ?dtor$2@?0??New@Database@leveldown@@CAXAEBV?$FunctionCallbackInfo@VValue@v8@@@Nan@@@Z@4HA 00000001800533b5 f   database.obj
 0001:000523d2       ?dtor$7@?0??New@Database@leveldown@@CAXAEBV?$FunctionCallbackInfo@VValue@v8@@@Nan@@@Z@4HA 00000001800533d2 f   database.obj
 0001:000523de       ?dtor$6@?0??New@Database@leveldown@@CAXAEBV?$FunctionCallbackInfo@VValue@v8@@@Nan@@@Z@4HA 00000001800533de f   database.obj
 0001:000523ea       ?dtor$3@?0??New@Database@leveldown@@CAXAEBV?$FunctionCallbackInfo@VValue@v8@@@Nan@@@Z@4HA 00000001800533ea f   database.obj
 0001:00052400       ?dtor$2@?0??Open@Database@leveldown@@CAXAEBV?$FunctionCallbackInfo@VValue@v8@@@Nan@@@Z@4HA 0000000180053400 f   database.obj
 0001:0005241d       ?dtor$3@?0??Open@Database@leveldown@@CAXAEBV?$FunctionCallbackInfo@VValue@v8@@@Nan@@@Z@4HA 000000018005341d f   database.obj
 0001:00052429       ?dtor$0@?0??Open@Database@leveldown@@CAXAEBV?$FunctionCallbackInfo@VValue@v8@@@Nan@@@Z@4HA 0000000180053429 f   database.obj
 0001:00052446       ?dtor$1@?0??Open@Database@leveldown@@CAXAEBV?$FunctionCallbackInfo@VValue@v8@@@Nan@@@Z@4HA 0000000180053446 f   database.obj
 0001:00052463       ?dtor$5@?0??Open@Database@leveldown@@CAXAEBV?$FunctionCallbackInfo@VValue@v8@@@Nan@@@Z@4HA 0000000180053463 f   database.obj
 0001:0005246f       ?dtor$4@?0??Open@Database@leveldown@@CAXAEBV?$FunctionCallbackInfo@VValue@v8@@@Nan@@@Z@4HA 000000018005346f f   database.obj
 0001:0005247b       ?dtor$6@?0??Open@Database@leveldown@@CAXAEBV?$FunctionCallbackInfo@VValue@v8@@@Nan@@@Z@4HA 000000018005347b f   database.obj
 0001:00052487       ?dtor$7@?0??Open@Database@leveldown@@CAXAEBV?$FunctionCallbackInfo@VValue@v8@@@Nan@@@Z@4HA 0000000180053487 f   database.obj
 0001:000524a4       ?dtor$9@?0??Open@Database@leveldown@@CAXAEBV?$FunctionCallbackInfo@VValue@v8@@@Nan@@@Z@4HA 00000001800534a4 f   database.obj
 0001:000524b2       ?dtor$8@?0??Open@Database@leveldown@@CAXAEBV?$FunctionCallbackInfo@VValue@v8@@@Nan@@@Z@4HA 00000001800534b2 f   database.obj
 0001:000524be       ?dtor$10@?0??Open@Database@leveldown@@CAXAEBV?$FunctionCallbackInfo@VValue@v8@@@Nan@@@Z@4HA 00000001800534be f   database.obj
 0001:000524d0       ?dtor$0@?0??Close@Database@leveldown@@CAXAEBV?$FunctionCallbackInfo@VValue@v8@@@Nan@@@Z@4HA 00000001800534d0 f   database.obj
 0001:000524f0       ?dtor$1@?0??Close@Database@leveldown@@CAXAEBV?$FunctionCallbackInfo@VValue@v8@@@Nan@@@Z@4HA 00000001800534f0 f   database.obj
 0001:00052510       ?dtor$3@?0??Close@Database@leveldown@@CAXAEBV?$FunctionCallbackInfo@VValue@v8@@@Nan@@@Z@4HA 0000000180053510 f   database.obj
 0001:0005251c       ?dtor$2@?0??Close@Database@leveldown@@CAXAEBV?$FunctionCallbackInfo@VValue@v8@@@Nan@@@Z@4HA 000000018005351c f   database.obj
 0001:00052528       ?dtor$4@?0??Close@Database@leveldown@@CAXAEBV?$FunctionCallbackInfo@VValue@v8@@@Nan@@@Z@4HA 0000000180053528 f   database.obj
 0001:00052534       ?dtor$6@?0??Close@Database@leveldown@@CAXAEBV?$FunctionCallbackInfo@VValue@v8@@@Nan@@@Z@4HA 0000000180053534 f   database.obj
 0001:00052542       ?dtor$5@?0??Close@Database@leveldown@@CAXAEBV?$FunctionCallbackInfo@VValue@v8@@@Nan@@@Z@4HA 0000000180053542 f   database.obj
 0001:0005254e       ?dtor$7@?0??Close@Database@leveldown@@CAXAEBV?$FunctionCallbackInfo@VValue@v8@@@Nan@@@Z@4HA 000000018005354e f   database.obj
 0001:00052560       ?dtor$0@?0??Put@Database@leveldown@@CAXAEBV?$FunctionCallbackInfo@VValue@v8@@@Nan@@@Z@4HA 0000000180053560 f   database.obj
 0001:00052580       ?dtor$1@?0??Put@Database@leveldown@@CAXAEBV?$FunctionCallbackInfo@VValue@v8@@@Nan@@@Z@4HA 0000000180053580 f   database.obj
 0001:000525a0       ?dtor$3@?0??Put@Database@leveldown@@CAXAEBV?$FunctionCallbackInfo@VValue@v8@@@Nan@@@Z@4HA 00000001800535a0 f   database.obj
 0001:000525ac       ?dtor$2@?0??Put@Database@leveldown@@CAXAEBV?$FunctionCallbackInfo@VValue@v8@@@Nan@@@Z@4HA 00000001800535ac f   database.obj
 0001:000525b8       ?dtor$4@?0??Put@Database@leveldown@@CAXAEBV?$FunctionCallbackInfo@VValue@v8@@@Nan@@@Z@4HA 00000001800535b8 f   database.obj
 0001:000525c4       ?dtor$6@?0??Put@Database@leveldown@@CAXAEBV?$FunctionCallbackInfo@VValue@v8@@@Nan@@@Z@4HA 00000001800535c4 f   database.obj
 0001:000525d2       ?dtor$5@?0??Put@Database@leveldown@@CAXAEBV?$FunctionCallbackInfo@VValue@v8@@@Nan@@@Z@4HA 00000001800535d2 f   database.obj
 0001:000525de       ?dtor$8@?0??Put@Database@leveldown@@CAXAEBV?$FunctionCallbackInfo@VValue@v8@@@Nan@@@Z@4HA 00000001800535de f   database.obj
 0001:000525ec       ?dtor$7@?0??Put@Database@leveldown@@CAXAEBV?$FunctionCallbackInfo@VValue@v8@@@Nan@@@Z@4HA 00000001800535ec f   database.obj
 0001:000525f8       ?dtor$9@?0??Put@Database@leveldown@@CAXAEBV?$FunctionCallbackInfo@VValue@v8@@@Nan@@@Z@4HA 00000001800535f8 f   database.obj
 0001:00052606       ?dtor$10@?0??Put@Database@leveldown@@CAXAEBV?$FunctionCallbackInfo@VValue@v8@@@Nan@@@Z@4HA 0000000180053606 f   database.obj
 0001:00052614       ?dtor$12@?0??Put@Database@leveldown@@CAXAEBV?$FunctionCallbackInfo@VValue@v8@@@Nan@@@Z@4HA 0000000180053614 f   database.obj
 0001:00052622       ?dtor$11@?0??Put@Database@leveldown@@CAXAEBV?$FunctionCallbackInfo@VValue@v8@@@Nan@@@Z@4HA 0000000180053622 f   database.obj
 0001:0005262e       ?dtor$13@?0??Put@Database@leveldown@@CAXAEBV?$FunctionCallbackInfo@VValue@v8@@@Nan@@@Z@4HA 000000018005362e f   database.obj
 0001:00052640       ?dtor$0@?0??Get@Database@leveldown@@CAXAEBV?$FunctionCallbackInfo@VValue@v8@@@Nan@@@Z@4HA 0000000180053640 f   database.obj
 0001:00052660       ?dtor$1@?0??Get@Database@leveldown@@CAXAEBV?$FunctionCallbackInfo@VValue@v8@@@Nan@@@Z@4HA 0000000180053660 f   database.obj
 0001:0005267d       ?dtor$3@?0??Get@Database@leveldown@@CAXAEBV?$FunctionCallbackInfo@VValue@v8@@@Nan@@@Z@4HA 000000018005367d f   database.obj
 0001:00052689       ?dtor$2@?0??Get@Database@leveldown@@CAXAEBV?$FunctionCallbackInfo@VValue@v8@@@Nan@@@Z@4HA 0000000180053689 f   database.obj
 0001:00052695       ?dtor$4@?0??Get@Database@leveldown@@CAXAEBV?$FunctionCallbackInfo@VValue@v8@@@Nan@@@Z@4HA 0000000180053695 f   database.obj
 0001:000526a1       ?dtor$5@?0??Get@Database@leveldown@@CAXAEBV?$FunctionCallbackInfo@VValue@v8@@@Nan@@@Z@4HA 00000001800536a1 f   database.obj
 0001:000526b4       ?dtor$8@?0??Get@Database@leveldown@@CAXAEBV?$FunctionCallbackInfo@VValue@v8@@@Nan@@@Z@4HA 00000001800536b4 f   database.obj
 0001:000526c2       ?dtor$6@?0??Get@Database@leveldown@@CAXAEBV?$FunctionCallbackInfo@VValue@v8@@@Nan@@@Z@4HA 00000001800536c2 f   database.obj
 0001:000526ce       ?dtor$7@?0??Get@Database@leveldown@@CAXAEBV?$FunctionCallbackInfo@VValue@v8@@@Nan@@@Z@4HA 00000001800536ce f   database.obj
 0001:000526ee       ?dtor$10@?0??Get@Database@leveldown@@CAXAEBV?$FunctionCallbackInfo@VValue@v8@@@Nan@@@Z@4HA 00000001800536ee f   database.obj
 0001:000526fc       ?dtor$9@?0??Get@Database@leveldown@@CAXAEBV?$FunctionCallbackInfo@VValue@v8@@@Nan@@@Z@4HA 00000001800536fc f   database.obj
 0001:00052708       ?dtor$11@?0??Get@Database@leveldown@@CAXAEBV?$FunctionCallbackInfo@VValue@v8@@@Nan@@@Z@4HA 0000000180053708 f   database.obj
 0001:00052716       ?dtor$12@?0??Get@Database@leveldown@@CAXAEBV?$FunctionCallbackInfo@VValue@v8@@@Nan@@@Z@4HA 0000000180053716 f   database.obj
 0001:00052724       ?dtor$14@?0??Get@Database@leveldown@@CAXAEBV?$FunctionCallbackInfo@VValue@v8@@@Nan@@@Z@4HA 0000000180053724 f   database.obj
 0001:00052732       ?dtor$13@?0??Get@Database@leveldown@@CAXAEBV?$FunctionCallbackInfo@VValue@v8@@@Nan@@@Z@4HA 0000000180053732 f   database.obj
 0001:0005273e       ?dtor$15@?0??Get@Database@leveldown@@CAXAEBV?$FunctionCallbackInfo@VValue@v8@@@Nan@@@Z@4HA 000000018005373e f   database.obj
 0001:00052750       ?dtor$0@?0??Delete@Database@leveldown@@CAXAEBV?$FunctionCallbackInfo@VValue@v8@@@Nan@@@Z@4HA 0000000180053750 f   database.obj
 0001:00052770       ?dtor$1@?0??Delete@Database@leveldown@@CAXAEBV?$FunctionCallbackInfo@VValue@v8@@@Nan@@@Z@4HA 0000000180053770 f   database.obj
 0001:00052790       ?dtor$3@?0??Delete@Database@leveldown@@CAXAEBV?$FunctionCallbackInfo@VValue@v8@@@Nan@@@Z@4HA 0000000180053790 f   database.obj
 0001:0005279c       ?dtor$2@?0??Delete@Database@leveldown@@CAXAEBV?$FunctionCallbackInfo@VValue@v8@@@Nan@@@Z@4HA 000000018005379c f   database.obj
 0001:000527a8       ?dtor$5@?0??Delete@Database@leveldown@@CAXAEBV?$FunctionCallbackInfo@VValue@v8@@@Nan@@@Z@4HA 00000001800537a8 f   database.obj
 0001:000527b6       ?dtor$4@?0??Delete@Database@leveldown@@CAXAEBV?$FunctionCallbackInfo@VValue@v8@@@Nan@@@Z@4HA 00000001800537b6 f   database.obj
 0001:000527c2       ?dtor$6@?0??Delete@Database@leveldown@@CAXAEBV?$FunctionCallbackInfo@VValue@v8@@@Nan@@@Z@4HA 00000001800537c2 f   database.obj
 0001:000527d0       ?dtor$0@?0??Batch@Database@leveldown@@CAXAEBV?$FunctionCallbackInfo@VValue@v8@@@Nan@@@Z@4HA 00000001800537d0 f   database.obj
 0001:000527f0       ?dtor$1@?0??Batch@Database@leveldown@@CAXAEBV?$FunctionCallbackInfo@VValue@v8@@@Nan@@@Z@4HA 00000001800537f0 f   database.obj
 0001:00052810       ?dtor$2@?0??Batch@Database@leveldown@@CAXAEBV?$FunctionCallbackInfo@VValue@v8@@@Nan@@@Z@4HA 0000000180053810 f   database.obj
 0001:00052830       ?dtor$4@?0??Batch@Database@leveldown@@CAXAEBV?$FunctionCallbackInfo@VValue@v8@@@Nan@@@Z@4HA 0000000180053830 f   database.obj
 0001:0005283c       ?dtor$3@?0??Batch@Database@leveldown@@CAXAEBV?$FunctionCallbackInfo@VValue@v8@@@Nan@@@Z@4HA 000000018005383c f   database.obj
 0001:00052848       ?dtor$5@?0??Batch@Database@leveldown@@CAXAEBV?$FunctionCallbackInfo@VValue@v8@@@Nan@@@Z@4HA 0000000180053848 f   database.obj
 0001:00052854       ?dtor$6@?0??Batch@Database@leveldown@@CAXAEBV?$FunctionCallbackInfo@VValue@v8@@@Nan@@@Z@4HA 0000000180053854 f   database.obj
 0001:00052874       ?dtor$8@?0??Batch@Database@leveldown@@CAXAEBV?$FunctionCallbackInfo@VValue@v8@@@Nan@@@Z@4HA 0000000180053874 f   database.obj
 0001:00052882       ?dtor$7@?0??Batch@Database@leveldown@@CAXAEBV?$FunctionCallbackInfo@VValue@v8@@@Nan@@@Z@4HA 0000000180053882 f   database.obj
 0001:0005288e       ?dtor$9@?0??Batch@Database@leveldown@@CAXAEBV?$FunctionCallbackInfo@VValue@v8@@@Nan@@@Z@4HA 000000018005388e f   database.obj
 0001:000528a0       ?dtor$0@?0??ApproximateSize@Database@leveldown@@CAXAEBV?$FunctionCallbackInfo@VValue@v8@@@Nan@@@Z@4HA 00000001800538a0 f   database.obj
 0001:000528c0       ?dtor$1@?0??ApproximateSize@Database@leveldown@@CAXAEBV?$FunctionCallbackInfo@VValue@v8@@@Nan@@@Z@4HA 00000001800538c0 f   database.obj
 0001:000528e0       ?dtor$3@?0??ApproximateSize@Database@leveldown@@CAXAEBV?$FunctionCallbackInfo@VValue@v8@@@Nan@@@Z@4HA 00000001800538e0 f   database.obj
 0001:000528ec       ?dtor$2@?0??ApproximateSize@Database@leveldown@@CAXAEBV?$FunctionCallbackInfo@VValue@v8@@@Nan@@@Z@4HA 00000001800538ec f   database.obj
 0001:000528f8       ?dtor$5@?0??ApproximateSize@Database@leveldown@@CAXAEBV?$FunctionCallbackInfo@VValue@v8@@@Nan@@@Z@4HA 00000001800538f8 f   database.obj
 0001:00052906       ?dtor$4@?0??ApproximateSize@Database@leveldown@@CAXAEBV?$FunctionCallbackInfo@VValue@v8@@@Nan@@@Z@4HA 0000000180053906 f   database.obj
 0001:00052912       ?dtor$6@?0??ApproximateSize@Database@leveldown@@CAXAEBV?$FunctionCallbackInfo@VValue@v8@@@Nan@@@Z@4HA 0000000180053912 f   database.obj
 0001:00052920       ?dtor$0@?0??CompactRange@Database@leveldown@@CAXAEBV?$FunctionCallbackInfo@VValue@v8@@@Nan@@@Z@4HA 0000000180053920 f   database.obj
 0001:00052940       ?dtor$1@?0??CompactRange@Database@leveldown@@CAXAEBV?$FunctionCallbackInfo@VValue@v8@@@Nan@@@Z@4HA 0000000180053940 f   database.obj
 0001:00052960       ?dtor$3@?0??CompactRange@Database@leveldown@@CAXAEBV?$FunctionCallbackInfo@VValue@v8@@@Nan@@@Z@4HA 0000000180053960 f   database.obj
 0001:0005296c       ?dtor$2@?0??CompactRange@Database@leveldown@@CAXAEBV?$FunctionCallbackInfo@VValue@v8@@@Nan@@@Z@4HA 000000018005396c f   database.obj
 0001:00052978       ?dtor$5@?0??CompactRange@Database@leveldown@@CAXAEBV?$FunctionCallbackInfo@VValue@v8@@@Nan@@@Z@4HA 0000000180053978 f   database.obj
 0001:00052986       ?dtor$4@?0??CompactRange@Database@leveldown@@CAXAEBV?$FunctionCallbackInfo@VValue@v8@@@Nan@@@Z@4HA 0000000180053986 f   database.obj
 0001:00052992       ?dtor$6@?0??CompactRange@Database@leveldown@@CAXAEBV?$FunctionCallbackInfo@VValue@v8@@@Nan@@@Z@4HA 0000000180053992 f   database.obj
 0001:000529a0       ?dtor$1@?0??Iterator@Database@leveldown@@CAXAEBV?$FunctionCallbackInfo@VValue@v8@@@Nan@@@Z@4HA 00000001800539a0 f   database.obj
 0001:000529ae       ?dtor$0@?0??Iterator@Database@leveldown@@CAXAEBV?$FunctionCallbackInfo@VValue@v8@@@Nan@@@Z@4HA 00000001800539ae f   database.obj
 0001:000529ba       ?dtor$2@?0??Iterator@Database@leveldown@@CAXAEBV?$FunctionCallbackInfo@VValue@v8@@@Nan@@@Z@4HA 00000001800539ba f   database.obj
 0001:000529c8       ?dtor$3@?0??Iterator@Database@leveldown@@CAXAEBV?$FunctionCallbackInfo@VValue@v8@@@Nan@@@Z@4HA 00000001800539c8 f   database.obj
 0001:000529e0       ?dtor$0@?0???1TryCatch@Nan@@QEAA@XZ@4HA 00000001800539e0 f   database.obj
 0001:000529f0       ?dtor$0@?0???1?$_Tree@V?$_Tmap_traits@IPEAVIterator@leveldown@@U?$less@I@std@@V?$allocator@U?$pair@$$CBIPEAVIterator@leveldown@@@std@@@4@$0A@@std@@@std@@QEAA@XZ@4HA 00000001800539f0 f   database.obj
 0001:000529f0       ?dtor$0@?0???1?$_Tree@V?$_Tset_traits@U?$pair@H_K@std@@U?$less@U?$pair@H_K@std@@@2@V?$allocator@U?$pair@H_K@std@@@2@$0A@@std@@@std@@QEAA@XZ@4HA 00000001800539f0 f   leveldb:db_impl.obj
 0001:00052a00       ?dtor$1@?0??GetFromPersistent@AsyncWorker@Nan@@QEBA?AV?$Local@VValue@v8@@@v8@@PEBD@Z@4HA 0000000180053a00 f   database_async.obj
 0001:00052a0e       ?dtor$0@?0??GetFromPersistent@AsyncWorker@Nan@@QEBA?AV?$Local@VValue@v8@@@v8@@PEBD@Z@4HA 0000000180053a0e f   database_async.obj
 0001:00052a1a       ?dtor$2@?0??GetFromPersistent@AsyncWorker@Nan@@QEBA?AV?$Local@VValue@v8@@@v8@@PEBD@Z@4HA 0000000180053a1a f   database_async.obj
 0001:00052a28       ?dtor$3@?0??GetFromPersistent@AsyncWorker@Nan@@QEBA?AV?$Local@VValue@v8@@@v8@@PEBD@Z@4HA 0000000180053a28 f   database_async.obj
 0001:00052a40       ?dtor$0@?0???0IOWorker@leveldown@@QEAA@PEAVDatabase@1@PEAVCallback@Nan@@VSlice@leveldb@@AEAV?$Local@VObject@v8@@@v8@@@Z@4HA 0000000180053a40 f   database_async.obj
 0001:00052a4c       ?dtor$2@?0???0IOWorker@leveldown@@QEAA@PEAVDatabase@1@PEAVCallback@Nan@@VSlice@leveldb@@AEAV?$Local@VObject@v8@@@v8@@@Z@4HA 0000000180053a4c f   database_async.obj
 0001:00052a5a       ?dtor$1@?0???0IOWorker@leveldown@@QEAA@PEAVDatabase@1@PEAVCallback@Nan@@VSlice@leveldb@@AEAV?$Local@VObject@v8@@@v8@@@Z@4HA 0000000180053a5a f   database_async.obj
 0001:00052a66       ?dtor$4@?0???0IOWorker@leveldown@@QEAA@PEAVDatabase@1@PEAVCallback@Nan@@VSlice@leveldb@@AEAV?$Local@VObject@v8@@@v8@@@Z@4HA 0000000180053a66 f   database_async.obj
 0001:00052a74       ?dtor$3@?0???0IOWorker@leveldown@@QEAA@PEAVDatabase@1@PEAVCallback@Nan@@VSlice@leveldb@@AEAV?$Local@VObject@v8@@@v8@@@Z@4HA 0000000180053a74 f   database_async.obj
 0001:00052a80       ?dtor$5@?0???0IOWorker@leveldown@@QEAA@PEAVDatabase@1@PEAVCallback@Nan@@VSlice@leveldb@@AEAV?$Local@VObject@v8@@@v8@@@Z@4HA 0000000180053a80 f   database_async.obj
 0001:00052a8e       ?dtor$6@?0???0IOWorker@leveldown@@QEAA@PEAVDatabase@1@PEAVCallback@Nan@@VSlice@leveldb@@AEAV?$Local@VObject@v8@@@v8@@@Z@4HA 0000000180053a8e f   database_async.obj
 0001:00052aa0       ?dtor$1@?0??WorkComplete@ApproximateSizeWorker@leveldown@@UEAAXXZ@4HA 0000000180053aa0 f   database_async.obj
 0001:00052aa0       ?dtor$1@?0??WorkComplete@IOWorker@leveldown@@UEAAXXZ@4HA 0000000180053aa0 f   database_async.obj
 0001:00052aa0       ?dtor$1@?0??WorkComplete@CompactRangeWorker@leveldown@@UEAAXXZ@4HA 0000000180053aa0 f   database_async.obj
 0001:00052aae       ?dtor$0@?0??WorkComplete@IOWorker@leveldown@@UEAAXXZ@4HA 0000000180053aae f   database_async.obj
 0001:00052aae       ?dtor$0@?0??WorkComplete@ApproximateSizeWorker@leveldown@@UEAAXXZ@4HA 0000000180053aae f   database_async.obj
 0001:00052aae       ?dtor$0@?0??WorkComplete@CompactRangeWorker@leveldown@@UEAAXXZ@4HA 0000000180053aae f   database_async.obj
 0001:00052aba       ?dtor$2@?0??WorkComplete@IOWorker@leveldown@@UEAAXXZ@4HA 0000000180053aba f   database_async.obj
 0001:00052aba       ?dtor$2@?0??WorkComplete@ApproximateSizeWorker@leveldown@@UEAAXXZ@4HA 0000000180053aba f   database_async.obj
 0001:00052aba       ?dtor$2@?0??WorkComplete@CompactRangeWorker@leveldown@@UEAAXXZ@4HA 0000000180053aba f   database_async.obj
 0001:00052ad0       ?dtor$0@?0???_GReadWorker@leveldown@@UEAAPEAXI@Z@4HA 0000000180053ad0 f   database_async.obj
 0001:00052adc       ?dtor$1@?0???_GReadWorker@leveldown@@UEAAPEAXI@Z@4HA 0000000180053adc f   database_async.obj
 0001:00052aef       ?dtor$2@?0???_GReadWorker@leveldown@@UEAAPEAXI@Z@4HA 0000000180053aef f   database_async.obj
 0001:00052afb       ?dtor$3@?0???_GReadWorker@leveldown@@UEAAPEAXI@Z@4HA 0000000180053afb f   database_async.obj
 0001:00052b07       ?dtor$4@?0???_GReadWorker@leveldown@@UEAAPEAXI@Z@4HA 0000000180053b07 f   database_async.obj
 0001:00052b20       ?dtor$0@?0??Execute@ReadWorker@leveldown@@UEAAXXZ@4HA 0000000180053b20 f   database_async.obj
 0001:00052b30       ?dtor$1@?0??HandleOKCallback@ReadWorker@leveldown@@UEAAXXZ@4HA 0000000180053b30 f   database_async.obj
 0001:00052b3e       ?dtor$0@?0??HandleOKCallback@ReadWorker@leveldown@@UEAAXXZ@4HA 0000000180053b3e f   database_async.obj
 0001:00052b4a       ?dtor$2@?0??HandleOKCallback@ReadWorker@leveldown@@UEAAXXZ@4HA 0000000180053b4a f   database_async.obj
 0001:00052b60       ?dtor$0@?0???0DeleteWorker@leveldown@@QEAA@PEAVDatabase@1@PEAVCallback@Nan@@VSlice@leveldb@@_NAEAV?$Local@VObject@v8@@@v8@@@Z@4HA 0000000180053b60 f   database_async.obj
 0001:00052b6c       ?dtor$3@?0???0DeleteWorker@leveldown@@QEAA@PEAVDatabase@1@PEAVCallback@Nan@@VSlice@leveldb@@_NAEAV?$Local@VObject@v8@@@v8@@@Z@4HA 0000000180053b6c f   database_async.obj
 0001:00052b7a       ?dtor$1@?0???0DeleteWorker@leveldown@@QEAA@PEAVDatabase@1@PEAVCallback@Nan@@VSlice@leveldb@@_NAEAV?$Local@VObject@v8@@@v8@@@Z@4HA 0000000180053b7a f   database_async.obj
 0001:00052b86       ?dtor$2@?0???0DeleteWorker@leveldown@@QEAA@PEAVDatabase@1@PEAVCallback@Nan@@VSlice@leveldb@@_NAEAV?$Local@VObject@v8@@@v8@@@Z@4HA 0000000180053b86 f   database_async.obj
 0001:00052ba6       ?dtor$5@?0???0DeleteWorker@leveldown@@QEAA@PEAVDatabase@1@PEAVCallback@Nan@@VSlice@leveldb@@_NAEAV?$Local@VObject@v8@@@v8@@@Z@4HA 0000000180053ba6 f   database_async.obj
 0001:00052bb4       ?dtor$4@?0???0DeleteWorker@leveldown@@QEAA@PEAVDatabase@1@PEAVCallback@Nan@@VSlice@leveldb@@_NAEAV?$Local@VObject@v8@@@v8@@@Z@4HA 0000000180053bb4 f   database_async.obj
 0001:00052bc0       ?dtor$6@?0???0DeleteWorker@leveldown@@QEAA@PEAVDatabase@1@PEAVCallback@Nan@@VSlice@leveldb@@_NAEAV?$Local@VObject@v8@@@v8@@@Z@4HA 0000000180053bc0 f   database_async.obj
 0001:00052bce       ?dtor$7@?0???0DeleteWorker@leveldown@@QEAA@PEAVDatabase@1@PEAVCallback@Nan@@VSlice@leveldb@@_NAEAV?$Local@VObject@v8@@@v8@@@Z@4HA 0000000180053bce f   database_async.obj
 0001:00052be0       ?dtor$0@?0???_GDeleteWorker@leveldown@@UEAAPEAXI@Z@4HA 0000000180053be0 f   database_async.obj
 0001:00052be0       ?dtor$0@?0???1DeleteWorker@leveldown@@UEAA@XZ@4HA 0000000180053be0 f   database_async.obj
 0001:00052bec       ?dtor$1@?0???1DeleteWorker@leveldown@@UEAA@XZ@4HA 0000000180053bec f   database_async.obj
 0001:00052bec       ?dtor$1@?0???_GDeleteWorker@leveldown@@UEAAPEAXI@Z@4HA 0000000180053bec f   database_async.obj
 0001:00052bf8       ?dtor$2@?0???1DeleteWorker@leveldown@@UEAA@XZ@4HA 0000000180053bf8 f   database_async.obj
 0001:00052bf8       ?dtor$2@?0???_GDeleteWorker@leveldown@@UEAAPEAXI@Z@4HA 0000000180053bf8 f   database_async.obj
 0001:00052c04       ?dtor$3@?0???_GDeleteWorker@leveldown@@UEAAPEAXI@Z@4HA 0000000180053c04 f   database_async.obj
 0001:00052c04       ?dtor$3@?0???1DeleteWorker@leveldown@@UEAA@XZ@4HA 0000000180053c04 f   database_async.obj
 0001:00052c20       ?dtor$0@?0??Execute@DeleteWorker@leveldown@@UEAAXXZ@4HA 0000000180053c20 f   database_async.obj
 0001:00052c30       ?dtor$0@?0???_GWriteWorker@leveldown@@UEAAPEAXI@Z@4HA 0000000180053c30 f   database_async.obj
 0001:00052c3c       ?dtor$1@?0???_GWriteWorker@leveldown@@UEAAPEAXI@Z@4HA 0000000180053c3c f   database_async.obj
 0001:00052c48       ?dtor$2@?0???_GWriteWorker@leveldown@@UEAAPEAXI@Z@4HA 0000000180053c48 f   database_async.obj
 0001:00052c54       ?dtor$3@?0???_GWriteWorker@leveldown@@UEAAPEAXI@Z@4HA 0000000180053c54 f   database_async.obj
 0001:00052c60       ?dtor$4@?0???_GWriteWorker@leveldown@@UEAAPEAXI@Z@4HA 0000000180053c60 f   database_async.obj
 0001:00052c80       ?dtor$0@?0??Execute@WriteWorker@leveldown@@UEAAXXZ@4HA 0000000180053c80 f   database_async.obj
 0001:00052c90       ?dtor$1@?0??WorkComplete@WriteWorker@leveldown@@UEAAXXZ@4HA 0000000180053c90 f   database_async.obj
 0001:00052c9e       ?dtor$0@?0??WorkComplete@WriteWorker@leveldown@@UEAAXXZ@4HA 0000000180053c9e f   database_async.obj
 0001:00052caa       ?dtor$3@?0??WorkComplete@WriteWorker@leveldown@@UEAAXXZ@4HA 0000000180053caa f   database_async.obj
 0001:00052cb8       ?dtor$2@?0??WorkComplete@WriteWorker@leveldown@@UEAAXXZ@4HA 0000000180053cb8 f   database_async.obj
 0001:00052cc4       ?dtor$4@?0??WorkComplete@WriteWorker@leveldown@@UEAAXXZ@4HA 0000000180053cc4 f   database_async.obj
 0001:00052cd2       ?dtor$5@?0??WorkComplete@WriteWorker@leveldown@@UEAAXXZ@4HA 0000000180053cd2 f   database_async.obj
 0001:00052ce0       ?dtor$0@?0???0ApproximateSizeWorker@leveldown@@QEAA@PEAVDatabase@1@PEAVCallback@Nan@@VSlice@leveldb@@2AEAV?$Local@VObject@v8@@@v8@@3@Z@4HA 0000000180053ce0 f   database_async.obj
 0001:00052ce0       ?dtor$0@?0???0CompactRangeWorker@leveldown@@QEAA@PEAVDatabase@1@PEAVCallback@Nan@@VSlice@leveldb@@2AEAV?$Local@VObject@v8@@@v8@@3@Z@4HA 0000000180053ce0 f   database_async.obj
 0001:00052cec       ?dtor$2@?0???0ApproximateSizeWorker@leveldown@@QEAA@PEAVDatabase@1@PEAVCallback@Nan@@VSlice@leveldb@@2AEAV?$Local@VObject@v8@@@v8@@3@Z@4HA 0000000180053cec f   database_async.obj
 0001:00052cec       ?dtor$2@?0???0CompactRangeWorker@leveldown@@QEAA@PEAVDatabase@1@PEAVCallback@Nan@@VSlice@leveldb@@2AEAV?$Local@VObject@v8@@@v8@@3@Z@4HA 0000000180053cec f   database_async.obj
 0001:00052cfa       ?dtor$1@?0???0CompactRangeWorker@leveldown@@QEAA@PEAVDatabase@1@PEAVCallback@Nan@@VSlice@leveldb@@2AEAV?$Local@VObject@v8@@@v8@@3@Z@4HA 0000000180053cfa f   database_async.obj
 0001:00052cfa       ?dtor$1@?0???0ApproximateSizeWorker@leveldown@@QEAA@PEAVDatabase@1@PEAVCallback@Nan@@VSlice@leveldb@@2AEAV?$Local@VObject@v8@@@v8@@3@Z@4HA 0000000180053cfa f   database_async.obj
 0001:00052d06       ?dtor$4@?0???0CompactRangeWorker@leveldown@@QEAA@PEAVDatabase@1@PEAVCallback@Nan@@VSlice@leveldb@@2AEAV?$Local@VObject@v8@@@v8@@3@Z@4HA 0000000180053d06 f   database_async.obj
 0001:00052d06       ?dtor$4@?0???0ApproximateSizeWorker@leveldown@@QEAA@PEAVDatabase@1@PEAVCallback@Nan@@VSlice@leveldb@@2AEAV?$Local@VObject@v8@@@v8@@3@Z@4HA 0000000180053d06 f   database_async.obj
 0001:00052d14       ?dtor$3@?0???0CompactRangeWorker@leveldown@@QEAA@PEAVDatabase@1@PEAVCallback@Nan@@VSlice@leveldb@@2AEAV?$Local@VObject@v8@@@v8@@3@Z@4HA 0000000180053d14 f   database_async.obj
 0001:00052d14       ?dtor$3@?0???0ApproximateSizeWorker@leveldown@@QEAA@PEAVDatabase@1@PEAVCallback@Nan@@VSlice@leveldb@@2AEAV?$Local@VObject@v8@@@v8@@3@Z@4HA 0000000180053d14 f   database_async.obj
 0001:00052d20       ?dtor$5@?0???0CompactRangeWorker@leveldown@@QEAA@PEAVDatabase@1@PEAVCallback@Nan@@VSlice@leveldb@@2AEAV?$Local@VObject@v8@@@v8@@3@Z@4HA 0000000180053d20 f   database_async.obj
 0001:00052d20       ?dtor$5@?0???0ApproximateSizeWorker@leveldown@@QEAA@PEAVDatabase@1@PEAVCallback@Nan@@VSlice@leveldb@@2AEAV?$Local@VObject@v8@@@v8@@3@Z@4HA 0000000180053d20 f   database_async.obj
 0001:00052d2e       ?dtor$7@?0???0ApproximateSizeWorker@leveldown@@QEAA@PEAVDatabase@1@PEAVCallback@Nan@@VSlice@leveldb@@2AEAV?$Local@VObject@v8@@@v8@@3@Z@4HA 0000000180053d2e f   database_async.obj
 0001:00052d2e       ?dtor$7@?0???0CompactRangeWorker@leveldown@@QEAA@PEAVDatabase@1@PEAVCallback@Nan@@VSlice@leveldb@@2AEAV?$Local@VObject@v8@@@v8@@3@Z@4HA 0000000180053d2e f   database_async.obj
 0001:00052d3c       ?dtor$6@?0???0CompactRangeWorker@leveldown@@QEAA@PEAVDatabase@1@PEAVCallback@Nan@@VSlice@leveldb@@2AEAV?$Local@VObject@v8@@@v8@@3@Z@4HA 0000000180053d3c f   database_async.obj
 0001:00052d3c       ?dtor$6@?0???0ApproximateSizeWorker@leveldown@@QEAA@PEAVDatabase@1@PEAVCallback@Nan@@VSlice@leveldb@@2AEAV?$Local@VObject@v8@@@v8@@3@Z@4HA 0000000180053d3c f   database_async.obj
 0001:00052d48       ?dtor$8@?0???0CompactRangeWorker@leveldown@@QEAA@PEAVDatabase@1@PEAVCallback@Nan@@VSlice@leveldb@@2AEAV?$Local@VObject@v8@@@v8@@3@Z@4HA 0000000180053d48 f   database_async.obj
 0001:00052d48       ?dtor$8@?0???0ApproximateSizeWorker@leveldown@@QEAA@PEAVDatabase@1@PEAVCallback@Nan@@VSlice@leveldb@@2AEAV?$Local@VObject@v8@@@v8@@3@Z@4HA 0000000180053d48 f   database_async.obj
 0001:00052d56       ?dtor$9@?0???0CompactRangeWorker@leveldown@@QEAA@PEAVDatabase@1@PEAVCallback@Nan@@VSlice@leveldb@@2AEAV?$Local@VObject@v8@@@v8@@3@Z@4HA 0000000180053d56 f   database_async.obj
 0001:00052d56       ?dtor$9@?0???0ApproximateSizeWorker@leveldown@@QEAA@PEAVDatabase@1@PEAVCallback@Nan@@VSlice@leveldb@@2AEAV?$Local@VObject@v8@@@v8@@3@Z@4HA 0000000180053d56 f   database_async.obj
 0001:00052d70       ?dtor$0@?0??ToString@Slice@leveldb@@QEBA?AV?$basic_string@DU?$char_traits@D@std@@V?$allocator@D@2@@std@@XZ@4HA 0000000180053d70 f   iterator.obj
 0001:00052da0       ?dtor$0@?0???__Fiterator_constructor@leveldown@@YAXXZ@4HA 0000000180053da0 f   iterator.obj
 0001:00052da0       ?dtor$0@?0???__Eiterator_constructor@leveldown@@YAXXZ@4HA 0000000180053da0 f   iterator.obj
 0001:00052db0       ?dtor$3@?0??GetIterator@Iterator@leveldown@@AEAA_NXZ@4HA 0000000180053db0 f   iterator.obj
 0001:00052dd6       ?dtor$4@?0??GetIterator@Iterator@leveldown@@AEAA_NXZ@4HA 0000000180053dd6 f   iterator.obj
 0001:00052dfc       ?dtor$2@?0??GetIterator@Iterator@leveldown@@AEAA_NXZ@4HA 0000000180053dfc f   iterator.obj
 0001:00052e30       ?dtor$0@?0??FindShortSuccessor@InternalKeyComparator@leveldb@@UEBAXPEAV?$basic_string@DU?$char_traits@D@std@@V?$allocator@D@2@@std@@@Z@4HA 0000000180053e30 f   leveldb:dbformat.obj
 0001:00052e30       ?dtor$0@?0??Read@Iterator@leveldown@@AEAA_NAEAV?$basic_string@DU?$char_traits@D@std@@V?$allocator@D@2@@std@@0@Z@4HA 0000000180053e30 f   iterator.obj
 0001:00052e40       ?dtor$0@?0??IteratorNext@Iterator@leveldown@@QEAA_NAEAV?$vector@U?$pair@V?$basic_string@DU?$char_traits@D@std@@V?$allocator@D@2@@std@@V12@@std@@V?$allocator@U?$pair@V?$basic_string@DU?$char_traits@D@std@@V?$allocator@D@2@@std@@V12@@std@@@2@@std@@@Z@4HA 0000000180053e40 f   iterator.obj
 0001:00052e4c       ?dtor$1@?0??IteratorNext@Iterator@leveldown@@QEAA_NAEAV?$vector@U?$pair@V?$basic_string@DU?$char_traits@D@std@@V?$allocator@D@2@@std@@V12@@std@@V?$allocator@U?$pair@V?$basic_string@DU?$char_traits@D@std@@V?$allocator@D@2@@std@@V12@@std@@@2@@std@@@Z@4HA 0000000180053e4c f   iterator.obj
 0001:00052e58       ?dtor$3@?0??IteratorNext@Iterator@leveldown@@QEAA_NAEAV?$vector@U?$pair@V?$basic_string@DU?$char_traits@D@std@@V?$allocator@D@2@@std@@V12@@std@@V?$allocator@U?$pair@V?$basic_string@DU?$char_traits@D@std@@V?$allocator@D@2@@std@@V12@@std@@@2@@std@@@Z@4HA 0000000180053e58 f   iterator.obj
 0001:00052e81       ?dtor$4@?0??IteratorNext@Iterator@leveldown@@QEAA_NAEAV?$vector@U?$pair@V?$basic_string@DU?$char_traits@D@std@@V?$allocator@D@2@@std@@V12@@std@@V?$allocator@U?$pair@V?$basic_string@DU?$char_traits@D@std@@V?$allocator@D@2@@std@@V12@@std@@@2@@std@@@Z@4HA 0000000180053e81 f   iterator.obj
 0001:00052e8d       ?dtor$5@?0??IteratorNext@Iterator@leveldown@@QEAA_NAEAV?$vector@U?$pair@V?$basic_string@DU?$char_traits@D@std@@V?$allocator@D@2@@std@@V12@@std@@V?$allocator@U?$pair@V?$basic_string@DU?$char_traits@D@std@@V?$allocator@D@2@@std@@V12@@std@@@2@@std@@@Z@4HA 0000000180053e8d f   iterator.obj
 0001:00052e9d       ?dtor$6@?0??IteratorNext@Iterator@leveldown@@QEAA_NAEAV?$vector@U?$pair@V?$basic_string@DU?$char_traits@D@std@@V?$allocator@D@2@@std@@V12@@std@@V?$allocator@U?$pair@V?$basic_string@DU?$char_traits@D@std@@V?$allocator@D@2@@std@@V12@@std@@@2@@std@@@Z@4HA 0000000180053e9d f   iterator.obj
 0001:00052ea9       ?dtor$7@?0??IteratorNext@Iterator@leveldown@@QEAA_NAEAV?$vector@U?$pair@V?$basic_string@DU?$char_traits@D@std@@V?$allocator@D@2@@std@@V12@@std@@V?$allocator@U?$pair@V?$basic_string@DU?$char_traits@D@std@@V?$allocator@D@2@@std@@V12@@std@@@2@@std@@@Z@4HA 0000000180053ea9 f   iterator.obj
 0001:00052eb9       ?dtor$8@?0??IteratorNext@Iterator@leveldown@@QEAA_NAEAV?$vector@U?$pair@V?$basic_string@DU?$char_traits@D@std@@V?$allocator@D@2@@std@@V12@@std@@V?$allocator@U?$pair@V?$basic_string@DU?$char_traits@D@std@@V?$allocator@D@2@@std@@V12@@std@@@2@@std@@@Z@4HA 0000000180053eb9 f   iterator.obj
 0001:00052ec5       ?dtor$9@?0??IteratorNext@Iterator@leveldown@@QEAA_NAEAV?$vector@U?$pair@V?$basic_string@DU?$char_traits@D@std@@V?$allocator@D@2@@std@@V12@@std@@V?$allocator@U?$pair@V?$basic_string@DU?$char_traits@D@std@@V?$allocator@D@2@@std@@V12@@std@@@2@@std@@@Z@4HA 0000000180053ec5 f   iterator.obj
 0001:00052ee0       ?dtor$0@?0???1?$pair@V?$basic_string@DU?$char_traits@D@std@@V?$allocator@D@2@@std@@V12@@std@@QEAA@XZ@4HA 0000000180053ee0 f   iterator.obj
 0001:00052eec       ?dtor$1@?0???1?$pair@V?$basic_string@DU?$char_traits@D@std@@V?$allocator@D@2@@std@@V12@@std@@QEAA@XZ@4HA 0000000180053eec f   iterator.obj
 0001:00052f00       ?dtor$0@?0??Seek@Iterator@leveldown@@CAXAEBV?$FunctionCallbackInfo@VValue@v8@@@Nan@@@Z@4HA 0000000180053f00 f   iterator.obj
 0001:00052f20       ?dtor$3@?0??Next@Iterator@leveldown@@CAXAEBV?$FunctionCallbackInfo@VValue@v8@@@Nan@@@Z@4HA 0000000180053f20 f   iterator.obj
 0001:00052f2e       ?dtor$2@?0??Next@Iterator@leveldown@@CAXAEBV?$FunctionCallbackInfo@VValue@v8@@@Nan@@@Z@4HA 0000000180053f2e f   iterator.obj
 0001:00052f3a       ?dtor$4@?0??Next@Iterator@leveldown@@CAXAEBV?$FunctionCallbackInfo@VValue@v8@@@Nan@@@Z@4HA 0000000180053f3a f   iterator.obj
 0001:00052f48       ?dtor$5@?0??Next@Iterator@leveldown@@CAXAEBV?$FunctionCallbackInfo@VValue@v8@@@Nan@@@Z@4HA 0000000180053f48 f   iterator.obj
 0001:00052f56       ?dtor$0@?0??Next@Iterator@leveldown@@CAXAEBV?$FunctionCallbackInfo@VValue@v8@@@Nan@@@Z@4HA 0000000180053f56 f   iterator.obj
 0001:00052f76       ?dtor$1@?0??Next@Iterator@leveldown@@CAXAEBV?$FunctionCallbackInfo@VValue@v8@@@Nan@@@Z@4HA 0000000180053f76 f   iterator.obj
 0001:00052f96       ?dtor$7@?0??Next@Iterator@leveldown@@CAXAEBV?$FunctionCallbackInfo@VValue@v8@@@Nan@@@Z@4HA 0000000180053f96 f   iterator.obj
 0001:00052fa2       ?dtor$6@?0??Next@Iterator@leveldown@@CAXAEBV?$FunctionCallbackInfo@VValue@v8@@@Nan@@@Z@4HA 0000000180053fa2 f   iterator.obj
 0001:00052fae       ?dtor$8@?0??Next@Iterator@leveldown@@CAXAEBV?$FunctionCallbackInfo@VValue@v8@@@Nan@@@Z@4HA 0000000180053fae f   iterator.obj
 0001:00052fba       ?dtor$9@?0??Next@Iterator@leveldown@@CAXAEBV?$FunctionCallbackInfo@VValue@v8@@@Nan@@@Z@4HA 0000000180053fba f   iterator.obj
 0001:00052fd0       ?dtor$0@?0??End@Iterator@leveldown@@CAXAEBV?$FunctionCallbackInfo@VValue@v8@@@Nan@@@Z@4HA 0000000180053fd0 f   iterator.obj
 0001:00052fed       ?dtor$1@?0??End@Iterator@leveldown@@CAXAEBV?$FunctionCallbackInfo@VValue@v8@@@Nan@@@Z@4HA 0000000180053fed f   iterator.obj
 0001:0005300a       ?dtor$3@?0??End@Iterator@leveldown@@CAXAEBV?$FunctionCallbackInfo@VValue@v8@@@Nan@@@Z@4HA 000000018005400a f   iterator.obj
 0001:00053016       ?dtor$2@?0??End@Iterator@leveldown@@CAXAEBV?$FunctionCallbackInfo@VValue@v8@@@Nan@@@Z@4HA 0000000180054016 f   iterator.obj
 0001:00053022       ?dtor$4@?0??End@Iterator@leveldown@@CAXAEBV?$FunctionCallbackInfo@VValue@v8@@@Nan@@@Z@4HA 0000000180054022 f   iterator.obj
 0001:00053030       ?dtor$1@?0??NewInstance@Iterator@leveldown@@SA?AV?$Local@VObject@v8@@@v8@@V34@V?$Local@VNumber@v8@@@4@0@Z@4HA 0000000180054030 f   iterator.obj
 0001:0005303e       ?dtor$0@?0??NewInstance@Iterator@leveldown@@SA?AV?$Local@VObject@v8@@@v8@@V34@V?$Local@VNumber@v8@@@4@0@Z@4HA 000000018005403e f   iterator.obj
 0001:0005304a       ?dtor$2@?0??NewInstance@Iterator@leveldown@@SA?AV?$Local@VObject@v8@@@v8@@V34@V?$Local@VNumber@v8@@@4@0@Z@4HA 000000018005404a f   iterator.obj
 0001:00053058       ?dtor$3@?0??NewInstance@Iterator@leveldown@@SA?AV?$Local@VObject@v8@@@v8@@V34@V?$Local@VNumber@v8@@@4@0@Z@4HA 0000000180054058 f   iterator.obj
 0001:00053066       ?dtor$4@?0??NewInstance@Iterator@leveldown@@SA?AV?$Local@VObject@v8@@@v8@@V34@V?$Local@VNumber@v8@@@4@0@Z@4HA 0000000180054066 f   iterator.obj
 0001:00053074       ?dtor$5@?0??NewInstance@Iterator@leveldown@@SA?AV?$Local@VObject@v8@@@v8@@V34@V?$Local@VNumber@v8@@@4@0@Z@4HA 0000000180054074 f   iterator.obj
 0001:00053082       ?dtor$6@?0??NewInstance@Iterator@leveldown@@SA?AV?$Local@VObject@v8@@@v8@@V34@V?$Local@VNumber@v8@@@4@0@Z@4HA 0000000180054082 f   iterator.obj
 0001:00053090       ?dtor$7@?0??NewInstance@Iterator@leveldown@@SA?AV?$Local@VObject@v8@@@v8@@V34@V?$Local@VNumber@v8@@@4@0@Z@4HA 0000000180054090 f   iterator.obj
 0001:000530a0       ?dtor$0@?0??New@Iterator@leveldown@@CAXAEBV?$FunctionCallbackInfo@VValue@v8@@@Nan@@@Z@4HA 00000001800540a0 f   iterator.obj
 0001:000530c0       ?dtor$1@?0??New@Iterator@leveldown@@CAXAEBV?$FunctionCallbackInfo@VValue@v8@@@Nan@@@Z@4HA 00000001800540c0 f   iterator.obj
 0001:000530dd       ?dtor$2@?0??New@Iterator@leveldown@@CAXAEBV?$FunctionCallbackInfo@VValue@v8@@@Nan@@@Z@4HA 00000001800540dd f   iterator.obj
 0001:000530fa       ?dtor$3@?0??New@Iterator@leveldown@@CAXAEBV?$FunctionCallbackInfo@VValue@v8@@@Nan@@@Z@4HA 00000001800540fa f   iterator.obj
 0001:00053117       ?dtor$4@?0??New@Iterator@leveldown@@CAXAEBV?$FunctionCallbackInfo@VValue@v8@@@Nan@@@Z@4HA 0000000180054117 f   iterator.obj
 0001:00053134       ?dtor$5@?0??New@Iterator@leveldown@@CAXAEBV?$FunctionCallbackInfo@VValue@v8@@@Nan@@@Z@4HA 0000000180054134 f   iterator.obj
 0001:00053151       ?dtor$6@?0??New@Iterator@leveldown@@CAXAEBV?$FunctionCallbackInfo@VValue@v8@@@Nan@@@Z@4HA 0000000180054151 f   iterator.obj
 0001:0005316e       ?dtor$7@?0??New@Iterator@leveldown@@CAXAEBV?$FunctionCallbackInfo@VValue@v8@@@Nan@@@Z@4HA 000000018005416e f   iterator.obj
 0001:0005318b       ?dtor$8@?0??New@Iterator@leveldown@@CAXAEBV?$FunctionCallbackInfo@VValue@v8@@@Nan@@@Z@4HA 000000018005418b f   iterator.obj
 0001:000531a8       ?dtor$9@?0??New@Iterator@leveldown@@CAXAEBV?$FunctionCallbackInfo@VValue@v8@@@Nan@@@Z@4HA 00000001800541a8 f   iterator.obj
 0001:000531c8       ?dtor$10@?0??New@Iterator@leveldown@@CAXAEBV?$FunctionCallbackInfo@VValue@v8@@@Nan@@@Z@4HA 00000001800541c8 f   iterator.obj
 0001:000531e8       ?dtor$15@?0??New@Iterator@leveldown@@CAXAEBV?$FunctionCallbackInfo@VValue@v8@@@Nan@@@Z@4HA 00000001800541e8 f   iterator.obj
 0001:000531f4       ?dtor$14@?0??New@Iterator@leveldown@@CAXAEBV?$FunctionCallbackInfo@VValue@v8@@@Nan@@@Z@4HA 00000001800541f4 f   iterator.obj
 0001:00053204       ?dtor$11@?0??New@Iterator@leveldown@@CAXAEBV?$FunctionCallbackInfo@VValue@v8@@@Nan@@@Z@4HA 0000000180054204 f   iterator.obj
 0001:00053210       ?dtor$16@?0??New@Iterator@leveldown@@CAXAEBV?$FunctionCallbackInfo@VValue@v8@@@Nan@@@Z@4HA 0000000180054210 f   iterator.obj
 0001:0005321e       ?dtor$12@?0??New@Iterator@leveldown@@CAXAEBV?$FunctionCallbackInfo@VValue@v8@@@Nan@@@Z@4HA 000000018005421e f   iterator.obj
 0001:0005322a       ?dtor$13@?0??New@Iterator@leveldown@@CAXAEBV?$FunctionCallbackInfo@VValue@v8@@@Nan@@@Z@4HA 000000018005422a f   iterator.obj
 0001:0005324a       ?dtor$17@?0??New@Iterator@leveldown@@CAXAEBV?$FunctionCallbackInfo@VValue@v8@@@Nan@@@Z@4HA 000000018005424a f   iterator.obj
 0001:00053260       ?dtor$0@?0???$_Emplace_reallocate@U?$pair@V?$basic_string@DU?$char_traits@D@std@@V?$allocator@D@2@@std@@V12@@std@@@?$vector@U?$pair@V?$basic_string@DU?$char_traits@D@std@@V?$allocator@D@2@@std@@V12@@std@@V?$allocator@U?$pair@V?$basic_string@DU?$char_traits@D@std@@V?$allocator@D@2@@std@@V12@@std@@@2@@std@@QEAAPEAU?$pair@V?$basic_string@DU?$char_traits@D@std@@V?$allocator@D@2@@std@@V12@@1@QEAU21@$$QEAU21@@Z@4HA 0000000180054260 f   iterator.obj
 0001:0005326c       ?dtor$1@?0???$_Emplace_reallocate@U?$pair@V?$basic_string@DU?$char_traits@D@std@@V?$allocator@D@2@@std@@V12@@std@@@?$vector@U?$pair@V?$basic_string@DU?$char_traits@D@std@@V?$allocator@D@2@@std@@V12@@std@@V?$allocator@U?$pair@V?$basic_string@DU?$char_traits@D@std@@V?$allocator@D@2@@std@@V12@@std@@@2@@std@@QEAAPEAU?$pair@V?$basic_string@DU?$char_traits@D@std@@V?$allocator@D@2@@std@@V12@@1@QEAU21@$$QEAU21@@Z@4HA 000000018005426c f   iterator.obj
 0001:00053280       ?dtor$0@?0???$_Uninitialized_move@PEAU?$pair@V?$basic_string@DU?$char_traits@D@std@@V?$allocator@D@2@@std@@V12@@std@@PEAU12@V?$allocator@U?$pair@V?$basic_string@DU?$char_traits@D@std@@V?$allocator@D@2@@std@@V12@@std@@@2@@std@@YAPEAU?$pair@V?$basic_string@DU?$char_traits@D@std@@V?$allocator@D@2@@std@@V12@@0@QEAU10@0PEAU10@AEAV?$allocator@U?$pair@V?$basic_string@DU?$char_traits@D@std@@V?$allocator@D@2@@std@@V12@@std@@@0@@Z@4HA 0000000180054280 f   iterator.obj
 0001:0005328c       ?dtor$1@?0???$_Uninitialized_move@PEAU?$pair@V?$basic_string@DU?$char_traits@D@std@@V?$allocator@D@2@@std@@V12@@std@@PEAU12@V?$allocator@U?$pair@V?$basic_string@DU?$char_traits@D@std@@V?$allocator@D@2@@std@@V12@@std@@@2@@std@@YAPEAU?$pair@V?$basic_string@DU?$char_traits@D@std@@V?$allocator@D@2@@std@@V12@@0@QEAU10@0PEAU10@AEAV?$allocator@U?$pair@V?$basic_string@DU?$char_traits@D@std@@V?$allocator@D@2@@std@@V12@@std@@@0@@Z@4HA 000000018005428c f   iterator.obj
 0001:00053298       ?dtor$2@?0???$_Uninitialized_move@PEAU?$pair@V?$basic_string@DU?$char_traits@D@std@@V?$allocator@D@2@@std@@V12@@std@@PEAU12@V?$allocator@U?$pair@V?$basic_string@DU?$char_traits@D@std@@V?$allocator@D@2@@std@@V12@@std@@@2@@std@@YAPEAU?$pair@V?$basic_string@DU?$char_traits@D@std@@V?$allocator@D@2@@std@@V12@@0@QEAU10@0PEAU10@AEAV?$allocator@U?$pair@V?$basic_string@DU?$char_traits@D@std@@V?$allocator@D@2@@std@@V12@@std@@@0@@Z@4HA 0000000180054298 f   iterator.obj
 0001:000532b0       ?dtor$0@?0???_GNextWorker@leveldown@@UEAAPEAXI@Z@4HA 00000001800542b0 f   iterator_async.obj
 0001:000532bc       ?dtor$1@?0???_GNextWorker@leveldown@@UEAAPEAXI@Z@4HA 00000001800542bc f   iterator_async.obj
 0001:000532cf       ?dtor$2@?0???_GNextWorker@leveldown@@UEAAPEAXI@Z@4HA 00000001800542cf f   iterator_async.obj
 0001:000532db       ?dtor$3@?0???_GNextWorker@leveldown@@UEAAPEAXI@Z@4HA 00000001800542db f   iterator_async.obj
 0001:000532f0       ?dtor$4@?0??HandleOKCallback@NextWorker@leveldown@@UEAAXXZ@4HA 00000001800542f0 f   iterator_async.obj
 0001:000532fe       ?dtor$0@?0??HandleOKCallback@NextWorker@leveldown@@UEAAXXZ@4HA 00000001800542fe f   iterator_async.obj
 0001:0005330a       ?dtor$5@?0??HandleOKCallback@NextWorker@leveldown@@UEAAXXZ@4HA 000000018005430a f   iterator_async.obj
 0001:00053316       ?dtor$6@?0??HandleOKCallback@NextWorker@leveldown@@UEAAXXZ@4HA 0000000180054316 f   iterator_async.obj
 0001:00053326       ?dtor$1@?0??HandleOKCallback@NextWorker@leveldown@@UEAAXXZ@4HA 0000000180054326 f   iterator_async.obj
 0001:00053332       ?dtor$2@?0??HandleOKCallback@NextWorker@leveldown@@UEAAXXZ@4HA 0000000180054332 f   iterator_async.obj
 0001:0005333e       ?dtor$3@?0??HandleOKCallback@NextWorker@leveldown@@UEAAXXZ@4HA 000000018005433e f   iterator_async.obj
 0001:0005334a       ?dtor$7@?0??HandleOKCallback@NextWorker@leveldown@@UEAAXXZ@4HA 000000018005434a f   iterator_async.obj
 0001:00053358       ?dtor$8@?0??HandleOKCallback@NextWorker@leveldown@@UEAAXXZ@4HA 0000000180054358 f   iterator_async.obj
 0001:00053366       ?dtor$9@?0??HandleOKCallback@NextWorker@leveldown@@UEAAXXZ@4HA 0000000180054366 f   iterator_async.obj
 0001:00053374       ?dtor$10@?0??HandleOKCallback@NextWorker@leveldown@@UEAAXXZ@4HA 0000000180054374 f   iterator_async.obj
 0001:00053382       ?dtor$11@?0??HandleOKCallback@NextWorker@leveldown@@UEAAXXZ@4HA 0000000180054382 f   iterator_async.obj
 0001:0005338e       ?dtor$12@?0??HandleOKCallback@NextWorker@leveldown@@UEAAXXZ@4HA 000000018005438e f   iterator_async.obj
 0001:0005339e       ?dtor$13@?0??HandleOKCallback@NextWorker@leveldown@@UEAAXXZ@4HA 000000018005439e f   iterator_async.obj
 0001:000533ac       ?dtor$15@?0??HandleOKCallback@NextWorker@leveldown@@UEAAXXZ@4HA 00000001800543ac f   iterator_async.obj
 0001:000533ba       ?dtor$14@?0??HandleOKCallback@NextWorker@leveldown@@UEAAXXZ@4HA 00000001800543ba f   iterator_async.obj
 0001:000533c6       ?dtor$16@?0??HandleOKCallback@NextWorker@leveldown@@UEAAXXZ@4HA 00000001800543c6 f   iterator_async.obj
 0001:000533d4       ?dtor$17@?0??HandleOKCallback@NextWorker@leveldown@@UEAAXXZ@4HA 00000001800543d4 f   iterator_async.obj
 0001:000533e2       ?dtor$18@?0??HandleOKCallback@NextWorker@leveldown@@UEAAXXZ@4HA 00000001800543e2 f   iterator_async.obj
 0001:000533f0       ?dtor$19@?0??HandleOKCallback@NextWorker@leveldown@@UEAAXXZ@4HA 00000001800543f0 f   iterator_async.obj
 0001:00053400       ?dtor$4@?0??DestroyDB@leveldown@@YAXAEBV?$FunctionCallbackInfo@VValue@v8@@@Nan@@@Z@4HA 0000000180054400 f   leveldown.obj
 0001:00053400       ?dtor$4@?0??RepairDB@leveldown@@YAXAEBV?$FunctionCallbackInfo@VValue@v8@@@Nan@@@Z@4HA 0000000180054400 f   leveldown.obj
 0001:0005340e       ?dtor$0@?0??RepairDB@leveldown@@YAXAEBV?$FunctionCallbackInfo@VValue@v8@@@Nan@@@Z@4HA 000000018005440e f   leveldown.obj
 0001:0005340e       ?dtor$0@?0??DestroyDB@leveldown@@YAXAEBV?$FunctionCallbackInfo@VValue@v8@@@Nan@@@Z@4HA 000000018005440e f   leveldown.obj
 0001:0005341a       ?dtor$1@?0??DestroyDB@leveldown@@YAXAEBV?$FunctionCallbackInfo@VValue@v8@@@Nan@@@Z@4HA 000000018005441a f   leveldown.obj
 0001:0005341a       ?dtor$1@?0??RepairDB@leveldown@@YAXAEBV?$FunctionCallbackInfo@VValue@v8@@@Nan@@@Z@4HA 000000018005441a f   leveldown.obj
 0001:00053437       ?dtor$2@?0??DestroyDB@leveldown@@YAXAEBV?$FunctionCallbackInfo@VValue@v8@@@Nan@@@Z@4HA 0000000180054437 f   leveldown.obj
 0001:00053437       ?dtor$2@?0??RepairDB@leveldown@@YAXAEBV?$FunctionCallbackInfo@VValue@v8@@@Nan@@@Z@4HA 0000000180054437 f   leveldown.obj
 0001:00053454       ?dtor$6@?0??DestroyDB@leveldown@@YAXAEBV?$FunctionCallbackInfo@VValue@v8@@@Nan@@@Z@4HA 0000000180054454 f   leveldown.obj
 0001:00053454       ?dtor$6@?0??RepairDB@leveldown@@YAXAEBV?$FunctionCallbackInfo@VValue@v8@@@Nan@@@Z@4HA 0000000180054454 f   leveldown.obj
 0001:00053460       ?dtor$5@?0??RepairDB@leveldown@@YAXAEBV?$FunctionCallbackInfo@VValue@v8@@@Nan@@@Z@4HA 0000000180054460 f   leveldown.obj
 0001:00053460       ?dtor$5@?0??DestroyDB@leveldown@@YAXAEBV?$FunctionCallbackInfo@VValue@v8@@@Nan@@@Z@4HA 0000000180054460 f   leveldown.obj
 0001:0005346c       ?dtor$3@?0??RepairDB@leveldown@@YAXAEBV?$FunctionCallbackInfo@VValue@v8@@@Nan@@@Z@4HA 000000018005446c f   leveldown.obj
 0001:0005346c       ?dtor$3@?0??DestroyDB@leveldown@@YAXAEBV?$FunctionCallbackInfo@VValue@v8@@@Nan@@@Z@4HA 000000018005446c f   leveldown.obj
 0001:00053489       ?dtor$7@?0??RepairDB@leveldown@@YAXAEBV?$FunctionCallbackInfo@VValue@v8@@@Nan@@@Z@4HA 0000000180054489 f   leveldown.obj
 0001:00053489       ?dtor$7@?0??DestroyDB@leveldown@@YAXAEBV?$FunctionCallbackInfo@VValue@v8@@@Nan@@@Z@4HA 0000000180054489 f   leveldown.obj
 0001:00053495       ?dtor$8@?0??RepairDB@leveldown@@YAXAEBV?$FunctionCallbackInfo@VValue@v8@@@Nan@@@Z@4HA 0000000180054495 f   leveldown.obj
 0001:00053495       ?dtor$8@?0??DestroyDB@leveldown@@YAXAEBV?$FunctionCallbackInfo@VValue@v8@@@Nan@@@Z@4HA 0000000180054495 f   leveldown.obj
 0001:000534b0       ?dtor$0@?0??Execute@RepairWorker@leveldown@@UEAAXXZ@4HA 00000001800544b0 f   leveldown_async.obj
 0001:000534b0       ?dtor$0@?0??Execute@DestroyWorker@leveldown@@UEAAXXZ@4HA 00000001800544b0 f   leveldown_async.obj
 0001:000534bc       ?dtor$1@?0??Execute@DestroyWorker@leveldown@@UEAAXXZ@4HA 00000001800544bc f   leveldown_async.obj
 0001:000534bc       ?dtor$1@?0??Execute@RepairWorker@leveldown@@UEAAXXZ@4HA 00000001800544bc f   leveldown_async.obj
 0001:000534d0       ?dtor$0@?0??OK@Status@leveldb@@SA?AV12@XZ@4HA 00000001800544d0 f   leveldb:write_batch.obj
 0001:00053500       ?dtor$1@?0??Iterate@WriteBatch@leveldb@@QEBA?AVStatus@2@PEAVHandler@12@@Z@4HA 0000000180054500 f   leveldb:write_batch.obj
 0001:00053529       ?dtor$0@?0??Iterate@WriteBatch@leveldb@@QEBA?AVStatus@2@PEAVHandler@12@@Z@4HA 0000000180054529 f   leveldb:write_batch.obj
 0001:00053552       ?dtor$2@?0??Iterate@WriteBatch@leveldb@@QEBA?AVStatus@2@PEAVHandler@12@@Z@4HA 0000000180054552 f   leveldb:write_batch.obj
 0001:0005357b       ?dtor$3@?0??Iterate@WriteBatch@leveldb@@QEBA?AVStatus@2@PEAVHandler@12@@Z@4HA 000000018005457b f   leveldb:write_batch.obj
 0001:000535a4       ?dtor$4@?0??Iterate@WriteBatch@leveldb@@QEBA?AVStatus@2@PEAVHandler@12@@Z@4HA 00000001800545a4 f   leveldb:write_batch.obj
 0001:000535cd       ?dtor$5@?0??Iterate@WriteBatch@leveldb@@QEBA?AVStatus@2@PEAVHandler@12@@Z@4HA 00000001800545cd f   leveldb:write_batch.obj
 0001:000535f6       ?dtor$6@?0??Iterate@WriteBatch@leveldb@@QEBA?AVStatus@2@PEAVHandler@12@@Z@4HA 00000001800545f6 f   leveldb:write_batch.obj
 0001:00053620       ?dtor$2@?0??InsertInto@WriteBatchInternal@leveldb@@SA?AVStatus@2@PEBVWriteBatch@2@PEAVMemTable@2@@Z@4HA 0000000180054620 f   leveldb:write_batch.obj
 0001:0005362c       ?dtor$0@?0??InsertInto@WriteBatchInternal@leveldb@@SA?AVStatus@2@PEBVWriteBatch@2@PEAVMemTable@2@@Z@4HA 000000018005462c f   leveldb:write_batch.obj
 0001:00053638       ?dtor$1@?0??InsertInto@WriteBatchInternal@leveldb@@SA?AVStatus@2@PEBVWriteBatch@2@PEAVMemTable@2@@Z@4HA 0000000180054638 f   leveldb:write_batch.obj
 0001:0005365e       ?dtor$3@?0??InsertInto@WriteBatchInternal@leveldb@@SA?AVStatus@2@PEBVWriteBatch@2@PEAVMemTable@2@@Z@4HA 000000018005465e f   leveldb:write_batch.obj
 0001:00053670       ?dtor$0@?0???1MemTableInserter@?A0x64e28a04@leveldb@@UEAA@XZ@4HA 0000000180054670 f   leveldb:write_batch.obj
 0001:00053680       ?dtor$0@?0???_GMemTableInserter@?A0x64e28a04@leveldb@@UEAAPEAXI@Z@4HA 0000000180054680 f   leveldb:write_batch.obj
 0001:00053690       ?dtor$0@?0??ToString@Status@leveldb@@QEBA?AV?$basic_string@DU?$char_traits@D@std@@V?$allocator@D@2@@std@@XZ@4HA 0000000180054690 f   leveldb:status.obj
 0001:000536b6       ?dtor$1@?0??ToString@Status@leveldb@@QEBA?AV?$basic_string@DU?$char_traits@D@std@@V?$allocator@D@2@@std@@XZ@4HA 00000001800546b6 f   leveldb:status.obj
 0001:000536d0       ?dtor$0@?0???_GByteArraySource@snappy@@UEAAPEAXI@Z@4HA 00000001800546d0 f   snappy:snappy.obj
 0001:000536d0       ?dtor$0@?0???_GBloomFilterPolicy@?A0x5c28806e@leveldb@@UEAAPEAXI@Z@4HA 00000001800546d0 f   leveldb:bloom.obj
 0001:000536d0       ?dtor$0@?0???_GInternalFilterPolicy@leveldb@@UEAAPEAXI@Z@4HA 00000001800546d0 f   leveldb:db_impl.obj
 0001:000536e0       ?dtor$0@?0??IOError@Status@leveldb@@SA?AV12@AEBVSlice@2@0@Z@4HA 00000001800546e0 f   leveldb:db_impl.obj
 0001:00053710       ?dtor$0@?0???_GInternalKeyComparator@leveldb@@UEAAPEAXI@Z@4HA 0000000180054710 f   leveldb:db_impl.obj
 0001:00053710       ?dtor$0@?0???_GBytewiseComparatorImpl@?A0x4ae135dc@leveldb@@UEAAPEAXI@Z@4HA 0000000180054710 f   leveldb:comparator.obj
 0001:00053720       ?dtor$0@?0???1InternalKeyComparator@leveldb@@UEAA@XZ@4HA 0000000180054720 f   leveldb:db_impl.obj
 0001:00053730       ?dtor$0@?0???1InternalFilterPolicy@leveldb@@UEAA@XZ@4HA 0000000180054730 f   leveldb:db_impl.obj
 0001:00053730       ?dtor$0@?0???1ByteArraySource@snappy@@UEAA@XZ@4HA 0000000180054730 f   snappy:snappy-sinksource.obj
 0001:00053740       ?dtor$0@?0???1SnapshotImpl@leveldb@@UEAA@XZ@4HA 0000000180054740 f   leveldb:db_impl.obj
 0001:00053750       ?dtor$0@?0???_GSnapshotImpl@leveldb@@UEAAPEAXI@Z@4HA 0000000180054750 f   leveldb:db_impl.obj
 0001:00053760       ?dtor$0@?0??Unref@MemTable@leveldb@@QEAAXXZ@4HA 0000000180054760 f   leveldb:db_impl.obj
 0001:0005376c       ?dtor$1@?0??Unref@MemTable@leveldb@@QEAAXXZ@4HA 000000018005476c f   leveldb:db_impl.obj
 0001:0005377c       ?dtor$2@?0??Unref@MemTable@leveldb@@QEAAXXZ@4HA 000000018005477c f   leveldb:db_impl.obj
 0001:0005378c       ?dtor$3@?0??Unref@MemTable@leveldb@@QEAAXXZ@4HA 000000018005478c f   leveldb:db_impl.obj
 0001:00053798       ?dtor$4@?0??Unref@MemTable@leveldb@@QEAAXXZ@4HA 0000000180054798 f   leveldb:db_impl.obj
 0001:000537a4       ?dtor$5@?0??Unref@MemTable@leveldb@@QEAAXXZ@4HA 00000001800547a4 f   leveldb:db_impl.obj
 0001:000537b0       ?dtor$6@?0??Unref@MemTable@leveldb@@QEAAXXZ@4HA 00000001800547b0 f   leveldb:db_impl.obj
 0001:000537bc       ?dtor$7@?0??Unref@MemTable@leveldb@@QEAAXXZ@4HA 00000001800547bc f   leveldb:db_impl.obj
 0001:000537d0       ?dtor$0@?0???0VersionEdit@leveldb@@QEAA@XZ@4HA 00000001800547d0 f   leveldb:db_impl.obj
 0001:000537dc       ?dtor$1@?0???0VersionEdit@leveldb@@QEAA@XZ@4HA 00000001800547dc f   leveldb:db_impl.obj
 0001:000537ec       ?dtor$5@?0???0VersionEdit@leveldb@@QEAA@XZ@4HA 00000001800547ec f   leveldb:db_impl.obj
 0001:000537f8       ?dtor$4@?0???0VersionEdit@leveldb@@QEAA@XZ@4HA 00000001800547f8 f   leveldb:db_impl.obj
 0001:00053804       ?dtor$2@?0???0VersionEdit@leveldb@@QEAA@XZ@4HA 0000000180054804 f   leveldb:db_impl.obj
 0001:00053814       ?dtor$3@?0???0VersionEdit@leveldb@@QEAA@XZ@4HA 0000000180054814 f   leveldb:db_impl.obj
 0001:00053830       ?dtor$0@?0???1VersionEdit@leveldb@@QEAA@XZ@4HA 0000000180054830 f   leveldb:db_impl.obj
 0001:0005383c       ?dtor$1@?0???1VersionEdit@leveldb@@QEAA@XZ@4HA 000000018005483c f   leveldb:db_impl.obj
 0001:0005384c       ?dtor$2@?0???1VersionEdit@leveldb@@QEAA@XZ@4HA 000000018005484c f   leveldb:db_impl.obj
 0001:0005385c       ?dtor$3@?0???1VersionEdit@leveldb@@QEAA@XZ@4HA 000000018005485c f   leveldb:db_impl.obj
 0001:0005386c       ?dtor$4@?0???1VersionEdit@leveldb@@QEAA@XZ@4HA 000000018005486c f   leveldb:db_impl.obj
 0001:0005387c       ?dtor$5@?0???1VersionEdit@leveldb@@QEAA@XZ@4HA 000000018005487c f   leveldb:db_impl.obj
 0001:00053888       ?dtor$6@?0???1VersionEdit@leveldb@@QEAA@XZ@4HA 0000000180054888 f   leveldb:db_impl.obj
 0001:000538a0       ?dtor$1@?0??SetComparatorName@VersionEdit@leveldb@@QEAAXAEBVSlice@2@@Z@4HA 00000001800548a0 f   leveldb:db_impl.obj
 0001:000538d0       ?dtor$4@?0??AddFile@VersionEdit@leveldb@@QEAAXH_K0AEBVInternalKey@2@1@Z@4HA 00000001800548d0 f   leveldb:db_impl.obj
 0001:000538dc       ?dtor$2@?0??AddFile@VersionEdit@leveldb@@QEAAXH_K0AEBVInternalKey@2@1@Z@4HA 00000001800548dc f   leveldb:db_impl.obj
 0001:000538ec       ?dtor$5@?0??AddFile@VersionEdit@leveldb@@QEAAXH_K0AEBVInternalKey@2@1@Z@4HA 00000001800548ec f   leveldb:db_impl.obj
 0001:000538f8       ?dtor$3@?0??AddFile@VersionEdit@leveldb@@QEAAXH_K0AEBVInternalKey@2@1@Z@4HA 00000001800548f8 f   leveldb:db_impl.obj
 0001:00053908       ?dtor$0@?0??AddFile@VersionEdit@leveldb@@QEAAXH_K0AEBVInternalKey@2@1@Z@4HA 0000000180054908 f   leveldb:db_impl.obj
 0001:00053914       ?dtor$6@?0??AddFile@VersionEdit@leveldb@@QEAAXH_K0AEBVInternalKey@2@1@Z@4HA 0000000180054914 f   leveldb:db_impl.obj
 0001:0005393d       ?dtor$10@?0??AddFile@VersionEdit@leveldb@@QEAAXH_K0AEBVInternalKey@2@1@Z@4HA 000000018005493d f   leveldb:db_impl.obj
 0001:00053949       ?dtor$8@?0??AddFile@VersionEdit@leveldb@@QEAAXH_K0AEBVInternalKey@2@1@Z@4HA 0000000180054949 f   leveldb:db_impl.obj
 0001:00053959       ?dtor$11@?0??AddFile@VersionEdit@leveldb@@QEAAXH_K0AEBVInternalKey@2@1@Z@4HA 0000000180054959 f   leveldb:db_impl.obj
 0001:00053965       ?dtor$9@?0??AddFile@VersionEdit@leveldb@@QEAAXH_K0AEBVInternalKey@2@1@Z@4HA 0000000180054965 f   leveldb:db_impl.obj
 0001:00053975       ?dtor$7@?0??AddFile@VersionEdit@leveldb@@QEAAXH_K0AEBVInternalKey@2@1@Z@4HA 0000000180054975 f   leveldb:db_impl.obj
 0001:00053985       ?dtor$12@?0??AddFile@VersionEdit@leveldb@@QEAAXH_K0AEBVInternalKey@2@1@Z@4HA 0000000180054985 f   leveldb:db_impl.obj
 0001:000539a0       ?dtor$0@?0???1?$set@U?$pair@H_K@std@@U?$less@U?$pair@H_K@std@@@2@V?$allocator@U?$pair@H_K@std@@@2@@std@@QEAA@XZ@4HA 00000001800549a0 f   leveldb:db_impl.obj
 0001:000539ac       ?dtor$1@?0???1?$set@U?$pair@H_K@std@@U?$less@U?$pair@H_K@std@@@2@V?$allocator@U?$pair@H_K@std@@@2@@std@@QEAA@XZ@4HA 00000001800549ac f   leveldb:db_impl.obj
 0001:000539c0       ?dtor$0@?0???1?$pair@HVInternalKey@leveldb@@@std@@QEAA@XZ@4HA 00000001800549c0 f   leveldb:db_impl.obj
 0001:000539d0       ?dtor$1@?0???1?$pair@HVInternalKey@leveldb@@@std@@QEAA@XZ@4HA 00000001800549d0 f   leveldb:db_impl.obj
 0001:000539e0       ?dtor$0@?0???1FileMetaData@leveldb@@QEAA@XZ@4HA 00000001800549e0 f   leveldb:db_impl.obj
 0001:000539f0       ?dtor$1@?0???1FileMetaData@leveldb@@QEAA@XZ@4HA 00000001800549f0 f   leveldb:db_impl.obj
 0001:00053a00       ?dtor$2@?0???1FileMetaData@leveldb@@QEAA@XZ@4HA 0000000180054a00 f   leveldb:db_impl.obj
 0001:00053a0c       ?dtor$3@?0???1FileMetaData@leveldb@@QEAA@XZ@4HA 0000000180054a0c f   leveldb:db_impl.obj
 0001:00053a20       ?dtor$0@?0??Clear@VersionEdit@leveldb@@QEAAXXZ@4HA 0000000180054a20 f   leveldb:version_edit.obj
 0001:00053a20       ?dtor$0@?0???1?$vector@U?$pair@HUFileMetaData@leveldb@@@std@@V?$allocator@U?$pair@HUFileMetaData@leveldb@@@std@@@2@@std@@QEAA@XZ@4HA 0000000180054a20 f   leveldb:db_impl.obj
 0001:00053a20       ?dtor$0@?0???1?$_Uninitialized_backout_al@PEAU?$pair@HUFileMetaData@leveldb@@@std@@V?$allocator@U?$pair@HUFileMetaData@leveldb@@@std@@@2@@std@@QEAA@XZ@4HA 0000000180054a20 f   leveldb:db_impl.obj
 0001:00053a20       ?dtor$0@?0???1?$pair@HUFileMetaData@leveldb@@@std@@QEAA@XZ@4HA 0000000180054a20 f   leveldb:db_impl.obj
 0001:00053a30       ?dtor$6@?0??SanitizeOptions@leveldb@@YA?AUOptions@1@AEBV?$basic_string@DU?$char_traits@D@std@@V?$allocator@D@2@@std@@PEBVInternalKeyComparator@1@PEBVInternalFilterPolicy@1@AEBU21@@Z@4HA 0000000180054a30 f   leveldb:db_impl.obj
 0001:00053a56       ?dtor$7@?0??SanitizeOptions@leveldb@@YA?AUOptions@1@AEBV?$basic_string@DU?$char_traits@D@std@@V?$allocator@D@2@@std@@PEBVInternalKeyComparator@1@PEBVInternalFilterPolicy@1@AEBU21@@Z@4HA 0000000180054a56 f   leveldb:db_impl.obj
 0001:00053a7c       ?dtor$8@?0??SanitizeOptions@leveldb@@YA?AUOptions@1@AEBV?$basic_string@DU?$char_traits@D@std@@V?$allocator@D@2@@std@@PEBVInternalKeyComparator@1@PEBVInternalFilterPolicy@1@AEBU21@@Z@4HA 0000000180054a7c f   leveldb:db_impl.obj
 0001:00053aa2       ?dtor$9@?0??SanitizeOptions@leveldb@@YA?AUOptions@1@AEBV?$basic_string@DU?$char_traits@D@std@@V?$allocator@D@2@@std@@PEBVInternalKeyComparator@1@PEBVInternalFilterPolicy@1@AEBU21@@Z@4HA 0000000180054aa2 f   leveldb:db_impl.obj
 0001:00053ac8       ?dtor$10@?0??SanitizeOptions@leveldb@@YA?AUOptions@1@AEBV?$basic_string@DU?$char_traits@D@std@@V?$allocator@D@2@@std@@PEBVInternalKeyComparator@1@PEBVInternalFilterPolicy@1@AEBU21@@Z@4HA 0000000180054ac8 f   leveldb:db_impl.obj
 0001:00053aee       ?dtor$11@?0??SanitizeOptions@leveldb@@YA?AUOptions@1@AEBV?$basic_string@DU?$char_traits@D@std@@V?$allocator@D@2@@std@@PEBVInternalKeyComparator@1@PEBVInternalFilterPolicy@1@AEBU21@@Z@4HA 0000000180054aee f   leveldb:db_impl.obj
 0001:00053b14       ?dtor$5@?0??SanitizeOptions@leveldb@@YA?AUOptions@1@AEBV?$basic_string@DU?$char_traits@D@std@@V?$allocator@D@2@@std@@PEBVInternalKeyComparator@1@PEBVInternalFilterPolicy@1@AEBU21@@Z@4HA 0000000180054b14 f   leveldb:db_impl.obj
 0001:00053b20       ?dtor$0@?0???0DBImpl@leveldb@@QEAA@AEBUOptions@1@AEBV?$basic_string@DU?$char_traits@D@std@@V?$allocator@D@2@@std@@@Z@4HA 0000000180054b20 f   leveldb:db_impl.obj
 0001:00053b2c       ?dtor$13@?0???0DBImpl@leveldb@@QEAA@AEBUOptions@1@AEBV?$basic_string@DU?$char_traits@D@std@@V?$allocator@D@2@@std@@@Z@4HA 0000000180054b2c f   leveldb:db_impl.obj
 0001:00053b38       ?dtor$1@?0???0DBImpl@leveldb@@QEAA@AEBUOptions@1@AEBV?$basic_string@DU?$char_traits@D@std@@V?$allocator@D@2@@std@@@Z@4HA 0000000180054b38 f   leveldb:db_impl.obj
 0001:00053b48       ?dtor$14@?0???0DBImpl@leveldb@@QEAA@AEBUOptions@1@AEBV?$basic_string@DU?$char_traits@D@std@@V?$allocator@D@2@@std@@@Z@4HA 0000000180054b48 f   leveldb:db_impl.obj
 0001:00053b54       ?dtor$2@?0???0DBImpl@leveldb@@QEAA@AEBUOptions@1@AEBV?$basic_string@DU?$char_traits@D@std@@V?$allocator@D@2@@std@@@Z@4HA 0000000180054b54 f   leveldb:db_impl.obj
 0001:00053b64       ?dtor$3@?0???0DBImpl@leveldb@@QEAA@AEBUOptions@1@AEBV?$basic_string@DU?$char_traits@D@std@@V?$allocator@D@2@@std@@@Z@4HA 0000000180054b64 f   leveldb:db_impl.obj
 0001:00053b77       ?dtor$4@?0???0DBImpl@leveldb@@QEAA@AEBUOptions@1@AEBV?$basic_string@DU?$char_traits@D@std@@V?$allocator@D@2@@std@@@Z@4HA 0000000180054b77 f   leveldb:db_impl.obj
 0001:00053b8a       ?dtor$5@?0???0DBImpl@leveldb@@QEAA@AEBUOptions@1@AEBV?$basic_string@DU?$char_traits@D@std@@V?$allocator@D@2@@std@@@Z@4HA 0000000180054b8a f   leveldb:db_impl.obj
 0001:00053b9d       ?dtor$15@?0???0DBImpl@leveldb@@QEAA@AEBUOptions@1@AEBV?$basic_string@DU?$char_traits@D@std@@V?$allocator@D@2@@std@@@Z@4HA 0000000180054b9d f   leveldb:db_impl.obj
 0001:00053ba9       ?dtor$6@?0???0DBImpl@leveldb@@QEAA@AEBUOptions@1@AEBV?$basic_string@DU?$char_traits@D@std@@V?$allocator@D@2@@std@@@Z@4HA 0000000180054ba9 f   leveldb:db_impl.obj
 0001:00053bbc       ?dtor$7@?0???0DBImpl@leveldb@@QEAA@AEBUOptions@1@AEBV?$basic_string@DU?$char_traits@D@std@@V?$allocator@D@2@@std@@@Z@4HA 0000000180054bbc f   leveldb:db_impl.obj
 0001:00053bdc       ?dtor$16@?0???0DBImpl@leveldb@@QEAA@AEBUOptions@1@AEBV?$basic_string@DU?$char_traits@D@std@@V?$allocator@D@2@@std@@@Z@4HA 0000000180054bdc f   leveldb:db_impl.obj
 0001:00053be8       ?dtor$18@?0???0DBImpl@leveldb@@QEAA@AEBUOptions@1@AEBV?$basic_string@DU?$char_traits@D@std@@V?$allocator@D@2@@std@@@Z@4HA 0000000180054be8 f   leveldb:db_impl.obj
 0001:00053bf4       ?dtor$17@?0???0DBImpl@leveldb@@QEAA@AEBUOptions@1@AEBV?$basic_string@DU?$char_traits@D@std@@V?$allocator@D@2@@std@@@Z@4HA 0000000180054bf4 f   leveldb:db_impl.obj
 0001:00053c00       ?dtor$8@?0???0DBImpl@leveldb@@QEAA@AEBUOptions@1@AEBV?$basic_string@DU?$char_traits@D@std@@V?$allocator@D@2@@std@@@Z@4HA 0000000180054c00 f   leveldb:db_impl.obj
 0001:00053c13       ?dtor$20@?0???0DBImpl@leveldb@@QEAA@AEBUOptions@1@AEBV?$basic_string@DU?$char_traits@D@std@@V?$allocator@D@2@@std@@@Z@4HA 0000000180054c13 f   leveldb:db_impl.obj
 0001:00053c1f       ?dtor$19@?0???0DBImpl@leveldb@@QEAA@AEBUOptions@1@AEBV?$basic_string@DU?$char_traits@D@std@@V?$allocator@D@2@@std@@@Z@4HA 0000000180054c1f f   leveldb:db_impl.obj
 0001:00053c2b       ?dtor$9@?0???0DBImpl@leveldb@@QEAA@AEBUOptions@1@AEBV?$basic_string@DU?$char_traits@D@std@@V?$allocator@D@2@@std@@@Z@4HA 0000000180054c2b f   leveldb:db_impl.obj
 0001:00053c3e       ?dtor$10@?0???0DBImpl@leveldb@@QEAA@AEBUOptions@1@AEBV?$basic_string@DU?$char_traits@D@std@@V?$allocator@D@2@@std@@@Z@4HA 0000000180054c3e f   leveldb:db_impl.obj
 0001:00053c51       ?dtor$11@?0???0DBImpl@leveldb@@QEAA@AEBUOptions@1@AEBV?$basic_string@DU?$char_traits@D@std@@V?$allocator@D@2@@std@@@Z@4HA 0000000180054c51 f   leveldb:db_impl.obj
 0001:00053c71       ?dtor$21@?0???0DBImpl@leveldb@@QEAA@AEBUOptions@1@AEBV?$basic_string@DU?$char_traits@D@std@@V?$allocator@D@2@@std@@@Z@4HA 0000000180054c71 f   leveldb:db_impl.obj
 0001:00053c81       ?dtor$12@?0???0DBImpl@leveldb@@QEAA@AEBUOptions@1@AEBV?$basic_string@DU?$char_traits@D@std@@V?$allocator@D@2@@std@@@Z@4HA 0000000180054c81 f   leveldb:db_impl.obj
 0001:00053ca1       ?dtor$22@?0???0DBImpl@leveldb@@QEAA@AEBUOptions@1@AEBV?$basic_string@DU?$char_traits@D@std@@V?$allocator@D@2@@std@@@Z@4HA 0000000180054ca1 f   leveldb:db_impl.obj
 0001:00053cb1       ?dtor$27@?0???0DBImpl@leveldb@@QEAA@AEBUOptions@1@AEBV?$basic_string@DU?$char_traits@D@std@@V?$allocator@D@2@@std@@@Z@4HA 0000000180054cb1 f   leveldb:db_impl.obj
 0001:00053cbd       ?dtor$23@?0???0DBImpl@leveldb@@QEAA@AEBUOptions@1@AEBV?$basic_string@DU?$char_traits@D@std@@V?$allocator@D@2@@std@@@Z@4HA 0000000180054cbd f   leveldb:db_impl.obj
 0001:00053ccd       ?dtor$24@?0???0DBImpl@leveldb@@QEAA@AEBUOptions@1@AEBV?$basic_string@DU?$char_traits@D@std@@V?$allocator@D@2@@std@@@Z@4HA 0000000180054ccd f   leveldb:db_impl.obj
 0001:00053ce0       ?dtor$25@?0???0DBImpl@leveldb@@QEAA@AEBUOptions@1@AEBV?$basic_string@DU?$char_traits@D@std@@V?$allocator@D@2@@std@@@Z@4HA 0000000180054ce0 f   leveldb:db_impl.obj
 0001:00053d14       ?dtor$26@?0???0DBImpl@leveldb@@QEAA@AEBUOptions@1@AEBV?$basic_string@DU?$char_traits@D@std@@V?$allocator@D@2@@std@@@Z@4HA 0000000180054d14 f   leveldb:db_impl.obj
 0001:00053d40       ?dtor$0@?0???1DBImpl@leveldb@@UEAA@XZ@4HA 0000000180054d40 f   leveldb:db_impl.obj
 0001:00053d4c       ?dtor$1@?0???1DBImpl@leveldb@@UEAA@XZ@4HA 0000000180054d4c f   leveldb:db_impl.obj
 0001:00053d5c       ?dtor$2@?0???1DBImpl@leveldb@@UEAA@XZ@4HA 0000000180054d5c f   leveldb:db_impl.obj
 0001:00053d6c       ?dtor$3@?0???1DBImpl@leveldb@@UEAA@XZ@4HA 0000000180054d6c f   leveldb:db_impl.obj
 0001:00053d7f       ?dtor$4@?0???1DBImpl@leveldb@@UEAA@XZ@4HA 0000000180054d7f f   leveldb:db_impl.obj
 0001:00053d92       ?dtor$5@?0???1DBImpl@leveldb@@UEAA@XZ@4HA 0000000180054d92 f   leveldb:db_impl.obj
 0001:00053da5       ?dtor$6@?0???1DBImpl@leveldb@@UEAA@XZ@4HA 0000000180054da5 f   leveldb:db_impl.obj
 0001:00053db8       ?dtor$7@?0???1DBImpl@leveldb@@UEAA@XZ@4HA 0000000180054db8 f   leveldb:db_impl.obj
 0001:00053dcb       ?dtor$8@?0???1DBImpl@leveldb@@UEAA@XZ@4HA 0000000180054dcb f   leveldb:db_impl.obj
 0001:00053dde       ?dtor$9@?0???1DBImpl@leveldb@@UEAA@XZ@4HA 0000000180054dde f   leveldb:db_impl.obj
 0001:00053df1       ?dtor$11@?0???1DBImpl@leveldb@@UEAA@XZ@4HA 0000000180054df1 f   leveldb:db_impl.obj
 0001:00053e01       ?dtor$12@?0???1DBImpl@leveldb@@UEAA@XZ@4HA 0000000180054e01 f   leveldb:db_impl.obj
 0001:00053e11       ?dtor$13@?0???1DBImpl@leveldb@@UEAA@XZ@4HA 0000000180054e11 f   leveldb:db_impl.obj
 0001:00053e24       ?dtor$14@?0???1DBImpl@leveldb@@UEAA@XZ@4HA 0000000180054e24 f   leveldb:db_impl.obj
 0001:00053e55       ?dtor$15@?0???1DBImpl@leveldb@@UEAA@XZ@4HA 0000000180054e55 f   leveldb:db_impl.obj
 0001:00053e61       ?dtor$16@?0???1DBImpl@leveldb@@UEAA@XZ@4HA 0000000180054e61 f   leveldb:db_impl.obj
 0001:00053e6d       ?dtor$17@?0???1DBImpl@leveldb@@UEAA@XZ@4HA 0000000180054e6d f   leveldb:db_impl.obj
 0001:00053e79       ?dtor$18@?0???1DBImpl@leveldb@@UEAA@XZ@4HA 0000000180054e79 f   leveldb:db_impl.obj
 0001:00053e85       ?dtor$19@?0???1DBImpl@leveldb@@UEAA@XZ@4HA 0000000180054e85 f   leveldb:db_impl.obj
 0001:00053e91       ?dtor$20@?0???1DBImpl@leveldb@@UEAA@XZ@4HA 0000000180054e91 f   leveldb:db_impl.obj
 0001:00053e9d       ?dtor$21@?0???1DBImpl@leveldb@@UEAA@XZ@4HA 0000000180054e9d f   leveldb:db_impl.obj
 0001:00053ea9       ?dtor$22@?0???1DBImpl@leveldb@@UEAA@XZ@4HA 0000000180054ea9 f   leveldb:db_impl.obj
 0001:00053ec0       ?dtor$9@?0??NewDB@DBImpl@leveldb@@AEAA?AVStatus@2@XZ@4HA 0000000180054ec0 f   leveldb:db_impl.obj
 0001:00053ecc       ?dtor$10@?0??NewDB@DBImpl@leveldb@@AEAA?AVStatus@2@XZ@4HA 0000000180054ecc f   leveldb:db_impl.obj
 0001:00053edc       ?dtor$14@?0??NewDB@DBImpl@leveldb@@AEAA?AVStatus@2@XZ@4HA 0000000180054edc f   leveldb:db_impl.obj
 0001:00053ee8       ?dtor$13@?0??NewDB@DBImpl@leveldb@@AEAA?AVStatus@2@XZ@4HA 0000000180054ee8 f   leveldb:db_impl.obj
 0001:00053ef4       ?dtor$11@?0??NewDB@DBImpl@leveldb@@AEAA?AVStatus@2@XZ@4HA 0000000180054ef4 f   leveldb:db_impl.obj
 0001:00053f04       ?dtor$12@?0??NewDB@DBImpl@leveldb@@AEAA?AVStatus@2@XZ@4HA 0000000180054f04 f   leveldb:db_impl.obj
 0001:00053f14       ?dtor$0@?0??NewDB@DBImpl@leveldb@@AEAA?AVStatus@2@XZ@4HA 0000000180054f14 f   leveldb:db_impl.obj
 0001:00053f20       ?dtor$1@?0??NewDB@DBImpl@leveldb@@AEAA?AVStatus@2@XZ@4HA 0000000180054f20 f   leveldb:db_impl.obj
 0001:00053f2c       ?dtor$2@?0??NewDB@DBImpl@leveldb@@AEAA?AVStatus@2@XZ@4HA 0000000180054f2c f   leveldb:db_impl.obj
 0001:00053f38       ?dtor$3@?0??NewDB@DBImpl@leveldb@@AEAA?AVStatus@2@XZ@4HA 0000000180054f38 f   leveldb:db_impl.obj
 0001:00053f5e       ?dtor$4@?0??NewDB@DBImpl@leveldb@@AEAA?AVStatus@2@XZ@4HA 0000000180054f5e f   leveldb:db_impl.obj
 0001:00053f6a       ?dtor$5@?0??NewDB@DBImpl@leveldb@@AEAA?AVStatus@2@XZ@4HA 0000000180054f6a f   leveldb:db_impl.obj
 0001:00053f76       ?dtor$6@?0??NewDB@DBImpl@leveldb@@AEAA?AVStatus@2@XZ@4HA 0000000180054f76 f   leveldb:db_impl.obj
 0001:00053f82       ?dtor$7@?0??NewDB@DBImpl@leveldb@@AEAA?AVStatus@2@XZ@4HA 0000000180054f82 f   leveldb:db_impl.obj
 0001:00053f90       ?dtor$0@?0??MaybeIgnoreError@DBImpl@leveldb@@AEBAXPEAVStatus@2@@Z@4HA 0000000180054f90 f   leveldb:db_impl.obj
 0001:00053f9c       ?dtor$2@?0??MaybeIgnoreError@DBImpl@leveldb@@AEBAXPEAVStatus@2@@Z@4HA 0000000180054f9c f   leveldb:db_impl.obj
 0001:00053fd0       ?dtor$7@?0??DeleteObsoleteFiles@DBImpl@leveldb@@AEAAXXZ@4HA 0000000180054fd0 f   leveldb:db_impl.obj
 0001:00053fdc       ?dtor$6@?0??DeleteObsoleteFiles@DBImpl@leveldb@@AEAAXXZ@4HA 0000000180054fdc f   leveldb:db_impl.obj
 0001:00053fe8       ?dtor$0@?0??DeleteObsoleteFiles@DBImpl@leveldb@@AEAAXXZ@4HA 0000000180054fe8 f   leveldb:db_impl.obj
 0001:00053ff4       ?dtor$1@?0??DeleteObsoleteFiles@DBImpl@leveldb@@AEAAXXZ@4HA 0000000180054ff4 f   leveldb:db_impl.obj
 0001:00054000       ?dtor$8@?0??DeleteObsoleteFiles@DBImpl@leveldb@@AEAAXXZ@4HA 0000000180055000 f   leveldb:db_impl.obj
 0001:00054029       ?dtor$9@?0??DeleteObsoleteFiles@DBImpl@leveldb@@AEAAXXZ@4HA 0000000180055029 f   leveldb:db_impl.obj
 0001:00054052       ?dtor$10@?0??DeleteObsoleteFiles@DBImpl@leveldb@@AEAAXXZ@4HA 0000000180055052 f   leveldb:db_impl.obj
 0001:0005405e       ?dtor$11@?0??DeleteObsoleteFiles@DBImpl@leveldb@@AEAAXXZ@4HA 000000018005505e f   leveldb:db_impl.obj
 0001:00054070       ?dtor$13@?0??Recover@DBImpl@leveldb@@AEAA?AVStatus@2@PEAVVersionEdit@2@PEA_N@Z@4HA 0000000180055070 f   leveldb:db_impl.obj
 0001:00054099       ?dtor$14@?0??Recover@DBImpl@leveldb@@AEAA?AVStatus@2@PEAVVersionEdit@2@PEA_N@Z@4HA 0000000180055099 f   leveldb:db_impl.obj
 0001:000540c2       ?dtor$2@?0??Recover@DBImpl@leveldb@@AEAA?AVStatus@2@PEAVVersionEdit@2@PEA_N@Z@4HA 00000001800550c2 f   leveldb:db_impl.obj
 0001:000540ce       ?dtor$3@?0??Recover@DBImpl@leveldb@@AEAA?AVStatus@2@PEAVVersionEdit@2@PEA_N@Z@4HA 00000001800550ce f   leveldb:db_impl.obj
 0001:000540f7       ?dtor$15@?0??Recover@DBImpl@leveldb@@AEAA?AVStatus@2@PEAVVersionEdit@2@PEA_N@Z@4HA 00000001800550f7 f   leveldb:db_impl.obj
 0001:00054120       ?dtor$16@?0??Recover@DBImpl@leveldb@@AEAA?AVStatus@2@PEAVVersionEdit@2@PEA_N@Z@4HA 0000000180055120 f   leveldb:db_impl.obj
 0001:00054149       ?dtor$5@?0??Recover@DBImpl@leveldb@@AEAA?AVStatus@2@PEAVVersionEdit@2@PEA_N@Z@4HA 0000000180055149 f   leveldb:db_impl.obj
 0001:00054155       ?dtor$17@?0??Recover@DBImpl@leveldb@@AEAA?AVStatus@2@PEAVVersionEdit@2@PEA_N@Z@4HA 0000000180055155 f   leveldb:db_impl.obj
 0001:0005417e       ?dtor$18@?0??Recover@DBImpl@leveldb@@AEAA?AVStatus@2@PEAVVersionEdit@2@PEA_N@Z@4HA 000000018005517e f   leveldb:db_impl.obj
 0001:000541a7       ?dtor$6@?0??Recover@DBImpl@leveldb@@AEAA?AVStatus@2@PEAVVersionEdit@2@PEA_N@Z@4HA 00000001800551a7 f   leveldb:db_impl.obj
 0001:000541b3       ?dtor$7@?0??Recover@DBImpl@leveldb@@AEAA?AVStatus@2@PEAVVersionEdit@2@PEA_N@Z@4HA 00000001800551b3 f   leveldb:db_impl.obj
 0001:000541bf       ?dtor$8@?0??Recover@DBImpl@leveldb@@AEAA?AVStatus@2@PEAVVersionEdit@2@PEA_N@Z@4HA 00000001800551bf f   leveldb:db_impl.obj
 0001:000541cb       ?dtor$20@?0??Recover@DBImpl@leveldb@@AEAA?AVStatus@2@PEAVVersionEdit@2@PEA_N@Z@4HA 00000001800551cb f   leveldb:db_impl.obj
 0001:000541d7       ?dtor$19@?0??Recover@DBImpl@leveldb@@AEAA?AVStatus@2@PEAVVersionEdit@2@PEA_N@Z@4HA 00000001800551d7 f   leveldb:db_impl.obj
 0001:000541e3       ?dtor$9@?0??Recover@DBImpl@leveldb@@AEAA?AVStatus@2@PEAVVersionEdit@2@PEA_N@Z@4HA 00000001800551e3 f   leveldb:db_impl.obj
